ARM GAS  C:\Users\JAVIER~1\AppData\Local\Temp\ccQR2PRn.s 			page 1


   1              		.cpu cortex-m0
   2              		.fpu softvfp
   3              		.eabi_attribute 20, 1
   4              		.eabi_attribute 21, 1
   5              		.eabi_attribute 23, 3
   6              		.eabi_attribute 24, 1
   7              		.eabi_attribute 25, 1
   8              		.eabi_attribute 26, 1
   9              		.eabi_attribute 30, 1
  10              		.eabi_attribute 34, 0
  11              		.eabi_attribute 18, 4
  12              		.code	16
  13              		.file	"CapSense_MBX.c"
  14              		.text
  15              	.Ltext0:
  16              		.cfi_sections	.debug_frame
  17              		.section	.text.CapSense_InitMailbox,"ax",%progbits
  18              		.align	2
  19              		.global	CapSense_InitMailbox
  20              		.code	16
  21              		.thumb_func
  22              		.type	CapSense_InitMailbox, %function
  23              	CapSense_InitMailbox:
  24              	.LFB36:
  25              		.file 1 ".\\Generated_Source\\PSoC4\\CapSense_MBX.c"
   1:.\Generated_Source\PSoC4/CapSense_MBX.c **** /*******************************************************************************
   2:.\Generated_Source\PSoC4/CapSense_MBX.c **** * File Name: CapSense_MBX.c
   3:.\Generated_Source\PSoC4/CapSense_MBX.c **** * Version 2.30
   4:.\Generated_Source\PSoC4/CapSense_MBX.c **** *
   5:.\Generated_Source\PSoC4/CapSense_MBX.c **** * Description:
   6:.\Generated_Source\PSoC4/CapSense_MBX.c **** *  This file provides the source code of Tuner communication APIs for the
   7:.\Generated_Source\PSoC4/CapSense_MBX.c **** *  CapSense CSD component.
   8:.\Generated_Source\PSoC4/CapSense_MBX.c **** *
   9:.\Generated_Source\PSoC4/CapSense_MBX.c **** * Note:
  10:.\Generated_Source\PSoC4/CapSense_MBX.c **** *
  11:.\Generated_Source\PSoC4/CapSense_MBX.c **** ********************************************************************************
  12:.\Generated_Source\PSoC4/CapSense_MBX.c **** * Copyright 2013-2015, Cypress Semiconductor Corporation.  All rights reserved.
  13:.\Generated_Source\PSoC4/CapSense_MBX.c **** * You may use this file only in accordance with the license, terms, conditions,
  14:.\Generated_Source\PSoC4/CapSense_MBX.c **** * disclaimers, and limitations in the end user license agreement accompanying
  15:.\Generated_Source\PSoC4/CapSense_MBX.c **** * the software package with which this file was provided.
  16:.\Generated_Source\PSoC4/CapSense_MBX.c **** *******************************************************************************/
  17:.\Generated_Source\PSoC4/CapSense_MBX.c **** 
  18:.\Generated_Source\PSoC4/CapSense_MBX.c **** #include "CapSense_MBX.h"
  19:.\Generated_Source\PSoC4/CapSense_MBX.c **** 
  20:.\Generated_Source\PSoC4/CapSense_MBX.c **** 
  21:.\Generated_Source\PSoC4/CapSense_MBX.c **** /*******************************************************************************
  22:.\Generated_Source\PSoC4/CapSense_MBX.c **** *  Place your includes, defines and code here
  23:.\Generated_Source\PSoC4/CapSense_MBX.c **** ********************************************************************************/
  24:.\Generated_Source\PSoC4/CapSense_MBX.c **** /* `#START CapSense_MBX` */
  25:.\Generated_Source\PSoC4/CapSense_MBX.c **** 
  26:.\Generated_Source\PSoC4/CapSense_MBX.c **** /* `#END` */
  27:.\Generated_Source\PSoC4/CapSense_MBX.c **** 
  28:.\Generated_Source\PSoC4/CapSense_MBX.c **** #if (CapSense_TUNING_METHOD == CapSense__TUNING_MANUAL)
  29:.\Generated_Source\PSoC4/CapSense_MBX.c ****     /*******************************************************************************
  30:.\Generated_Source\PSoC4/CapSense_MBX.c ****     * Function Name: CapSense_InitCsdParams
  31:.\Generated_Source\PSoC4/CapSense_MBX.c ****     ********************************************************************************
  32:.\Generated_Source\PSoC4/CapSense_MBX.c ****     *
ARM GAS  C:\Users\JAVIER~1\AppData\Local\Temp\ccQR2PRn.s 			page 2


  33:.\Generated_Source\PSoC4/CapSense_MBX.c ****     * Summary:
  34:.\Generated_Source\PSoC4/CapSense_MBX.c ****     *  Configures the CSD parameters to match the parameters in the inbox.
  35:.\Generated_Source\PSoC4/CapSense_MBX.c ****     *  Used only in the manual tuning mode to apply new scanning parameters from the Tuner
  36:.\Generated_Source\PSoC4/CapSense_MBX.c ****     *  GUI.
  37:.\Generated_Source\PSoC4/CapSense_MBX.c ****     *
  38:.\Generated_Source\PSoC4/CapSense_MBX.c ****     * Parameters:
  39:.\Generated_Source\PSoC4/CapSense_MBX.c ****     *  inbox:  Pointer to Inbox structure in RAM.
  40:.\Generated_Source\PSoC4/CapSense_MBX.c ****     *
  41:.\Generated_Source\PSoC4/CapSense_MBX.c ****     * Return:
  42:.\Generated_Source\PSoC4/CapSense_MBX.c ****     *  None. Contents of the structure are not modified.
  43:.\Generated_Source\PSoC4/CapSense_MBX.c ****     *
  44:.\Generated_Source\PSoC4/CapSense_MBX.c ****     * Global Variables:
  45:.\Generated_Source\PSoC4/CapSense_MBX.c ****     *  CapSense_modulationIDAC[]      - stores modulation IDAC values.
  46:.\Generated_Source\PSoC4/CapSense_MBX.c ****     *  CapSense_compensationIDAC[]    - stores compensation IDAC values.
  47:.\Generated_Source\PSoC4/CapSense_MBX.c ****     *  CapSense_widgetResolution[]    - used to store the scan resolution values for each widget.
  48:.\Generated_Source\PSoC4/CapSense_MBX.c ****     *  CapSense_senseClkDividerVal[]  - used to store the sense clock divider values for each widge
  49:.\Generated_Source\PSoC4/CapSense_MBX.c ****     *  CapSense_sampleClkDividerVal[] - used to store the sample clock divider values for each widg
  50:.\Generated_Source\PSoC4/CapSense_MBX.c ****     *  CapSense_fingerThreshold[]     - used to store the finger threshold values for each widget.
  51:.\Generated_Source\PSoC4/CapSense_MBX.c ****     *  CapSense_noiseThreshold[]      - used to store the noise threshold values for each widget.
  52:.\Generated_Source\PSoC4/CapSense_MBX.c ****     *  CapSense_hysteresis[]          - used to store the hysteresis values for each widget.
  53:.\Generated_Source\PSoC4/CapSense_MBX.c ****     *  CapSense_debounce[]            - used to store the debounce values for each widget.
  54:.\Generated_Source\PSoC4/CapSense_MBX.c ****     *
  55:.\Generated_Source\PSoC4/CapSense_MBX.c ****     *******************************************************************************/
  56:.\Generated_Source\PSoC4/CapSense_MBX.c ****     static void CapSense_InitCsdParams(volatile const CapSense_INBOX *inbox);
  57:.\Generated_Source\PSoC4/CapSense_MBX.c ****     static void CapSense_InitCsdParams(volatile const CapSense_INBOX *inbox)
  58:.\Generated_Source\PSoC4/CapSense_MBX.c ****     {
  59:.\Generated_Source\PSoC4/CapSense_MBX.c ****         /* Define widget sensor belongs to */
  60:.\Generated_Source\PSoC4/CapSense_MBX.c ****         uint8 sensor = inbox->sensorIndex;
  61:.\Generated_Source\PSoC4/CapSense_MBX.c ****         uint8 widget = CapSense_widgetNumber[sensor];
  62:.\Generated_Source\PSoC4/CapSense_MBX.c **** 
  63:.\Generated_Source\PSoC4/CapSense_MBX.c ****         /* Scanning parameters */
  64:.\Generated_Source\PSoC4/CapSense_MBX.c ****         #if(0u == CapSense_AUTOCALIBRATION_ENABLE)
  65:.\Generated_Source\PSoC4/CapSense_MBX.c ****             CapSense_modulationIDAC[sensor] = inbox->CapSense_inboxCsdCfg.modulatorIDAC;
  66:.\Generated_Source\PSoC4/CapSense_MBX.c **** 
  67:.\Generated_Source\PSoC4/CapSense_MBX.c ****             #if (CapSense_IDAC_CNT == 2u)
  68:.\Generated_Source\PSoC4/CapSense_MBX.c ****                 CapSense_compensationIDAC[sensor] = inbox->CapSense_inboxCsdCfg.compensationIDAC;
  69:.\Generated_Source\PSoC4/CapSense_MBX.c ****             #endif /* ( CapSense_IDAC_CNT == 2u ) */
  70:.\Generated_Source\PSoC4/CapSense_MBX.c ****         #endif /* (0u != CapSense_AUTOCALIBRATION_ENABLE) */
  71:.\Generated_Source\PSoC4/CapSense_MBX.c **** 
  72:.\Generated_Source\PSoC4/CapSense_MBX.c ****         CapSense_SetIDACRange((uint32)inbox->CapSense_inboxCsdCfg.idacRange);
  73:.\Generated_Source\PSoC4/CapSense_MBX.c **** 
  74:.\Generated_Source\PSoC4/CapSense_MBX.c ****         CapSense_widgetResolution[widget] =
  75:.\Generated_Source\PSoC4/CapSense_MBX.c ****         (uint32)(~(CapSense_RESOLUTION_16_BITS << inbox->CapSense_inboxCsdCfg.scanResolution));
  76:.\Generated_Source\PSoC4/CapSense_MBX.c **** 
  77:.\Generated_Source\PSoC4/CapSense_MBX.c ****         CapSense_widgetResolution[widget] &= CapSense_RESOLUTION_16_BITS;
  78:.\Generated_Source\PSoC4/CapSense_MBX.c **** 
  79:.\Generated_Source\PSoC4/CapSense_MBX.c ****         #if (0u != CapSense_MULTIPLE_FREQUENCY_SET )
  80:.\Generated_Source\PSoC4/CapSense_MBX.c ****             CapSense_senseClkDividerVal[sensor] = inbox->CapSense_inboxCsdCfg.analogSwitchDivider;
  81:.\Generated_Source\PSoC4/CapSense_MBX.c ****             CapSense_sampleClkDividerVal[sensor] = inbox->CapSense_inboxCsdCfg.modulatorDivider;
  82:.\Generated_Source\PSoC4/CapSense_MBX.c ****         #else
  83:.\Generated_Source\PSoC4/CapSense_MBX.c ****             CapSense_senseClkDividerVal = inbox->CapSense_inboxCsdCfg.analogSwitchDivider;
  84:.\Generated_Source\PSoC4/CapSense_MBX.c ****             CapSense_sampleClkDividerVal = inbox->CapSense_inboxCsdCfg.modulatorDivider;
  85:.\Generated_Source\PSoC4/CapSense_MBX.c ****         #endif /* (0u != CapSense_MULTIPLE_FREQUENCY_SET ) */
  86:.\Generated_Source\PSoC4/CapSense_MBX.c **** 
  87:.\Generated_Source\PSoC4/CapSense_MBX.c ****         #if(0u != CapSense_CSHL_API_GENERATE)
  88:.\Generated_Source\PSoC4/CapSense_MBX.c ****             #if (0u != CapSense_TOTAL_GENERICS_COUNT)
  89:.\Generated_Source\PSoC4/CapSense_MBX.c ****                 /* Exclude generic widget */
ARM GAS  C:\Users\JAVIER~1\AppData\Local\Temp\ccQR2PRn.s 			page 3


  90:.\Generated_Source\PSoC4/CapSense_MBX.c ****                 if(widget < CapSense_END_OF_WIDGETS_INDEX)
  91:.\Generated_Source\PSoC4/CapSense_MBX.c ****                 {
  92:.\Generated_Source\PSoC4/CapSense_MBX.c ****             #endif  /* 0u != CapSense_TOTAL_GENERICS_COUNT */
  93:.\Generated_Source\PSoC4/CapSense_MBX.c **** 
  94:.\Generated_Source\PSoC4/CapSense_MBX.c ****                 /* High level parameters */
  95:.\Generated_Source\PSoC4/CapSense_MBX.c ****                 CapSense_fingerThreshold[widget] = inbox->CapSense_inboxCsdCfg.fingerThreshold;
  96:.\Generated_Source\PSoC4/CapSense_MBX.c ****                 CapSense_noiseThreshold[widget]  = inbox->CapSense_inboxCsdCfg.noiseThreshold;
  97:.\Generated_Source\PSoC4/CapSense_MBX.c **** 
  98:.\Generated_Source\PSoC4/CapSense_MBX.c ****                 CapSense_hysteresis[widget] = inbox->CapSense_inboxCsdCfg.hysteresis;
  99:.\Generated_Source\PSoC4/CapSense_MBX.c ****                 CapSense_debounce[widget]   = inbox->CapSense_inboxCsdCfg.debounce;
 100:.\Generated_Source\PSoC4/CapSense_MBX.c **** 
 101:.\Generated_Source\PSoC4/CapSense_MBX.c ****                 #if(CapSense_TOTAL_TRACKPAD_GESTURES_COUNT > 0u)
 102:.\Generated_Source\PSoC4/CapSense_MBX.c ****                     CapSense_centroidMult[widget] = (uint16)((inbox->CapSense_inboxCsdCfg.apiResolu
 103:.\Generated_Source\PSoC4/CapSense_MBX.c ****                                                             (uint32)CapSense_RES_MULT) / (uint32)Ca
 104:.\Generated_Source\PSoC4/CapSense_MBX.c **** 
 105:.\Generated_Source\PSoC4/CapSense_MBX.c ****                 #endif /* (CapSense_TOTAL_TRACKPAD_GESTURES_COUNT > 0u) */
 106:.\Generated_Source\PSoC4/CapSense_MBX.c **** 
 107:.\Generated_Source\PSoC4/CapSense_MBX.c ****             #if (0u != CapSense_TOTAL_GENERICS_COUNT)
 108:.\Generated_Source\PSoC4/CapSense_MBX.c ****                 /* Exclude generic widget */
 109:.\Generated_Source\PSoC4/CapSense_MBX.c ****                 }
 110:.\Generated_Source\PSoC4/CapSense_MBX.c ****             #endif  /* 0u != CapSense_TOTAL_GENERICS_COUNT */
 111:.\Generated_Source\PSoC4/CapSense_MBX.c **** 
 112:.\Generated_Source\PSoC4/CapSense_MBX.c ****             /* Re-Init baseline */
 113:.\Generated_Source\PSoC4/CapSense_MBX.c ****             CapSense_InitializeAllBaselines();
 114:.\Generated_Source\PSoC4/CapSense_MBX.c ****         #endif /* (0u != CapSense_CSHL_API_GENERATE) */
 115:.\Generated_Source\PSoC4/CapSense_MBX.c ****     }
 116:.\Generated_Source\PSoC4/CapSense_MBX.c **** #endif  /* (CapSense_TUNING_METHOD == CapSense__TUNING_MANUAL) */
 117:.\Generated_Source\PSoC4/CapSense_MBX.c **** 
 118:.\Generated_Source\PSoC4/CapSense_MBX.c **** 
 119:.\Generated_Source\PSoC4/CapSense_MBX.c ****     /*******************************************************************************
 120:.\Generated_Source\PSoC4/CapSense_MBX.c ****     * Function Name: CapSense_InitGesturesParams
 121:.\Generated_Source\PSoC4/CapSense_MBX.c ****     ********************************************************************************
 122:.\Generated_Source\PSoC4/CapSense_MBX.c ****     *
 123:.\Generated_Source\PSoC4/CapSense_MBX.c ****     * Summary:
 124:.\Generated_Source\PSoC4/CapSense_MBX.c ****     *  Configures the parameters of gestures to match the parameters in the inbox.
 125:.\Generated_Source\PSoC4/CapSense_MBX.c ****     *  Used only in the manual and auto tuning mode or if the gestures support is enabled.
 126:.\Generated_Source\PSoC4/CapSense_MBX.c ****     *  Intended apply new scanning parameters from the Tuner GUI.
 127:.\Generated_Source\PSoC4/CapSense_MBX.c ****     *
 128:.\Generated_Source\PSoC4/CapSense_MBX.c ****     * Parameters:
 129:.\Generated_Source\PSoC4/CapSense_MBX.c ****     *  inbox:  Pointer to Inbox structure in RAM.
 130:.\Generated_Source\PSoC4/CapSense_MBX.c ****     *
 131:.\Generated_Source\PSoC4/CapSense_MBX.c ****     * Return:
 132:.\Generated_Source\PSoC4/CapSense_MBX.c ****     *  None. Contents of the structure are not modified.
 133:.\Generated_Source\PSoC4/CapSense_MBX.c ****     *
 134:.\Generated_Source\PSoC4/CapSense_MBX.c ****     *******************************************************************************/
 135:.\Generated_Source\PSoC4/CapSense_MBX.c **** #if((CapSense_TUNING_METHOD != CapSense__TUNING_NONE) && (0u != CapSense_TOTAL_TRACKPAD_GESTURES_CO
 136:.\Generated_Source\PSoC4/CapSense_MBX.c ****     static void CapSense_InitGesturesParams(volatile const CapSense_INBOX *inbox);
 137:.\Generated_Source\PSoC4/CapSense_MBX.c ****     static void CapSense_InitGesturesParams(volatile const CapSense_INBOX *inbox)
 138:.\Generated_Source\PSoC4/CapSense_MBX.c ****     {
 139:.\Generated_Source\PSoC4/CapSense_MBX.c ****         #if(0u != CapSense_IS_ANY_GESTURES_EN)
 140:.\Generated_Source\PSoC4/CapSense_MBX.c ****             #if(0u != CapSense_CLICK_GEST_ENABLED)
 141:.\Generated_Source\PSoC4/CapSense_MBX.c ****                 CapSense_gesturesConfig.clickRadiusX            = (uint8)inbox->CapSense_inboxTmgCf
 142:.\Generated_Source\PSoC4/CapSense_MBX.c ****                 CapSense_gesturesConfig.clickRadiusY            = (uint8)inbox->CapSense_inboxTmgCf
 143:.\Generated_Source\PSoC4/CapSense_MBX.c ****                 CapSense_gesturesConfig.doubleClickRadius       = (uint8)inbox->CapSense_inboxTmgCf
 144:.\Generated_Source\PSoC4/CapSense_MBX.c ****                 CapSense_gesturesConfig.STDoubleClickTimeoutMax = inbox->CapSense_inboxTmgCfg.stDou
 145:.\Generated_Source\PSoC4/CapSense_MBX.c ****                 CapSense_gesturesConfig.STDoubleClickTimeoutMin = inbox->CapSense_inboxTmgCfg.stDou
 146:.\Generated_Source\PSoC4/CapSense_MBX.c ****                 CapSense_gesturesConfig.STClickTimeoutMax       = inbox->CapSense_inboxTmgCfg.stCli
ARM GAS  C:\Users\JAVIER~1\AppData\Local\Temp\ccQR2PRn.s 			page 4


 147:.\Generated_Source\PSoC4/CapSense_MBX.c ****                 CapSense_gesturesConfig.STClickTimeoutMin       = inbox->CapSense_inboxTmgCfg.stCli
 148:.\Generated_Source\PSoC4/CapSense_MBX.c ****                 CapSense_gesturesConfig.DTClickTimeoutMax       = inbox->CapSense_inboxTmgCfg.dtCli
 149:.\Generated_Source\PSoC4/CapSense_MBX.c ****                 CapSense_gesturesConfig.DTClickTimeoutMin       = inbox->CapSense_inboxTmgCfg.dtCli
 150:.\Generated_Source\PSoC4/CapSense_MBX.c ****             #endif /* (0u != CapSense_CLICK_GEST_ENABLED) */
 151:.\Generated_Source\PSoC4/CapSense_MBX.c **** 
 152:.\Generated_Source\PSoC4/CapSense_MBX.c ****             #if(0u != CapSense_ZOOM_GEST_ENABLED)
 153:.\Generated_Source\PSoC4/CapSense_MBX.c ****                 CapSense_gesturesConfig.dtScrollToZoomDebounce  = inbox->CapSense_inboxTmgCfg.dtPan
 154:.\Generated_Source\PSoC4/CapSense_MBX.c ****                 CapSense_gesturesConfig.DTZoomDebounce          = inbox->CapSense_inboxTmgCfg.dtZoo
 155:.\Generated_Source\PSoC4/CapSense_MBX.c ****                 CapSense_gesturesConfig.zoomActiveDistanceX     = inbox->CapSense_inboxTmgCfg.zoomA
 156:.\Generated_Source\PSoC4/CapSense_MBX.c ****                 CapSense_gesturesConfig.zoomActiveDistanceY     = inbox->CapSense_inboxTmgCfg.zoomA
 157:.\Generated_Source\PSoC4/CapSense_MBX.c ****             #endif /* (0u != CapSense_ZOOM_GEST_ENABLED) */
 158:.\Generated_Source\PSoC4/CapSense_MBX.c **** 
 159:.\Generated_Source\PSoC4/CapSense_MBX.c ****             #if(0u != CapSense_ST_SCROLL_GEST_ENABLED)
 160:.\Generated_Source\PSoC4/CapSense_MBX.c ****                 CapSense_gesturesConfig.stScrollDebounce        = inbox->CapSense_inboxTmgCfg.stScr
 161:.\Generated_Source\PSoC4/CapSense_MBX.c **** 
 162:.\Generated_Source\PSoC4/CapSense_MBX.c ****                 CapSense_gesturesConfig.stScrollThreshold1X     = inbox->CapSense_inboxTmgCfg.stScr
 163:.\Generated_Source\PSoC4/CapSense_MBX.c ****                 CapSense_gesturesConfig.stScrollThreshold2X     = inbox->CapSense_inboxTmgCfg.stScr
 164:.\Generated_Source\PSoC4/CapSense_MBX.c ****                 CapSense_gesturesConfig.stScrollThreshold3X     = inbox->CapSense_inboxTmgCfg.stScr
 165:.\Generated_Source\PSoC4/CapSense_MBX.c ****                 CapSense_gesturesConfig.stScrollThreshold4X     = inbox->CapSense_inboxTmgCfg.stScr
 166:.\Generated_Source\PSoC4/CapSense_MBX.c ****                 CapSense_gesturesConfig.stScrollThreshold1Y     = inbox->CapSense_inboxTmgCfg.stScr
 167:.\Generated_Source\PSoC4/CapSense_MBX.c ****                 CapSense_gesturesConfig.stScrollThreshold2Y     = inbox->CapSense_inboxTmgCfg.stScr
 168:.\Generated_Source\PSoC4/CapSense_MBX.c ****                 CapSense_gesturesConfig.stScrollThreshold3Y     = inbox->CapSense_inboxTmgCfg.stScr
 169:.\Generated_Source\PSoC4/CapSense_MBX.c ****                 CapSense_gesturesConfig.stScrollThreshold4Y     = inbox->CapSense_inboxTmgCfg.stScr
 170:.\Generated_Source\PSoC4/CapSense_MBX.c ****                 CapSense_gesturesConfig.stScrollStep1           = inbox->CapSense_inboxTmgCfg.stScr
 171:.\Generated_Source\PSoC4/CapSense_MBX.c ****                 CapSense_gesturesConfig.stScrollStep2           = inbox->CapSense_inboxTmgCfg.stScr
 172:.\Generated_Source\PSoC4/CapSense_MBX.c ****                 CapSense_gesturesConfig.stScrollStep3           = inbox->CapSense_inboxTmgCfg.stScr
 173:.\Generated_Source\PSoC4/CapSense_MBX.c ****                 CapSense_gesturesConfig.stScrollStep4           = inbox->CapSense_inboxTmgCfg.stScr
 174:.\Generated_Source\PSoC4/CapSense_MBX.c ****                 CapSense_gesturesConfig.stInScrActiveDistanceX  = inbox->CapSense_inboxTmgCfg.stInS
 175:.\Generated_Source\PSoC4/CapSense_MBX.c ****                 CapSense_gesturesConfig.stInScrActiveDistanceY  = inbox->CapSense_inboxTmgCfg.stInS
 176:.\Generated_Source\PSoC4/CapSense_MBX.c ****                 CapSense_gesturesConfig.stInScrCountLevel       = inbox->CapSense_inboxTmgCfg.stInS
 177:.\Generated_Source\PSoC4/CapSense_MBX.c ****             #endif /* (0u != CapSense_ST_SCROLL_GEST_ENABLED) */
 178:.\Generated_Source\PSoC4/CapSense_MBX.c **** 
 179:.\Generated_Source\PSoC4/CapSense_MBX.c ****             #if(0u != CapSense_DT_SCROLL_GEST_ENABLED)
 180:.\Generated_Source\PSoC4/CapSense_MBX.c ****                 CapSense_gesturesConfig.dtScrollDebounce        = inbox->CapSense_inboxTmgCfg.dtScr
 181:.\Generated_Source\PSoC4/CapSense_MBX.c ****                 CapSense_gesturesConfig.dtScrollThreshold1X     = inbox->CapSense_inboxTmgCfg.dtScr
 182:.\Generated_Source\PSoC4/CapSense_MBX.c ****                 CapSense_gesturesConfig.dtScrollThreshold2X     = inbox->CapSense_inboxTmgCfg.dtScr
 183:.\Generated_Source\PSoC4/CapSense_MBX.c ****                 CapSense_gesturesConfig.dtScrollThreshold3X     = inbox->CapSense_inboxTmgCfg.dtScr
 184:.\Generated_Source\PSoC4/CapSense_MBX.c ****                 CapSense_gesturesConfig.dtScrollThreshold4X     = inbox->CapSense_inboxTmgCfg.dtScr
 185:.\Generated_Source\PSoC4/CapSense_MBX.c ****                 CapSense_gesturesConfig.dtScrollThreshold1Y     = inbox->CapSense_inboxTmgCfg.dtScr
 186:.\Generated_Source\PSoC4/CapSense_MBX.c ****                 CapSense_gesturesConfig.dtScrollThreshold2Y     = inbox->CapSense_inboxTmgCfg.dtScr
 187:.\Generated_Source\PSoC4/CapSense_MBX.c ****                 CapSense_gesturesConfig.dtScrollThreshold3Y     = inbox->CapSense_inboxTmgCfg.dtScr
 188:.\Generated_Source\PSoC4/CapSense_MBX.c ****                 CapSense_gesturesConfig.dtScrollThreshold4Y     = inbox->CapSense_inboxTmgCfg.dtScr
 189:.\Generated_Source\PSoC4/CapSense_MBX.c ****                 CapSense_gesturesConfig.dtScrollStep1           = inbox->CapSense_inboxTmgCfg.dtScr
 190:.\Generated_Source\PSoC4/CapSense_MBX.c ****                 CapSense_gesturesConfig.dtScrollStep2           = inbox->CapSense_inboxTmgCfg.dtScr
 191:.\Generated_Source\PSoC4/CapSense_MBX.c ****                 CapSense_gesturesConfig.dtScrollStep3           = inbox->CapSense_inboxTmgCfg.dtScr
 192:.\Generated_Source\PSoC4/CapSense_MBX.c ****                 CapSense_gesturesConfig.dtScrollStep4           = inbox->CapSense_inboxTmgCfg.dtScr
 193:.\Generated_Source\PSoC4/CapSense_MBX.c ****                 CapSense_gesturesConfig.dtInScrActiveDistanceX  = inbox->CapSense_inboxTmgCfg.dtInS
 194:.\Generated_Source\PSoC4/CapSense_MBX.c ****                 CapSense_gesturesConfig.dtInScrActiveDistanceY  = inbox->CapSense_inboxTmgCfg.dtInS
 195:.\Generated_Source\PSoC4/CapSense_MBX.c ****                 CapSense_gesturesConfig.dtInScrCountLevel       = inbox->CapSense_inboxTmgCfg.dtInS
 196:.\Generated_Source\PSoC4/CapSense_MBX.c ****             #endif /* (0u != CapSense_DT_SCROLL_GEST_ENABLED) */
 197:.\Generated_Source\PSoC4/CapSense_MBX.c **** 
 198:.\Generated_Source\PSoC4/CapSense_MBX.c ****             #if(0u != CapSense_FLICK_GEST_ENABLED)
 199:.\Generated_Source\PSoC4/CapSense_MBX.c ****                 CapSense_gesturesConfig.flickSampleTime         = inbox->CapSense_inboxTmgCfg.flick
 200:.\Generated_Source\PSoC4/CapSense_MBX.c ****                 CapSense_gesturesConfig.flickActiveDistanceX    = inbox->CapSense_inboxTmgCfg.flick
 201:.\Generated_Source\PSoC4/CapSense_MBX.c ****                 CapSense_gesturesConfig.flickActiveDistanceY    = inbox->CapSense_inboxTmgCfg.flick
 202:.\Generated_Source\PSoC4/CapSense_MBX.c ****             #endif /* (0u != CapSense_FLICK_GEST_ENABLED) */
 203:.\Generated_Source\PSoC4/CapSense_MBX.c **** 
ARM GAS  C:\Users\JAVIER~1\AppData\Local\Temp\ccQR2PRn.s 			page 5


 204:.\Generated_Source\PSoC4/CapSense_MBX.c ****             #if(0u != CapSense_ROTATE_GEST_ENABLED)
 205:.\Generated_Source\PSoC4/CapSense_MBX.c ****                 CapSense_gesturesConfig.rotateDebounce          = inbox->CapSense_inboxTmgCfg.rotat
 206:.\Generated_Source\PSoC4/CapSense_MBX.c ****             #endif /* (0u != CapSense_ROTATE_GEST_ENABLED) */
 207:.\Generated_Source\PSoC4/CapSense_MBX.c **** 
 208:.\Generated_Source\PSoC4/CapSense_MBX.c ****             #if(0u != CapSense_EDGE_SWIPE_GEST_ENABLED)
 209:.\Generated_Source\PSoC4/CapSense_MBX.c ****                 CapSense_gesturesConfig.edgeSwipeActiveDistance = inbox->CapSense_inboxTmgCfg.edgeS
 210:.\Generated_Source\PSoC4/CapSense_MBX.c ****                 CapSense_gesturesConfig.bottomAngleThreshold    = inbox->CapSense_inboxTmgCfg.botto
 211:.\Generated_Source\PSoC4/CapSense_MBX.c ****                 CapSense_gesturesConfig.edgeSwipeTimeout        = inbox->CapSense_inboxTmgCfg.edgeS
 212:.\Generated_Source\PSoC4/CapSense_MBX.c ****                 CapSense_TMG_edgeSwipeCompleteTimeout           = inbox->CapSense_inboxTmgCfg.edgeS
 213:.\Generated_Source\PSoC4/CapSense_MBX.c ****                 CapSense_gesturesConfig.topAngleThreshold       = inbox->CapSense_inboxTmgCfg.topAn
 214:.\Generated_Source\PSoC4/CapSense_MBX.c ****                 CapSense_gesturesConfig.widthOfDisambiguation   = inbox->CapSense_inboxTmgCfg.width
 215:.\Generated_Source\PSoC4/CapSense_MBX.c ****             #endif /* (0u != CapSense_EDGE_SWIPE_GEST_ENABLED) */
 216:.\Generated_Source\PSoC4/CapSense_MBX.c **** 
 217:.\Generated_Source\PSoC4/CapSense_MBX.c ****             CapSense_TMG_InitGestures(&CapSense_gesturesConfig);
 218:.\Generated_Source\PSoC4/CapSense_MBX.c ****         #endif /* (0u != CapSense_IS_ANY_GESTURES_EN) */
 219:.\Generated_Source\PSoC4/CapSense_MBX.c **** 
 220:.\Generated_Source\PSoC4/CapSense_MBX.c ****         #if(0u != CapSense_TP_GESTURE_POS_FILTERS_MASK)
 221:.\Generated_Source\PSoC4/CapSense_MBX.c ****             CapSense_posFiltersMask[CapSense_TRACKPAD__TPG] = inbox->CapSense_inboxTmgCfg.filtersMa
 222:.\Generated_Source\PSoC4/CapSense_MBX.c ****         #endif /* (0u != CapSense_TP_GESTURE_POS_FILTERS_MASK) */
 223:.\Generated_Source\PSoC4/CapSense_MBX.c **** 
 224:.\Generated_Source\PSoC4/CapSense_MBX.c ****         #if(0u != (CapSense_XY_ADAPTIVE_IIR_MASK & CapSense_TP_GESTURE_POS_FILTERS_MASK))
 225:.\Generated_Source\PSoC4/CapSense_MBX.c ****             CapSense_adpFltOptions.divVal       = inbox->CapSense_inboxTmgCfg.filterDivisor;
 226:.\Generated_Source\PSoC4/CapSense_MBX.c ****             CapSense_adpFltOptions.largeMovTh   = inbox->CapSense_inboxTmgCfg.largeMovThreshold;
 227:.\Generated_Source\PSoC4/CapSense_MBX.c ****             CapSense_adpFltOptions.littleMovTh  = inbox->CapSense_inboxTmgCfg.littleMovThreshold;
 228:.\Generated_Source\PSoC4/CapSense_MBX.c ****             CapSense_adpFltOptions.maxK     = inbox->CapSense_inboxTmgCfg.maxFilterCoef;
 229:.\Generated_Source\PSoC4/CapSense_MBX.c ****             CapSense_adpFltOptions.minK     = inbox->CapSense_inboxTmgCfg.minFilterCoef;
 230:.\Generated_Source\PSoC4/CapSense_MBX.c ****             CapSense_adpFltOptions.noMovTh      = inbox->CapSense_inboxTmgCfg.noMovThreshold;
 231:.\Generated_Source\PSoC4/CapSense_MBX.c ****         #endif /* (0u != (CapSense_XY_ADAPTIVE_IIR_MASK & CapSense_TP_GESTURE_POS_FILTERS_MASK)) */
 232:.\Generated_Source\PSoC4/CapSense_MBX.c ****     }
 233:.\Generated_Source\PSoC4/CapSense_MBX.c **** #endif /* ((CapSense_TUNING_METHOD != CapSense__TUNING_NONE) && (0u != CapSense_TOTAL_TRACKPAD_GEST
 234:.\Generated_Source\PSoC4/CapSense_MBX.c **** 
 235:.\Generated_Source\PSoC4/CapSense_MBX.c **** 
 236:.\Generated_Source\PSoC4/CapSense_MBX.c **** /*******************************************************************************
 237:.\Generated_Source\PSoC4/CapSense_MBX.c **** * Function Name: CapSense_InitMailbox
 238:.\Generated_Source\PSoC4/CapSense_MBX.c **** ********************************************************************************
 239:.\Generated_Source\PSoC4/CapSense_MBX.c **** *
 240:.\Generated_Source\PSoC4/CapSense_MBX.c **** * Summary:
 241:.\Generated_Source\PSoC4/CapSense_MBX.c **** *  Initializes parameters of the mailbox structure.
 242:.\Generated_Source\PSoC4/CapSense_MBX.c **** *  Sets the type and size of the mailbox structure.
 243:.\Generated_Source\PSoC4/CapSense_MBX.c **** *  Sets a check sum to check by the Tuner GUI and noReadMsg flag to indicate that this
 244:.\Generated_Source\PSoC4/CapSense_MBX.c **** *  is the first communication packet.
 245:.\Generated_Source\PSoC4/CapSense_MBX.c **** *
 246:.\Generated_Source\PSoC4/CapSense_MBX.c **** * Parameters:
 247:.\Generated_Source\PSoC4/CapSense_MBX.c **** *  mbx:  Pointer to Mailbox structure in RAM.
 248:.\Generated_Source\PSoC4/CapSense_MBX.c **** *
 249:.\Generated_Source\PSoC4/CapSense_MBX.c **** * Return:
 250:.\Generated_Source\PSoC4/CapSense_MBX.c **** *  None. Modifies the contents of mbx and mbx->outbox.
 251:.\Generated_Source\PSoC4/CapSense_MBX.c **** *
 252:.\Generated_Source\PSoC4/CapSense_MBX.c **** * Global Variables:
 253:.\Generated_Source\PSoC4/CapSense_MBX.c **** *  None
 254:.\Generated_Source\PSoC4/CapSense_MBX.c **** *
 255:.\Generated_Source\PSoC4/CapSense_MBX.c **** *******************************************************************************/
 256:.\Generated_Source\PSoC4/CapSense_MBX.c **** void CapSense_InitMailbox(volatile CapSense_MAILBOX *mbx)
 257:.\Generated_Source\PSoC4/CapSense_MBX.c **** {
  26              		.loc 1 257 0
  27              		.cfi_startproc
  28              	.LVL0:
ARM GAS  C:\Users\JAVIER~1\AppData\Local\Temp\ccQR2PRn.s 			page 6


 258:.\Generated_Source\PSoC4/CapSense_MBX.c ****     /* Restore TYPE_ID (clear busy flag) to indicate "action complete" */
 259:.\Generated_Source\PSoC4/CapSense_MBX.c ****     mbx->type = CapSense_TYPE_ID;
  29              		.loc 1 259 0
  30 0000 0423     		mov	r3, #4
  31 0002 0370     		strb	r3, [r0]
 260:.\Generated_Source\PSoC4/CapSense_MBX.c ****     /* Restore default value - clear "have_msg" */
 261:.\Generated_Source\PSoC4/CapSense_MBX.c ****     mbx->size = sizeof(CapSense_MAILBOX);
  32              		.loc 1 261 0
  33 0004 4278     		ldrb	r2, [r0, #1]
  34 0006 6A22     		mov	r2, #106
  35 0008 5242     		neg	r2, r2
  36 000a 4270     		strb	r2, [r0, #1]
  37 000c 8278     		ldrb	r2, [r0, #2]
  38 000e 0022     		mov	r2, #0
  39 0010 8270     		strb	r2, [r0, #2]
 262:.\Generated_Source\PSoC4/CapSense_MBX.c **** 
 263:.\Generated_Source\PSoC4/CapSense_MBX.c ****     /* Additional fields for async and reset handling */
 264:.\Generated_Source\PSoC4/CapSense_MBX.c ****     #if((CapSense_TUNING_METHOD != CapSense__TUNING_NONE) && (0u != CapSense_TOTAL_TRACKPAD_GESTURE
 265:.\Generated_Source\PSoC4/CapSense_MBX.c ****         (CapSense_TUNING_METHOD == CapSense__TUNING_MANUAL))
 266:.\Generated_Source\PSoC4/CapSense_MBX.c ****         mbx->outbox.noReadMessage = 1u;
 267:.\Generated_Source\PSoC4/CapSense_MBX.c ****     #endif  /* ((CapSense_TUNING_METHOD != CapSense__TUNING_NONE) && (0u != CapSense_TOTAL_TRACKPAD
 268:.\Generated_Source\PSoC4/CapSense_MBX.c ****                 (CapSense_TUNING_METHOD == CapSense__TUNING_MANUAL)) */
 269:.\Generated_Source\PSoC4/CapSense_MBX.c **** 
 270:.\Generated_Source\PSoC4/CapSense_MBX.c ****     mbx->outbox.checkSum = (uint16)(CapSense_CHECK_SUM);
  40              		.loc 1 270 0
  41 0012 9423     		mov	r3, #148
  42 0014 C25C     		ldrb	r2, [r0, r3]
  43 0016 1622     		mov	r2, #22
  44 0018 C254     		strb	r2, [r0, r3]
  45 001a 9430     		add	r0, r0, #148
  46              	.LVL1:
  47 001c 4378     		ldrb	r3, [r0, #1]
  48 001e 1A23     		mov	r3, #26
  49 0020 4370     		strb	r3, [r0, #1]
 271:.\Generated_Source\PSoC4/CapSense_MBX.c **** }
  50              		.loc 1 271 0
  51              		@ sp needed
  52 0022 7047     		bx	lr
  53              		.cfi_endproc
  54              	.LFE36:
  55              		.size	CapSense_InitMailbox, .-CapSense_InitMailbox
  56              		.section	.text.CapSense_PostMessage,"ax",%progbits
  57              		.align	2
  58              		.global	CapSense_PostMessage
  59              		.code	16
  60              		.thumb_func
  61              		.type	CapSense_PostMessage, %function
  62              	CapSense_PostMessage:
  63              	.LFB37:
 272:.\Generated_Source\PSoC4/CapSense_MBX.c **** 
 273:.\Generated_Source\PSoC4/CapSense_MBX.c **** 
 274:.\Generated_Source\PSoC4/CapSense_MBX.c **** /*******************************************************************************
 275:.\Generated_Source\PSoC4/CapSense_MBX.c **** * Function Name:  CapSense_PostMessage
 276:.\Generated_Source\PSoC4/CapSense_MBX.c **** ********************************************************************************
 277:.\Generated_Source\PSoC4/CapSense_MBX.c **** *
 278:.\Generated_Source\PSoC4/CapSense_MBX.c **** * Summary:
 279:.\Generated_Source\PSoC4/CapSense_MBX.c **** *  This blocking function waits while the Tuner GUI reports that the mailbox content
ARM GAS  C:\Users\JAVIER~1\AppData\Local\Temp\ccQR2PRn.s 			page 7


 280:.\Generated_Source\PSoC4/CapSense_MBX.c **** *  could be modified (clears CapSense_BUSY_FLAG). Then loads the report
 281:.\Generated_Source\PSoC4/CapSense_MBX.c **** *  data to the outbox and sets a busy flag.
 282:.\Generated_Source\PSoC4/CapSense_MBX.c **** *  In the manual tuning mode the report data is:
 283:.\Generated_Source\PSoC4/CapSense_MBX.c **** *    - raw data, baseline, signal;
 284:.\Generated_Source\PSoC4/CapSense_MBX.c **** *  In the auto tuning mode the added data is:
 285:.\Generated_Source\PSoC4/CapSense_MBX.c **** *    - fingerThreshold;
 286:.\Generated_Source\PSoC4/CapSense_MBX.c **** *    - noiseThreshold;
 287:.\Generated_Source\PSoC4/CapSense_MBX.c **** *    - scanResolution;
 288:.\Generated_Source\PSoC4/CapSense_MBX.c **** *    - idacValue;
 289:.\Generated_Source\PSoC4/CapSense_MBX.c **** *    - prescaler.
 290:.\Generated_Source\PSoC4/CapSense_MBX.c **** *
 291:.\Generated_Source\PSoC4/CapSense_MBX.c **** * Parameters:
 292:.\Generated_Source\PSoC4/CapSense_MBX.c **** *  mbx:  Pointer to Mailbox structure in RAM.
 293:.\Generated_Source\PSoC4/CapSense_MBX.c **** *
 294:.\Generated_Source\PSoC4/CapSense_MBX.c **** * Return:
 295:.\Generated_Source\PSoC4/CapSense_MBX.c **** *  None. Modifies the contents of mbx->outbox.
 296:.\Generated_Source\PSoC4/CapSense_MBX.c **** *
 297:.\Generated_Source\PSoC4/CapSense_MBX.c **** * Global Variables:
 298:.\Generated_Source\PSoC4/CapSense_MBX.c **** *  None
 299:.\Generated_Source\PSoC4/CapSense_MBX.c **** *
 300:.\Generated_Source\PSoC4/CapSense_MBX.c **** *******************************************************************************/
 301:.\Generated_Source\PSoC4/CapSense_MBX.c **** void CapSense_PostMessage(volatile CapSense_MAILBOX *mbx)
 302:.\Generated_Source\PSoC4/CapSense_MBX.c **** {
  64              		.loc 1 302 0
  65              		.cfi_startproc
  66              	.LVL2:
  67 0000 F0B5     		push	{r4, r5, r6, r7, lr}
  68              		.cfi_def_cfa_offset 20
  69              		.cfi_offset 4, -20
  70              		.cfi_offset 5, -16
  71              		.cfi_offset 6, -12
  72              		.cfi_offset 7, -8
  73              		.cfi_offset 14, -4
  74              	.L3:
 303:.\Generated_Source\PSoC4/CapSense_MBX.c ****     uint8 i;
 304:.\Generated_Source\PSoC4/CapSense_MBX.c **** 
 305:.\Generated_Source\PSoC4/CapSense_MBX.c ****     #if ( CapSense_TUNING_METHOD == CapSense__TUNING_AUTO )
 306:.\Generated_Source\PSoC4/CapSense_MBX.c ****         uint8 tmpResolutionIndex;
 307:.\Generated_Source\PSoC4/CapSense_MBX.c ****         uint16 tmpResolutionValue;
 308:.\Generated_Source\PSoC4/CapSense_MBX.c ****     #endif /* ( CapSense_TUNING_METHOD == CapSense__TUNING_AUTO ) */
 309:.\Generated_Source\PSoC4/CapSense_MBX.c **** 
 310:.\Generated_Source\PSoC4/CapSense_MBX.c ****     /* Check busy flag */
 311:.\Generated_Source\PSoC4/CapSense_MBX.c ****     while (mbx->type != CapSense_TYPE_ID){}
  75              		.loc 1 311 0 discriminator 1
  76 0002 0378     		ldrb	r3, [r0]
  77 0004 042B     		cmp	r3, #4
  78 0006 FCD1     		bne	.L3
  79 0008 0023     		mov	r3, #0
  80 000a 0BE0     		b	.L4
  81              	.LVL3:
  82              	.L5:
 312:.\Generated_Source\PSoC4/CapSense_MBX.c **** 
 313:.\Generated_Source\PSoC4/CapSense_MBX.c ****     /* Copy scan parameters */
 314:.\Generated_Source\PSoC4/CapSense_MBX.c ****     #if((CapSense_TUNING_METHOD == CapSense__TUNING_AUTO) || (0u != CapSense_AUTOCALIBRATION_ENABLE
 315:.\Generated_Source\PSoC4/CapSense_MBX.c ****         /* Copy tuned idac values */
 316:.\Generated_Source\PSoC4/CapSense_MBX.c ****         for(i = 0u; i < CapSense_TOTAL_SENSOR_COUNT; i++)
 317:.\Generated_Source\PSoC4/CapSense_MBX.c ****         {
ARM GAS  C:\Users\JAVIER~1\AppData\Local\Temp\ccQR2PRn.s 			page 8


 318:.\Generated_Source\PSoC4/CapSense_MBX.c ****             mbx->outbox.modulationIDAC[i] = CapSense_modulationIDAC[i];
  83              		.loc 1 318 0 discriminator 3
  84 000c 354A     		ldr	r2, .L16
  85 000e D45C     		ldrb	r4, [r2, r3]
  86 0010 C218     		add	r2, r0, r3
  87 0012 111C     		mov	r1, r2
  88 0014 5031     		add	r1, r1, #80
  89 0016 8C72     		strb	r4, [r1, #10]
 319:.\Generated_Source\PSoC4/CapSense_MBX.c ****             #if (CapSense_IDAC_CNT == 2u)
 320:.\Generated_Source\PSoC4/CapSense_MBX.c ****                 mbx->outbox.compensationIDAC[i] = CapSense_compensationIDAC[i];
  90              		.loc 1 320 0 discriminator 3
  91 0018 3349     		ldr	r1, .L16+4
  92 001a C95C     		ldrb	r1, [r1, r3]
  93 001c 6032     		add	r2, r2, #96
  94 001e D171     		strb	r1, [r2, #7]
 316:.\Generated_Source\PSoC4/CapSense_MBX.c ****         {
  95              		.loc 1 316 0 discriminator 3
  96 0020 0133     		add	r3, r3, #1
  97              	.LVL4:
  98 0022 DBB2     		uxtb	r3, r3
  99              	.LVL5:
 100              	.L4:
 316:.\Generated_Source\PSoC4/CapSense_MBX.c ****         {
 101              		.loc 1 316 0 is_stmt 0 discriminator 1
 102 0024 0C2B     		cmp	r3, #12
 103 0026 F1D9     		bls	.L5
 104 0028 0023     		mov	r3, #0
 105              	.LVL6:
 106 002a 0BE0     		b	.L6
 107              	.LVL7:
 108              	.L7:
 321:.\Generated_Source\PSoC4/CapSense_MBX.c ****             #endif /* (CapSense_IDAC_CNT == 2u) */
 322:.\Generated_Source\PSoC4/CapSense_MBX.c ****         }
 323:.\Generated_Source\PSoC4/CapSense_MBX.c ****     #endif /* ((CapSense_TUNING_METHOD == CapSense__TUNING_AUTO) || (0u != CapSense_AUTOCALIBRATION
 324:.\Generated_Source\PSoC4/CapSense_MBX.c **** 
 325:.\Generated_Source\PSoC4/CapSense_MBX.c ****     #if ( CapSense_TUNING_METHOD == CapSense__TUNING_AUTO )
 326:.\Generated_Source\PSoC4/CapSense_MBX.c ****         for(i = 0u; i < CapSense_TOTAL_SCANSLOT_COUNT; i++)
 327:.\Generated_Source\PSoC4/CapSense_MBX.c ****         {
 328:.\Generated_Source\PSoC4/CapSense_MBX.c ****             mbx->outbox.analogSwitchDivider[i] = CapSense_senseClkDividerVal[i];
 109              		.loc 1 328 0 is_stmt 1 discriminator 3
 110 002c 2F4A     		ldr	r2, .L16+8
 111 002e D45C     		ldrb	r4, [r2, r3]
 112 0030 C218     		add	r2, r0, r3
 113 0032 111C     		mov	r1, r2
 114 0034 7031     		add	r1, r1, #112
 115 0036 0C71     		strb	r4, [r1, #4]
 329:.\Generated_Source\PSoC4/CapSense_MBX.c ****             mbx->outbox.modulatorDivider[i] = CapSense_sampleClkDividerVal[i];
 116              		.loc 1 329 0 discriminator 3
 117 0038 2D49     		ldr	r1, .L16+12
 118 003a C95C     		ldrb	r1, [r1, r3]
 119 003c 7832     		add	r2, r2, #120
 120 003e 5172     		strb	r1, [r2, #9]
 326:.\Generated_Source\PSoC4/CapSense_MBX.c ****         {
 121              		.loc 1 326 0 discriminator 3
 122 0040 0133     		add	r3, r3, #1
 123              	.LVL8:
 124 0042 DBB2     		uxtb	r3, r3
ARM GAS  C:\Users\JAVIER~1\AppData\Local\Temp\ccQR2PRn.s 			page 9


 125              	.LVL9:
 126              	.L6:
 326:.\Generated_Source\PSoC4/CapSense_MBX.c ****         {
 127              		.loc 1 326 0 is_stmt 0 discriminator 1
 128 0044 0C2B     		cmp	r3, #12
 129 0046 F1D9     		bls	.L7
 130 0048 0021     		mov	r1, #0
 131 004a 10E0     		b	.L8
 132              	.LVL10:
 133              	.L11:
 330:.\Generated_Source\PSoC4/CapSense_MBX.c ****         }
 331:.\Generated_Source\PSoC4/CapSense_MBX.c **** 
 332:.\Generated_Source\PSoC4/CapSense_MBX.c ****         /* Widget resolution, take to account TP and MB */
 333:.\Generated_Source\PSoC4/CapSense_MBX.c ****         for(i = 0u; i < CapSense_WIDGET_RESOLUTION_PARAMETERS_COUNT; i++)
 334:.\Generated_Source\PSoC4/CapSense_MBX.c ****         {
 335:.\Generated_Source\PSoC4/CapSense_MBX.c ****             tmpResolutionValue = (uint16)(CapSense_widgetResolution[i] >> CapSense_MSB_RESOLUTION_O
 134              		.loc 1 335 0 is_stmt 1
 135 004c 0C1C     		mov	r4, r1
 136 004e 8B00     		lsl	r3, r1, #2
 137 0050 284A     		ldr	r2, .L16+16
 138 0052 9A58     		ldr	r2, [r3, r2]
 139 0054 920D     		lsr	r2, r2, #22
 140              	.LVL11:
 336:.\Generated_Source\PSoC4/CapSense_MBX.c ****             tmpResolutionIndex = 0u;
 141              		.loc 1 336 0
 142 0056 0023     		mov	r3, #0
 337:.\Generated_Source\PSoC4/CapSense_MBX.c **** 
 338:.\Generated_Source\PSoC4/CapSense_MBX.c ****             while(0u != tmpResolutionValue)
 143              		.loc 1 338 0
 144 0058 02E0     		b	.L9
 145              	.LVL12:
 146              	.L10:
 339:.\Generated_Source\PSoC4/CapSense_MBX.c ****             {
 340:.\Generated_Source\PSoC4/CapSense_MBX.c ****                 tmpResolutionIndex++;
 147              		.loc 1 340 0
 148 005a 0133     		add	r3, r3, #1
 149              	.LVL13:
 150 005c DBB2     		uxtb	r3, r3
 151              	.LVL14:
 341:.\Generated_Source\PSoC4/CapSense_MBX.c ****                 tmpResolutionValue >>= 1u;
 152              		.loc 1 341 0
 153 005e 5208     		lsr	r2, r2, #1
 154              	.LVL15:
 155              	.L9:
 338:.\Generated_Source\PSoC4/CapSense_MBX.c ****             {
 156              		.loc 1 338 0
 157 0060 002A     		cmp	r2, #0
 158 0062 FAD1     		bne	.L10
 342:.\Generated_Source\PSoC4/CapSense_MBX.c ****             }
 343:.\Generated_Source\PSoC4/CapSense_MBX.c **** 
 344:.\Generated_Source\PSoC4/CapSense_MBX.c ****             mbx->outbox.scanResolution[i] = tmpResolutionIndex;
 159              		.loc 1 344 0 discriminator 2
 160 0064 0219     		add	r2, r0, r4
 161              	.LVL16:
 162 0066 8832     		add	r2, r2, #136
 163 0068 9371     		strb	r3, [r2, #6]
 333:.\Generated_Source\PSoC4/CapSense_MBX.c ****         {
ARM GAS  C:\Users\JAVIER~1\AppData\Local\Temp\ccQR2PRn.s 			page 10


 164              		.loc 1 333 0 discriminator 2
 165 006a 0131     		add	r1, r1, #1
 166              	.LVL17:
 167 006c C9B2     		uxtb	r1, r1
 168              	.LVL18:
 169              	.L8:
 333:.\Generated_Source\PSoC4/CapSense_MBX.c ****         {
 170              		.loc 1 333 0 is_stmt 0 discriminator 1
 171 006e 0529     		cmp	r1, #5
 172 0070 ECD9     		bls	.L11
 173 0072 0023     		mov	r3, #0
 174 0074 0BE0     		b	.L12
 175              	.LVL19:
 176              	.L13:
 345:.\Generated_Source\PSoC4/CapSense_MBX.c ****         }
 346:.\Generated_Source\PSoC4/CapSense_MBX.c **** 
 347:.\Generated_Source\PSoC4/CapSense_MBX.c ****         #if(0u != CapSense_CSHL_API_GENERATE)
 348:.\Generated_Source\PSoC4/CapSense_MBX.c ****             /* Parameters are changed in run time */
 349:.\Generated_Source\PSoC4/CapSense_MBX.c ****             for(i = 0u; i < CapSense_WIDGET_CSHL_PARAMETERS_COUNT; i++)
 350:.\Generated_Source\PSoC4/CapSense_MBX.c ****             {
 351:.\Generated_Source\PSoC4/CapSense_MBX.c ****                 mbx->outbox.fingerThreshold[i] = CapSense_fingerThreshold[i];
 177              		.loc 1 351 0 is_stmt 1 discriminator 3
 178 0076 204A     		ldr	r2, .L16+20
 179 0078 D15C     		ldrb	r1, [r2, r3]
 180 007a C218     		add	r2, r0, r3
 181 007c D171     		strb	r1, [r2, #7]
 352:.\Generated_Source\PSoC4/CapSense_MBX.c ****                 mbx->outbox.noiseThreshold[i]  = CapSense_noiseThreshold[i];
 182              		.loc 1 352 0 discriminator 3
 183 007e 1F49     		ldr	r1, .L16+24
 184 0080 C95C     		ldrb	r1, [r1, r3]
 185 0082 5173     		strb	r1, [r2, #13]
 353:.\Generated_Source\PSoC4/CapSense_MBX.c ****                 mbx->outbox.hysteresis[i]      = CapSense_hysteresis[i];
 186              		.loc 1 353 0 discriminator 3
 187 0084 1E49     		ldr	r1, .L16+28
 188 0086 C95C     		ldrb	r1, [r1, r3]
 189 0088 D174     		strb	r1, [r2, #19]
 349:.\Generated_Source\PSoC4/CapSense_MBX.c ****             {
 190              		.loc 1 349 0 discriminator 3
 191 008a 0133     		add	r3, r3, #1
 192              	.LVL20:
 193 008c DBB2     		uxtb	r3, r3
 194              	.LVL21:
 195              	.L12:
 349:.\Generated_Source\PSoC4/CapSense_MBX.c ****             {
 196              		.loc 1 349 0 is_stmt 0 discriminator 1
 197 008e 052B     		cmp	r3, #5
 198 0090 F1D9     		bls	.L13
 199 0092 0023     		mov	r3, #0
 200              	.LVL22:
 201 0094 20E0     		b	.L14
 202              	.LVL23:
 203              	.L15:
 354:.\Generated_Source\PSoC4/CapSense_MBX.c ****             }
 355:.\Generated_Source\PSoC4/CapSense_MBX.c ****         #endif /* (0u != CapSense_CSHL_API_GENERATE) */
 356:.\Generated_Source\PSoC4/CapSense_MBX.c **** 
 357:.\Generated_Source\PSoC4/CapSense_MBX.c ****     #endif /* (CapSense_TUNING_METHOD == CapSense__TUNING_AUTO) */
 358:.\Generated_Source\PSoC4/CapSense_MBX.c **** 
ARM GAS  C:\Users\JAVIER~1\AppData\Local\Temp\ccQR2PRn.s 			page 11


 359:.\Generated_Source\PSoC4/CapSense_MBX.c **** 
 360:.\Generated_Source\PSoC4/CapSense_MBX.c ****     /* Copy all data - Raw, Base, Signal, OnMask */
 361:.\Generated_Source\PSoC4/CapSense_MBX.c ****     for(i = 0u; i < CapSense_TOTAL_SENSOR_COUNT; i++)
 362:.\Generated_Source\PSoC4/CapSense_MBX.c ****     {
 363:.\Generated_Source\PSoC4/CapSense_MBX.c ****         mbx->outbox.rawData[i]  = CapSense_sensorRaw[i];
 204              		.loc 1 363 0 is_stmt 1 discriminator 3
 205 0096 5D00     		lsl	r5, r3, #1
 206 0098 1A4A     		ldr	r2, .L16+32
 207 009a A95A     		ldrh	r1, [r5, r2]
 208 009c 1A1C     		mov	r2, r3
 209 009e 1032     		add	r2, r2, #16
 210 00a0 5200     		lsl	r2, r2, #1
 211 00a2 8218     		add	r2, r0, r2
 212 00a4 FF24     		mov	r4, #255
 213 00a6 261C     		mov	r6, r4
 214 00a8 0E40     		and	r6, r1
 215 00aa 9779     		ldrb	r7, [r2, #6]
 216 00ac 9671     		strb	r6, [r2, #6]
 217 00ae 090A     		lsr	r1, r1, #8
 218 00b0 D679     		ldrb	r6, [r2, #7]
 219 00b2 D171     		strb	r1, [r2, #7]
 364:.\Generated_Source\PSoC4/CapSense_MBX.c ****         #if(0u != CapSense_CSHL_API_GENERATE)
 365:.\Generated_Source\PSoC4/CapSense_MBX.c ****             mbx->outbox.baseLine[i] = CapSense_sensorBaseline[i];
 220              		.loc 1 365 0 discriminator 3
 221 00b4 144A     		ldr	r2, .L16+36
 222 00b6 A95A     		ldrh	r1, [r5, r2]
 223 00b8 1A1C     		mov	r2, r3
 224 00ba 1C32     		add	r2, r2, #28
 225 00bc 5200     		lsl	r2, r2, #1
 226 00be 8218     		add	r2, r0, r2
 227 00c0 0C40     		and	r4, r1
 228 00c2 157A     		ldrb	r5, [r2, #8]
 229 00c4 1472     		strb	r4, [r2, #8]
 230 00c6 090A     		lsr	r1, r1, #8
 231 00c8 547A     		ldrb	r4, [r2, #9]
 232 00ca 5172     		strb	r1, [r2, #9]
 366:.\Generated_Source\PSoC4/CapSense_MBX.c ****             #if (CapSense_SIGNAL_SIZE == CapSense_SIGNAL_SIZE_UINT8)
 367:.\Generated_Source\PSoC4/CapSense_MBX.c ****                 mbx->outbox.sensorSignal[i]   = (uint8)CapSense_sensorSignal[i];
 233              		.loc 1 367 0 discriminator 3
 234 00cc 0F4A     		ldr	r2, .L16+40
 235 00ce D15C     		ldrb	r1, [r2, r3]
 236 00d0 C218     		add	r2, r0, r3
 237 00d2 5176     		strb	r1, [r2, #25]
 361:.\Generated_Source\PSoC4/CapSense_MBX.c ****     {
 238              		.loc 1 361 0 discriminator 3
 239 00d4 0133     		add	r3, r3, #1
 240              	.LVL24:
 241 00d6 DBB2     		uxtb	r3, r3
 242              	.LVL25:
 243              	.L14:
 361:.\Generated_Source\PSoC4/CapSense_MBX.c ****     {
 244              		.loc 1 361 0 is_stmt 0 discriminator 1
 245 00d8 0C2B     		cmp	r3, #12
 246 00da DCD9     		bls	.L15
 368:.\Generated_Source\PSoC4/CapSense_MBX.c ****             #else
 369:.\Generated_Source\PSoC4/CapSense_MBX.c ****                 mbx->outbox.sensorSignal[i]   = (uint16)CapSense_sensorSignal[i];
 370:.\Generated_Source\PSoC4/CapSense_MBX.c ****             #endif  /* (CapSense_SIGNAL_SIZE == CapSense_SIGNAL_SIZE_UINT8) */
ARM GAS  C:\Users\JAVIER~1\AppData\Local\Temp\ccQR2PRn.s 			page 12


 371:.\Generated_Source\PSoC4/CapSense_MBX.c ****         #endif /* (0u != CapSense_CSHL_API_GENERATE) */
 372:.\Generated_Source\PSoC4/CapSense_MBX.c ****     }
 373:.\Generated_Source\PSoC4/CapSense_MBX.c **** 
 374:.\Generated_Source\PSoC4/CapSense_MBX.c ****     /* Set busy flag */
 375:.\Generated_Source\PSoC4/CapSense_MBX.c ****     mbx->type = CapSense_BUSY_FLAG;
 247              		.loc 1 375 0 is_stmt 1
 248 00dc 8423     		mov	r3, #132
 249              	.LVL26:
 250 00de 0370     		strb	r3, [r0]
 376:.\Generated_Source\PSoC4/CapSense_MBX.c **** }
 251              		.loc 1 376 0
 252              		@ sp needed
 253 00e0 F0BD     		pop	{r4, r5, r6, r7, pc}
 254              	.L17:
 255 00e2 C046     		.align	2
 256              	.L16:
 257 00e4 00000000 		.word	CapSense_modulationIDAC
 258 00e8 00000000 		.word	CapSense_compensationIDAC
 259 00ec 00000000 		.word	CapSense_senseClkDividerVal
 260 00f0 00000000 		.word	CapSense_sampleClkDividerVal
 261 00f4 00000000 		.word	CapSense_widgetResolution
 262 00f8 00000000 		.word	CapSense_fingerThreshold
 263 00fc 00000000 		.word	CapSense_noiseThreshold
 264 0100 00000000 		.word	CapSense_hysteresis
 265 0104 00000000 		.word	CapSense_sensorRaw
 266 0108 00000000 		.word	CapSense_sensorBaseline
 267 010c 00000000 		.word	CapSense_sensorSignal
 268              		.cfi_endproc
 269              	.LFE37:
 270              		.size	CapSense_PostMessage, .-CapSense_PostMessage
 271              		.text
 272              	.Letext0:
 273              		.file 2 ".\\Generated_Source\\PSoC4\\cytypes.h"
 274              		.file 3 ".\\Generated_Source\\PSoC4\\CapSense_MBX.h"
 275              		.file 4 ".\\Generated_Source\\PSoC4\\CapSense.h"
 276              		.file 5 ".\\Generated_Source\\PSoC4\\CapSense_CSHL.h"