ARM GAS  C:\Users\JAVIER~1\AppData\Local\Temp\ccQuJx5a.s 			page 1


   1              		.cpu cortex-m0
   2              		.fpu softvfp
   3              		.eabi_attribute 20, 1
   4              		.eabi_attribute 21, 1
   5              		.eabi_attribute 23, 3
   6              		.eabi_attribute 24, 1
   7              		.eabi_attribute 25, 1
   8              		.eabi_attribute 26, 1
   9              		.eabi_attribute 30, 1
  10              		.eabi_attribute 34, 0
  11              		.eabi_attribute 18, 4
  12              		.code	16
  13              		.file	"EZI2C_EZI2C.c"
  14              		.text
  15              	.Ltext0:
  16              		.cfi_sections	.debug_frame
  17              		.section	.text.EZI2C_EzI2CInit,"ax",%progbits
  18              		.align	2
  19              		.global	EZI2C_EzI2CInit
  20              		.code	16
  21              		.thumb_func
  22              		.type	EZI2C_EzI2CInit, %function
  23              	EZI2C_EzI2CInit:
  24              	.LFB2:
  25              		.file 1 ".\\Generated_Source\\PSoC4\\EZI2C_EZI2C.c"
   1:.\Generated_Source\PSoC4/EZI2C_EZI2C.c **** /*******************************************************************************
   2:.\Generated_Source\PSoC4/EZI2C_EZI2C.c **** * File Name: EZI2C_EZI2C.c
   3:.\Generated_Source\PSoC4/EZI2C_EZI2C.c **** * Version 3.10
   4:.\Generated_Source\PSoC4/EZI2C_EZI2C.c **** *
   5:.\Generated_Source\PSoC4/EZI2C_EZI2C.c **** * Description:
   6:.\Generated_Source\PSoC4/EZI2C_EZI2C.c **** *  This file provides the source code to the API for the SCB Component in
   7:.\Generated_Source\PSoC4/EZI2C_EZI2C.c **** *  EZI2C mode.
   8:.\Generated_Source\PSoC4/EZI2C_EZI2C.c **** *
   9:.\Generated_Source\PSoC4/EZI2C_EZI2C.c **** * Note:
  10:.\Generated_Source\PSoC4/EZI2C_EZI2C.c **** *
  11:.\Generated_Source\PSoC4/EZI2C_EZI2C.c **** *******************************************************************************
  12:.\Generated_Source\PSoC4/EZI2C_EZI2C.c **** * Copyright 2013-2015, Cypress Semiconductor Corporation.  All rights reserved.
  13:.\Generated_Source\PSoC4/EZI2C_EZI2C.c **** * You may use this file only in accordance with the license, terms, conditions,
  14:.\Generated_Source\PSoC4/EZI2C_EZI2C.c **** * disclaimers, and limitations in the end user license agreement accompanying
  15:.\Generated_Source\PSoC4/EZI2C_EZI2C.c **** * the software package with which this file was provided.
  16:.\Generated_Source\PSoC4/EZI2C_EZI2C.c **** *******************************************************************************/
  17:.\Generated_Source\PSoC4/EZI2C_EZI2C.c **** 
  18:.\Generated_Source\PSoC4/EZI2C_EZI2C.c **** #include "EZI2C_PVT.h"
  19:.\Generated_Source\PSoC4/EZI2C_EZI2C.c **** #include "EZI2C_EZI2C_PVT.h"
  20:.\Generated_Source\PSoC4/EZI2C_EZI2C.c **** 
  21:.\Generated_Source\PSoC4/EZI2C_EZI2C.c **** 
  22:.\Generated_Source\PSoC4/EZI2C_EZI2C.c **** /***************************************
  23:.\Generated_Source\PSoC4/EZI2C_EZI2C.c **** *      EZI2C Private Vars
  24:.\Generated_Source\PSoC4/EZI2C_EZI2C.c **** ***************************************/
  25:.\Generated_Source\PSoC4/EZI2C_EZI2C.c **** 
  26:.\Generated_Source\PSoC4/EZI2C_EZI2C.c **** volatile uint8 EZI2C_curStatus; /* Status byte */
  27:.\Generated_Source\PSoC4/EZI2C_EZI2C.c **** uint8 EZI2C_fsmState;           /* FSM state   */
  28:.\Generated_Source\PSoC4/EZI2C_EZI2C.c **** 
  29:.\Generated_Source\PSoC4/EZI2C_EZI2C.c **** /* Variables intended to be used with Buffer 1: Primary slave address */
  30:.\Generated_Source\PSoC4/EZI2C_EZI2C.c **** volatile uint8 * EZI2C_dataBuffer1; /* Pointer to data buffer 1 */
  31:.\Generated_Source\PSoC4/EZI2C_EZI2C.c **** uint16 EZI2C_bufSizeBuf1; /* Size of buffer 1 in bytes      */
  32:.\Generated_Source\PSoC4/EZI2C_EZI2C.c **** uint16 EZI2C_protectBuf1; /* Start index of write protected area buffer 1 */
ARM GAS  C:\Users\JAVIER~1\AppData\Local\Temp\ccQuJx5a.s 			page 2


  33:.\Generated_Source\PSoC4/EZI2C_EZI2C.c **** uint16 EZI2C_offsetBuf1; /* Current offset within buffer 1 */
  34:.\Generated_Source\PSoC4/EZI2C_EZI2C.c **** uint16 EZI2C_indexBuf1;  /* Current index within buffer 1  */
  35:.\Generated_Source\PSoC4/EZI2C_EZI2C.c **** 
  36:.\Generated_Source\PSoC4/EZI2C_EZI2C.c **** #if(EZI2C_SECONDARY_ADDRESS_ENABLE_CONST)
  37:.\Generated_Source\PSoC4/EZI2C_EZI2C.c ****     uint8 EZI2C_addrBuf1; /* Primary slave address. Used for software comparison   */
  38:.\Generated_Source\PSoC4/EZI2C_EZI2C.c ****     uint8 EZI2C_addrBuf2; /* Secondary slave address. Used for software comparison */
  39:.\Generated_Source\PSoC4/EZI2C_EZI2C.c **** 
  40:.\Generated_Source\PSoC4/EZI2C_EZI2C.c ****     /* Variables intended to be used with Buffer 2: Primary slave address */
  41:.\Generated_Source\PSoC4/EZI2C_EZI2C.c ****     volatile uint8 * EZI2C_dataBuffer2; /* Pointer to data buffer 2 */
  42:.\Generated_Source\PSoC4/EZI2C_EZI2C.c ****     uint16 EZI2C_bufSizeBuf2; /* Size of buffer 2 in bytes      */
  43:.\Generated_Source\PSoC4/EZI2C_EZI2C.c ****     uint16 EZI2C_protectBuf2; /* Start index of write protected area buffer 2 */
  44:.\Generated_Source\PSoC4/EZI2C_EZI2C.c ****     uint16 EZI2C_offsetBuf2; /* Current offset within buffer 2 */
  45:.\Generated_Source\PSoC4/EZI2C_EZI2C.c ****     uint16 EZI2C_indexBuf2;  /* Current index within buffer 2  */
  46:.\Generated_Source\PSoC4/EZI2C_EZI2C.c **** #endif /* (EZI2C_SECONDARY_ADDRESS_ENABLE_CONST) */
  47:.\Generated_Source\PSoC4/EZI2C_EZI2C.c **** 
  48:.\Generated_Source\PSoC4/EZI2C_EZI2C.c **** 
  49:.\Generated_Source\PSoC4/EZI2C_EZI2C.c **** /***************************************
  50:.\Generated_Source\PSoC4/EZI2C_EZI2C.c **** *      EZI2C Private Functions
  51:.\Generated_Source\PSoC4/EZI2C_EZI2C.c **** ***************************************/
  52:.\Generated_Source\PSoC4/EZI2C_EZI2C.c **** 
  53:.\Generated_Source\PSoC4/EZI2C_EZI2C.c **** #if(EZI2C_SECONDARY_ADDRESS_ENABLE_CONST)
  54:.\Generated_Source\PSoC4/EZI2C_EZI2C.c ****     static uint32 EZI2C_EzI2CUpdateRxMatchReg(uint32 addr1, uint32 addr2);
  55:.\Generated_Source\PSoC4/EZI2C_EZI2C.c **** #endif /* (EZI2C_SECONDARY_ADDRESS_ENABLE_CONST) */
  56:.\Generated_Source\PSoC4/EZI2C_EZI2C.c **** 
  57:.\Generated_Source\PSoC4/EZI2C_EZI2C.c **** #if(EZI2C_SCB_MODE_UNCONFIG_CONST_CFG)
  58:.\Generated_Source\PSoC4/EZI2C_EZI2C.c **** 
  59:.\Generated_Source\PSoC4/EZI2C_EZI2C.c ****     /***************************************
  60:.\Generated_Source\PSoC4/EZI2C_EZI2C.c ****     *  Configuration Structure Initialization
  61:.\Generated_Source\PSoC4/EZI2C_EZI2C.c ****     ***************************************/
  62:.\Generated_Source\PSoC4/EZI2C_EZI2C.c **** 
  63:.\Generated_Source\PSoC4/EZI2C_EZI2C.c ****     /* Constant configuration of EZI2C */
  64:.\Generated_Source\PSoC4/EZI2C_EZI2C.c ****     const EZI2C_EZI2C_INIT_STRUCT EZI2C_configEzI2C =
  65:.\Generated_Source\PSoC4/EZI2C_EZI2C.c ****     {
  66:.\Generated_Source\PSoC4/EZI2C_EZI2C.c ****         EZI2C_EZI2C_CLOCK_STRETCHING,
  67:.\Generated_Source\PSoC4/EZI2C_EZI2C.c ****         EZI2C_EZI2C_MEDIAN_FILTER_ENABLE,
  68:.\Generated_Source\PSoC4/EZI2C_EZI2C.c ****         EZI2C_EZI2C_NUMBER_OF_ADDRESSES,
  69:.\Generated_Source\PSoC4/EZI2C_EZI2C.c ****         EZI2C_EZI2C_PRIMARY_SLAVE_ADDRESS,
  70:.\Generated_Source\PSoC4/EZI2C_EZI2C.c ****         EZI2C_EZI2C_SECONDARY_SLAVE_ADDRESS,
  71:.\Generated_Source\PSoC4/EZI2C_EZI2C.c ****         EZI2C_EZI2C_SUB_ADDRESS_SIZE,
  72:.\Generated_Source\PSoC4/EZI2C_EZI2C.c ****         EZI2C_EZI2C_WAKE_ENABLE,
  73:.\Generated_Source\PSoC4/EZI2C_EZI2C.c ****         EZI2C_EZI2C_BYTE_MODE_ENABLE
  74:.\Generated_Source\PSoC4/EZI2C_EZI2C.c ****     };
  75:.\Generated_Source\PSoC4/EZI2C_EZI2C.c **** 
  76:.\Generated_Source\PSoC4/EZI2C_EZI2C.c ****     /*******************************************************************************
  77:.\Generated_Source\PSoC4/EZI2C_EZI2C.c ****     * Function Name: EZI2C_EzI2CInit
  78:.\Generated_Source\PSoC4/EZI2C_EZI2C.c ****     ********************************************************************************
  79:.\Generated_Source\PSoC4/EZI2C_EZI2C.c ****     *
  80:.\Generated_Source\PSoC4/EZI2C_EZI2C.c ****     * Summary:
  81:.\Generated_Source\PSoC4/EZI2C_EZI2C.c ****     *  Configures the SCB for the EZI2C operation.
  82:.\Generated_Source\PSoC4/EZI2C_EZI2C.c ****     *
  83:.\Generated_Source\PSoC4/EZI2C_EZI2C.c ****     * Parameters:
  84:.\Generated_Source\PSoC4/EZI2C_EZI2C.c ****     *  config:  Pointer to a structure that contains the following ordered list of
  85:.\Generated_Source\PSoC4/EZI2C_EZI2C.c ****     *           fields. These fields match the selections available in the
  86:.\Generated_Source\PSoC4/EZI2C_EZI2C.c ****     *           customizer.
  87:.\Generated_Source\PSoC4/EZI2C_EZI2C.c ****     *
  88:.\Generated_Source\PSoC4/EZI2C_EZI2C.c ****     * Return:
  89:.\Generated_Source\PSoC4/EZI2C_EZI2C.c ****     *  None
ARM GAS  C:\Users\JAVIER~1\AppData\Local\Temp\ccQuJx5a.s 			page 3


  90:.\Generated_Source\PSoC4/EZI2C_EZI2C.c ****     *
  91:.\Generated_Source\PSoC4/EZI2C_EZI2C.c ****     *******************************************************************************/
  92:.\Generated_Source\PSoC4/EZI2C_EZI2C.c ****     void EZI2C_EzI2CInit(const EZI2C_EZI2C_INIT_STRUCT *config)
  93:.\Generated_Source\PSoC4/EZI2C_EZI2C.c ****     {
  94:.\Generated_Source\PSoC4/EZI2C_EZI2C.c ****         if(NULL == config)
  95:.\Generated_Source\PSoC4/EZI2C_EZI2C.c ****         {
  96:.\Generated_Source\PSoC4/EZI2C_EZI2C.c ****             CYASSERT(0u != 0u); /* Halt execution due to bad function parameter */
  97:.\Generated_Source\PSoC4/EZI2C_EZI2C.c ****         }
  98:.\Generated_Source\PSoC4/EZI2C_EZI2C.c ****         else
  99:.\Generated_Source\PSoC4/EZI2C_EZI2C.c ****         {
 100:.\Generated_Source\PSoC4/EZI2C_EZI2C.c ****             /* Configure pins */
 101:.\Generated_Source\PSoC4/EZI2C_EZI2C.c ****             EZI2C_SetPins(EZI2C_SCB_MODE_EZI2C, EZI2C_DUMMY_PARAM,
 102:.\Generated_Source\PSoC4/EZI2C_EZI2C.c ****                                                                       EZI2C_DUMMY_PARAM);
 103:.\Generated_Source\PSoC4/EZI2C_EZI2C.c **** 
 104:.\Generated_Source\PSoC4/EZI2C_EZI2C.c ****             /* Store internal configuration */
 105:.\Generated_Source\PSoC4/EZI2C_EZI2C.c ****             EZI2C_scbMode       = (uint8) EZI2C_SCB_MODE_EZI2C;
 106:.\Generated_Source\PSoC4/EZI2C_EZI2C.c ****             EZI2C_scbEnableWake = (uint8) config->enableWake;
 107:.\Generated_Source\PSoC4/EZI2C_EZI2C.c ****             EZI2C_scbEnableIntr = (uint8) EZI2C_SCB_IRQ_INTERNAL;
 108:.\Generated_Source\PSoC4/EZI2C_EZI2C.c **** 
 109:.\Generated_Source\PSoC4/EZI2C_EZI2C.c ****             EZI2C_numberOfAddr  = (uint8) config->numberOfAddresses;
 110:.\Generated_Source\PSoC4/EZI2C_EZI2C.c ****             EZI2C_subAddrSize   = (uint8) config->subAddrSize;
 111:.\Generated_Source\PSoC4/EZI2C_EZI2C.c **** 
 112:.\Generated_Source\PSoC4/EZI2C_EZI2C.c ****         #if (EZI2C_CY_SCBIP_V0)
 113:.\Generated_Source\PSoC4/EZI2C_EZI2C.c ****             /* Adjust SDA filter settings. Ticket ID#150521 */
 114:.\Generated_Source\PSoC4/EZI2C_EZI2C.c ****             EZI2C_SET_I2C_CFG_SDA_FILT_TRIM(EZI2C_EC_AM_I2C_CFG_SDA_FILT_TRIM);
 115:.\Generated_Source\PSoC4/EZI2C_EZI2C.c ****         #endif /* (EZI2C_CY_SCBIP_V0) */
 116:.\Generated_Source\PSoC4/EZI2C_EZI2C.c **** 
 117:.\Generated_Source\PSoC4/EZI2C_EZI2C.c ****             /* Adjust AF and DF filter settings, AF = 1, DF = 0. Ticket ID#176179 */
 118:.\Generated_Source\PSoC4/EZI2C_EZI2C.c ****             EZI2C_I2C_CFG_ANALOG_FITER_ENABLE;
 119:.\Generated_Source\PSoC4/EZI2C_EZI2C.c **** 
 120:.\Generated_Source\PSoC4/EZI2C_EZI2C.c ****             /* Configure I2C interface */
 121:.\Generated_Source\PSoC4/EZI2C_EZI2C.c ****             EZI2C_CTRL_REG     = EZI2C_GET_CTRL_BYTE_MODE  (config->enableByteMode)    |
 122:.\Generated_Source\PSoC4/EZI2C_EZI2C.c ****                                             EZI2C_GET_CTRL_ADDR_ACCEPT(config->numberOfAddresses) |
 123:.\Generated_Source\PSoC4/EZI2C_EZI2C.c ****                                             EZI2C_GET_CTRL_EC_AM_MODE (config->enableWake);
 124:.\Generated_Source\PSoC4/EZI2C_EZI2C.c **** 
 125:.\Generated_Source\PSoC4/EZI2C_EZI2C.c ****             EZI2C_I2C_CTRL_REG = EZI2C_EZI2C_CTRL;
 126:.\Generated_Source\PSoC4/EZI2C_EZI2C.c **** 
 127:.\Generated_Source\PSoC4/EZI2C_EZI2C.c ****             /* Configure RX direction */
 128:.\Generated_Source\PSoC4/EZI2C_EZI2C.c ****             EZI2C_RX_CTRL_REG = EZI2C_EZI2C_RX_CTRL |
 129:.\Generated_Source\PSoC4/EZI2C_EZI2C.c ****                                         EZI2C_GET_RX_CTRL_MEDIAN(EZI2C_DIGITAL_FILTER_DISABLE);
 130:.\Generated_Source\PSoC4/EZI2C_EZI2C.c ****                                                 ;
 131:.\Generated_Source\PSoC4/EZI2C_EZI2C.c ****             EZI2C_RX_FIFO_CTRL_REG = EZI2C_CLEAR_REG;
 132:.\Generated_Source\PSoC4/EZI2C_EZI2C.c **** 
 133:.\Generated_Source\PSoC4/EZI2C_EZI2C.c ****             /* Set default address and mask */
 134:.\Generated_Source\PSoC4/EZI2C_EZI2C.c ****             if(EZI2C_EZI2C_PRIMARY_ADDRESS == config->numberOfAddresses)
 135:.\Generated_Source\PSoC4/EZI2C_EZI2C.c ****             {
 136:.\Generated_Source\PSoC4/EZI2C_EZI2C.c ****                 EZI2C_RX_MATCH_REG = EZI2C_EzI2CUpdateRxMatchReg(config->primarySlaveAddr,
 137:.\Generated_Source\PSoC4/EZI2C_EZI2C.c ****                                                                                        config->prim
 138:.\Generated_Source\PSoC4/EZI2C_EZI2C.c ****             }
 139:.\Generated_Source\PSoC4/EZI2C_EZI2C.c ****             else
 140:.\Generated_Source\PSoC4/EZI2C_EZI2C.c ****             {
 141:.\Generated_Source\PSoC4/EZI2C_EZI2C.c ****                 EZI2C_RX_MATCH_REG = EZI2C_EzI2CUpdateRxMatchReg(config->primarySlaveAddr,
 142:.\Generated_Source\PSoC4/EZI2C_EZI2C.c ****                                                                                        config->seco
 143:.\Generated_Source\PSoC4/EZI2C_EZI2C.c ****             }
 144:.\Generated_Source\PSoC4/EZI2C_EZI2C.c **** 
 145:.\Generated_Source\PSoC4/EZI2C_EZI2C.c ****             /* Configure TX direction */
 146:.\Generated_Source\PSoC4/EZI2C_EZI2C.c ****             EZI2C_TX_CTRL_REG      = EZI2C_EZI2C_TX_CTRL;
ARM GAS  C:\Users\JAVIER~1\AppData\Local\Temp\ccQuJx5a.s 			page 4


 147:.\Generated_Source\PSoC4/EZI2C_EZI2C.c ****             EZI2C_TX_FIFO_CTRL_REG = ((0u != (config->enableClockStretch)) ?
 148:.\Generated_Source\PSoC4/EZI2C_EZI2C.c ****                                                  EZI2C_CLEAR_REG : EZI2C_EZI2C_TX_FIFO_CTRL);
 149:.\Generated_Source\PSoC4/EZI2C_EZI2C.c **** 
 150:.\Generated_Source\PSoC4/EZI2C_EZI2C.c ****             /* Configure interrupt sources */
 151:.\Generated_Source\PSoC4/EZI2C_EZI2C.c ****         #if (!EZI2C_CY_SCBIP_V1)
 152:.\Generated_Source\PSoC4/EZI2C_EZI2C.c ****            EZI2C_INTR_SPI_EC_MASK_REG = EZI2C_NO_INTR_SOURCES;
 153:.\Generated_Source\PSoC4/EZI2C_EZI2C.c ****         #endif /* (!EZI2C_CY_SCBIP_V1) */
 154:.\Generated_Source\PSoC4/EZI2C_EZI2C.c **** 
 155:.\Generated_Source\PSoC4/EZI2C_EZI2C.c ****             EZI2C_INTR_I2C_EC_MASK_REG = EZI2C_NO_INTR_SOURCES;
 156:.\Generated_Source\PSoC4/EZI2C_EZI2C.c ****             EZI2C_INTR_MASTER_MASK_REG = EZI2C_NO_INTR_SOURCES;
 157:.\Generated_Source\PSoC4/EZI2C_EZI2C.c ****             EZI2C_INTR_SLAVE_MASK_REG  = EZI2C_EZI2C_INTR_SLAVE_MASK;
 158:.\Generated_Source\PSoC4/EZI2C_EZI2C.c ****             EZI2C_INTR_TX_MASK_REG     = EZI2C_NO_INTR_SOURCES;
 159:.\Generated_Source\PSoC4/EZI2C_EZI2C.c **** 
 160:.\Generated_Source\PSoC4/EZI2C_EZI2C.c ****             /* Configure interrupt with EZI2C handler but do not enable it */
 161:.\Generated_Source\PSoC4/EZI2C_EZI2C.c ****             CyIntDisable    (EZI2C_ISR_NUMBER);
 162:.\Generated_Source\PSoC4/EZI2C_EZI2C.c ****             CyIntSetPriority(EZI2C_ISR_NUMBER, EZI2C_ISR_PRIORITY);
 163:.\Generated_Source\PSoC4/EZI2C_EZI2C.c ****             (void) CyIntSetVector(EZI2C_ISR_NUMBER, (0u != (config->enableClockStretch)) ?
 164:.\Generated_Source\PSoC4/EZI2C_EZI2C.c ****                                                                       (&EZI2C_EZI2C_STRETCH_ISR) :
 165:.\Generated_Source\PSoC4/EZI2C_EZI2C.c ****                                                                       (&EZI2C_EZI2C_NO_STRETCH_ISR)
 166:.\Generated_Source\PSoC4/EZI2C_EZI2C.c **** 
 167:.\Generated_Source\PSoC4/EZI2C_EZI2C.c ****             if(0u != (config->enableClockStretch))
 168:.\Generated_Source\PSoC4/EZI2C_EZI2C.c ****             {
 169:.\Generated_Source\PSoC4/EZI2C_EZI2C.c ****                 /* Configure interrupt sources */
 170:.\Generated_Source\PSoC4/EZI2C_EZI2C.c ****                 EZI2C_INTR_SLAVE_MASK_REG |= EZI2C_INTR_SLAVE_I2C_ADDR_MATCH;
 171:.\Generated_Source\PSoC4/EZI2C_EZI2C.c ****                 EZI2C_INTR_RX_MASK_REG     = EZI2C_NO_INTR_SOURCES;
 172:.\Generated_Source\PSoC4/EZI2C_EZI2C.c ****             }
 173:.\Generated_Source\PSoC4/EZI2C_EZI2C.c ****             else
 174:.\Generated_Source\PSoC4/EZI2C_EZI2C.c ****             {
 175:.\Generated_Source\PSoC4/EZI2C_EZI2C.c ****                 /* Enable Auto ACK/NACK features */
 176:.\Generated_Source\PSoC4/EZI2C_EZI2C.c ****                 EZI2C_I2C_CTRL_REG |= EZI2C_EZI2C_CTRL_AUTO;
 177:.\Generated_Source\PSoC4/EZI2C_EZI2C.c **** 
 178:.\Generated_Source\PSoC4/EZI2C_EZI2C.c ****                 /* Configure RX interrupt source */
 179:.\Generated_Source\PSoC4/EZI2C_EZI2C.c ****                 EZI2C_INTR_SLAVE_MASK_REG |= EZI2C_INTR_SLAVE_I2C_START;
 180:.\Generated_Source\PSoC4/EZI2C_EZI2C.c ****                 EZI2C_INTR_RX_MASK_REG     = EZI2C_INTR_RX_NOT_EMPTY;
 181:.\Generated_Source\PSoC4/EZI2C_EZI2C.c ****             }
 182:.\Generated_Source\PSoC4/EZI2C_EZI2C.c **** 
 183:.\Generated_Source\PSoC4/EZI2C_EZI2C.c ****             /* Configure global variables */
 184:.\Generated_Source\PSoC4/EZI2C_EZI2C.c ****             EZI2C_fsmState = EZI2C_EZI2C_FSM_IDLE;
 185:.\Generated_Source\PSoC4/EZI2C_EZI2C.c **** 
 186:.\Generated_Source\PSoC4/EZI2C_EZI2C.c ****             EZI2C_curStatus  = 0u;
 187:.\Generated_Source\PSoC4/EZI2C_EZI2C.c ****             EZI2C_indexBuf1  = 0u;
 188:.\Generated_Source\PSoC4/EZI2C_EZI2C.c ****             EZI2C_offsetBuf1 = 0u;
 189:.\Generated_Source\PSoC4/EZI2C_EZI2C.c ****             EZI2C_indexBuf2  = 0u;
 190:.\Generated_Source\PSoC4/EZI2C_EZI2C.c ****             EZI2C_offsetBuf2 = 0u;
 191:.\Generated_Source\PSoC4/EZI2C_EZI2C.c **** 
 192:.\Generated_Source\PSoC4/EZI2C_EZI2C.c ****             EZI2C_addrBuf1 = (uint8) config->primarySlaveAddr;
 193:.\Generated_Source\PSoC4/EZI2C_EZI2C.c ****             EZI2C_addrBuf2 = (uint8) config->secondarySlaveAddr;
 194:.\Generated_Source\PSoC4/EZI2C_EZI2C.c ****         }
 195:.\Generated_Source\PSoC4/EZI2C_EZI2C.c ****     }
 196:.\Generated_Source\PSoC4/EZI2C_EZI2C.c **** 
 197:.\Generated_Source\PSoC4/EZI2C_EZI2C.c **** #else
 198:.\Generated_Source\PSoC4/EZI2C_EZI2C.c **** 
 199:.\Generated_Source\PSoC4/EZI2C_EZI2C.c ****     /*******************************************************************************
 200:.\Generated_Source\PSoC4/EZI2C_EZI2C.c ****     * Function Name: EZI2C_EzI2CInit
 201:.\Generated_Source\PSoC4/EZI2C_EZI2C.c ****     ********************************************************************************
 202:.\Generated_Source\PSoC4/EZI2C_EZI2C.c ****     *
 203:.\Generated_Source\PSoC4/EZI2C_EZI2C.c ****     * Summary:
ARM GAS  C:\Users\JAVIER~1\AppData\Local\Temp\ccQuJx5a.s 			page 5


 204:.\Generated_Source\PSoC4/EZI2C_EZI2C.c ****     *  Configures the SCB for the EZI2C operation.
 205:.\Generated_Source\PSoC4/EZI2C_EZI2C.c ****     *
 206:.\Generated_Source\PSoC4/EZI2C_EZI2C.c ****     * Parameters:
 207:.\Generated_Source\PSoC4/EZI2C_EZI2C.c ****     *  None
 208:.\Generated_Source\PSoC4/EZI2C_EZI2C.c ****     *
 209:.\Generated_Source\PSoC4/EZI2C_EZI2C.c ****     * Return:
 210:.\Generated_Source\PSoC4/EZI2C_EZI2C.c ****     *  None
 211:.\Generated_Source\PSoC4/EZI2C_EZI2C.c ****     *
 212:.\Generated_Source\PSoC4/EZI2C_EZI2C.c ****     *******************************************************************************/
 213:.\Generated_Source\PSoC4/EZI2C_EZI2C.c ****     void EZI2C_EzI2CInit(void)
 214:.\Generated_Source\PSoC4/EZI2C_EZI2C.c ****     {
  26              		.loc 1 214 0
  27              		.cfi_startproc
  28 0000 10B5     		push	{r4, lr}
  29              		.cfi_def_cfa_offset 8
  30              		.cfi_offset 4, -8
  31              		.cfi_offset 14, -4
 215:.\Generated_Source\PSoC4/EZI2C_EZI2C.c ****         /* Configure I2C interface */
 216:.\Generated_Source\PSoC4/EZI2C_EZI2C.c ****         EZI2C_CTRL_REG     = EZI2C_EZI2C_DEFAULT_CTRL;
  32              		.loc 1 216 0
  33 0002 0024     		mov	r4, #0
  34 0004 1A4B     		ldr	r3, .L2
  35 0006 1C60     		str	r4, [r3]
 217:.\Generated_Source\PSoC4/EZI2C_EZI2C.c ****         EZI2C_I2C_CTRL_REG = EZI2C_EZI2C_DEFAULT_I2C_CTRL;
  36              		.loc 1 217 0
  37 0008 1A4A     		ldr	r2, .L2+4
  38 000a 1B4B     		ldr	r3, .L2+8
  39 000c 1A60     		str	r2, [r3]
 218:.\Generated_Source\PSoC4/EZI2C_EZI2C.c **** 
 219:.\Generated_Source\PSoC4/EZI2C_EZI2C.c ****     #if (EZI2C_CY_SCBIP_V0)
 220:.\Generated_Source\PSoC4/EZI2C_EZI2C.c ****         /* Adjust SDA filter settings. Ticket ID#150521 */
 221:.\Generated_Source\PSoC4/EZI2C_EZI2C.c ****         EZI2C_SET_I2C_CFG_SDA_FILT_TRIM(EZI2C_EC_AM_I2C_CFG_SDA_FILT_TRIM);
 222:.\Generated_Source\PSoC4/EZI2C_EZI2C.c ****     #endif /* (EZI2C_CY_SCBIP_V0) */
 223:.\Generated_Source\PSoC4/EZI2C_EZI2C.c **** 
 224:.\Generated_Source\PSoC4/EZI2C_EZI2C.c ****         /* Configure RX direction */
 225:.\Generated_Source\PSoC4/EZI2C_EZI2C.c ****         EZI2C_RX_CTRL_REG      = EZI2C_EZI2C_DEFAULT_RX_CTRL;
  40              		.loc 1 225 0
  41 000e 1B4B     		ldr	r3, .L2+12
  42 0010 1B4A     		ldr	r2, .L2+16
  43 0012 1360     		str	r3, [r2]
 226:.\Generated_Source\PSoC4/EZI2C_EZI2C.c ****         EZI2C_RX_FIFO_CTRL_REG = EZI2C_EZI2C_DEFAULT_RX_FIFO_CTRL;
  44              		.loc 1 226 0
  45 0014 1B4A     		ldr	r2, .L2+20
  46 0016 1460     		str	r4, [r2]
 227:.\Generated_Source\PSoC4/EZI2C_EZI2C.c **** 
 228:.\Generated_Source\PSoC4/EZI2C_EZI2C.c ****         /* Set default address and mask */
 229:.\Generated_Source\PSoC4/EZI2C_EZI2C.c ****         EZI2C_RX_MATCH_REG     = EZI2C_EZI2C_DEFAULT_RX_MATCH;
  47              		.loc 1 229 0
  48 0018 1B49     		ldr	r1, .L2+24
  49 001a 1C4A     		ldr	r2, .L2+28
  50 001c 1160     		str	r1, [r2]
 230:.\Generated_Source\PSoC4/EZI2C_EZI2C.c **** 
 231:.\Generated_Source\PSoC4/EZI2C_EZI2C.c ****         /* Configure TX direction */
 232:.\Generated_Source\PSoC4/EZI2C_EZI2C.c ****         EZI2C_TX_CTRL_REG      = EZI2C_EZI2C_DEFAULT_TX_CTRL;
  51              		.loc 1 232 0
  52 001e 1C4A     		ldr	r2, .L2+32
  53 0020 1360     		str	r3, [r2]
ARM GAS  C:\Users\JAVIER~1\AppData\Local\Temp\ccQuJx5a.s 			page 6


 233:.\Generated_Source\PSoC4/EZI2C_EZI2C.c ****         EZI2C_TX_FIFO_CTRL_REG = EZI2C_EZI2C_DEFAULT_TX_FIFO_CTRL;
  54              		.loc 1 233 0
  55 0022 1C4B     		ldr	r3, .L2+36
  56 0024 1C60     		str	r4, [r3]
 234:.\Generated_Source\PSoC4/EZI2C_EZI2C.c **** 
 235:.\Generated_Source\PSoC4/EZI2C_EZI2C.c ****         /* Configure interrupt with EZI2C handler but do not enable it */
 236:.\Generated_Source\PSoC4/EZI2C_EZI2C.c ****     #if !defined (CY_EXTERNAL_INTERRUPT_CONFIG)
 237:.\Generated_Source\PSoC4/EZI2C_EZI2C.c ****         CyIntDisable    (EZI2C_ISR_NUMBER);
  57              		.loc 1 237 0
  58 0026 0920     		mov	r0, #9
  59 0028 FFF7FEFF 		bl	CyIntDisable
  60              	.LVL0:
 238:.\Generated_Source\PSoC4/EZI2C_EZI2C.c ****         CyIntSetPriority(EZI2C_ISR_NUMBER, EZI2C_ISR_PRIORITY);
  61              		.loc 1 238 0
  62 002c 0920     		mov	r0, #9
  63 002e 0321     		mov	r1, #3
  64 0030 FFF7FEFF 		bl	CyIntSetPriority
  65              	.LVL1:
 239:.\Generated_Source\PSoC4/EZI2C_EZI2C.c **** 
 240:.\Generated_Source\PSoC4/EZI2C_EZI2C.c ****     #if (EZI2C_EZI2C_SCL_STRETCH_ENABLE_CONST)
 241:.\Generated_Source\PSoC4/EZI2C_EZI2C.c ****         (void) CyIntSetVector(EZI2C_ISR_NUMBER, &EZI2C_EZI2C_STRETCH_ISR);
  66              		.loc 1 241 0
  67 0034 0920     		mov	r0, #9
  68 0036 1849     		ldr	r1, .L2+40
  69 0038 FFF7FEFF 		bl	CyIntSetVector
  70              	.LVL2:
 242:.\Generated_Source\PSoC4/EZI2C_EZI2C.c ****     #else
 243:.\Generated_Source\PSoC4/EZI2C_EZI2C.c ****         (void) CyIntSetVector(EZI2C_ISR_NUMBER, &EZI2C_EZI2C_NO_STRETCH_ISR);
 244:.\Generated_Source\PSoC4/EZI2C_EZI2C.c ****     #endif /* (EZI2C_EZI2C_SCL_STRETCH_ENABLE_CONST) */
 245:.\Generated_Source\PSoC4/EZI2C_EZI2C.c **** 
 246:.\Generated_Source\PSoC4/EZI2C_EZI2C.c ****     #endif /* !defined (CY_EXTERNAL_INTERRUPT_CONFIG) */
 247:.\Generated_Source\PSoC4/EZI2C_EZI2C.c **** 
 248:.\Generated_Source\PSoC4/EZI2C_EZI2C.c ****         /* Configure interrupt sources */
 249:.\Generated_Source\PSoC4/EZI2C_EZI2C.c ****     #if (!EZI2C_CY_SCBIP_V1)
 250:.\Generated_Source\PSoC4/EZI2C_EZI2C.c ****         EZI2C_INTR_SPI_EC_MASK_REG = EZI2C_EZI2C_DEFAULT_INTR_SPI_EC_MASK;
  71              		.loc 1 250 0
  72 003c 174B     		ldr	r3, .L2+44
  73 003e 1C60     		str	r4, [r3]
 251:.\Generated_Source\PSoC4/EZI2C_EZI2C.c ****     #endif /* (!EZI2C_CY_SCBIP_V1) */
 252:.\Generated_Source\PSoC4/EZI2C_EZI2C.c **** 
 253:.\Generated_Source\PSoC4/EZI2C_EZI2C.c ****         EZI2C_INTR_I2C_EC_MASK_REG = EZI2C_EZI2C_DEFAULT_INTR_I2C_EC_MASK;
  74              		.loc 1 253 0
  75 0040 174B     		ldr	r3, .L2+48
  76 0042 1C60     		str	r4, [r3]
 254:.\Generated_Source\PSoC4/EZI2C_EZI2C.c ****         EZI2C_INTR_SLAVE_MASK_REG  = EZI2C_EZI2C_DEFAULT_INTR_SLAVE_MASK;
  77              		.loc 1 254 0
  78 0044 5222     		mov	r2, #82
  79 0046 FF32     		add	r2, r2, #255
  80 0048 164B     		ldr	r3, .L2+52
  81 004a 1A60     		str	r2, [r3]
 255:.\Generated_Source\PSoC4/EZI2C_EZI2C.c ****         EZI2C_INTR_MASTER_MASK_REG = EZI2C_EZI2C_DEFAULT_INTR_MASTER_MASK;
  82              		.loc 1 255 0
  83 004c 164B     		ldr	r3, .L2+56
  84 004e 1C60     		str	r4, [r3]
 256:.\Generated_Source\PSoC4/EZI2C_EZI2C.c ****         EZI2C_INTR_RX_MASK_REG     = EZI2C_EZI2C_DEFAULT_INTR_RX_MASK;
  85              		.loc 1 256 0
  86 0050 164B     		ldr	r3, .L2+60
ARM GAS  C:\Users\JAVIER~1\AppData\Local\Temp\ccQuJx5a.s 			page 7


  87 0052 1C60     		str	r4, [r3]
 257:.\Generated_Source\PSoC4/EZI2C_EZI2C.c ****         EZI2C_INTR_TX_MASK_REG     = EZI2C_EZI2C_DEFAULT_INTR_TX_MASK;
  88              		.loc 1 257 0
  89 0054 164B     		ldr	r3, .L2+64
  90 0056 1C60     		str	r4, [r3]
 258:.\Generated_Source\PSoC4/EZI2C_EZI2C.c **** 
 259:.\Generated_Source\PSoC4/EZI2C_EZI2C.c ****         /* Configure global variables */
 260:.\Generated_Source\PSoC4/EZI2C_EZI2C.c ****         EZI2C_fsmState = EZI2C_EZI2C_FSM_IDLE;
  91              		.loc 1 260 0
  92 0058 503A     		sub	r2, r2, #80
  93 005a FF3A     		sub	r2, r2, #255
  94 005c 154B     		ldr	r3, .L2+68
  95 005e 1A70     		strb	r2, [r3]
 261:.\Generated_Source\PSoC4/EZI2C_EZI2C.c **** 
 262:.\Generated_Source\PSoC4/EZI2C_EZI2C.c ****         EZI2C_curStatus  = 0u;
  96              		.loc 1 262 0
  97 0060 154B     		ldr	r3, .L2+72
  98 0062 1C70     		strb	r4, [r3]
 263:.\Generated_Source\PSoC4/EZI2C_EZI2C.c ****         EZI2C_indexBuf1  = 0u;
  99              		.loc 1 263 0
 100 0064 154B     		ldr	r3, .L2+76
 101 0066 1C80     		strh	r4, [r3]
 264:.\Generated_Source\PSoC4/EZI2C_EZI2C.c ****         EZI2C_offsetBuf1 = 0u;
 102              		.loc 1 264 0
 103 0068 154B     		ldr	r3, .L2+80
 104 006a 1C80     		strh	r4, [r3]
 265:.\Generated_Source\PSoC4/EZI2C_EZI2C.c **** 
 266:.\Generated_Source\PSoC4/EZI2C_EZI2C.c ****     #if(EZI2C_SECONDARY_ADDRESS_ENABLE_CONST)
 267:.\Generated_Source\PSoC4/EZI2C_EZI2C.c ****         EZI2C_indexBuf2  = 0u;
 268:.\Generated_Source\PSoC4/EZI2C_EZI2C.c ****         EZI2C_offsetBuf2 = 0u;
 269:.\Generated_Source\PSoC4/EZI2C_EZI2C.c **** 
 270:.\Generated_Source\PSoC4/EZI2C_EZI2C.c ****         EZI2C_addrBuf1 = EZI2C_EZI2C_PRIMARY_SLAVE_ADDRESS;
 271:.\Generated_Source\PSoC4/EZI2C_EZI2C.c ****         EZI2C_addrBuf2 = EZI2C_EZI2C_SECONDARY_SLAVE_ADDRESS;
 272:.\Generated_Source\PSoC4/EZI2C_EZI2C.c ****     #endif /* (EZI2C_SECONDARY_ADDRESS_ENABLE_CONST) */
 273:.\Generated_Source\PSoC4/EZI2C_EZI2C.c ****     }
 105              		.loc 1 273 0
 106              		@ sp needed
 107 006c 10BD     		pop	{r4, pc}
 108              	.L3:
 109 006e C046     		.align	2
 110              	.L2:
 111 0070 00002440 		.word	1076101120
 112 0074 00080040 		.word	1073743872
 113 0078 60002440 		.word	1076101216
 114 007c 07010080 		.word	-2147483385
 115 0080 00032440 		.word	1076101888
 116 0084 04032440 		.word	1076101892
 117 0088 1000FE00 		.word	16646160
 118 008c 10032440 		.word	1076101904
 119 0090 00022440 		.word	1076101632
 120 0094 04022440 		.word	1076101636
 121 0098 00000000 		.word	EZI2C_EZI2C_STRETCH_ISR
 122 009c C80E2440 		.word	1076104904
 123 00a0 880E2440 		.word	1076104840
 124 00a4 480F2440 		.word	1076105032
 125 00a8 080F2440 		.word	1076104968
 126 00ac C80F2440 		.word	1076105160
ARM GAS  C:\Users\JAVIER~1\AppData\Local\Temp\ccQuJx5a.s 			page 8


 127 00b0 880F2440 		.word	1076105096
 128 00b4 00000000 		.word	EZI2C_fsmState
 129 00b8 00000000 		.word	EZI2C_curStatus
 130 00bc 00000000 		.word	EZI2C_indexBuf1
 131 00c0 00000000 		.word	EZI2C_offsetBuf1
 132              		.cfi_endproc
 133              	.LFE2:
 134              		.size	EZI2C_EzI2CInit, .-EZI2C_EzI2CInit
 135              		.section	.text.EZI2C_EzI2CStop,"ax",%progbits
 136              		.align	2
 137              		.global	EZI2C_EzI2CStop
 138              		.code	16
 139              		.thumb_func
 140              		.type	EZI2C_EzI2CStop, %function
 141              	EZI2C_EzI2CStop:
 142              	.LFB3:
 274:.\Generated_Source\PSoC4/EZI2C_EZI2C.c **** #endif /* (EZI2C_SCB_MODE_UNCONFIG_CONST_CFG) */
 275:.\Generated_Source\PSoC4/EZI2C_EZI2C.c **** 
 276:.\Generated_Source\PSoC4/EZI2C_EZI2C.c **** 
 277:.\Generated_Source\PSoC4/EZI2C_EZI2C.c **** /*******************************************************************************
 278:.\Generated_Source\PSoC4/EZI2C_EZI2C.c **** * Function Name: EZI2C_EzI2CStop
 279:.\Generated_Source\PSoC4/EZI2C_EZI2C.c **** ********************************************************************************
 280:.\Generated_Source\PSoC4/EZI2C_EZI2C.c **** *
 281:.\Generated_Source\PSoC4/EZI2C_EZI2C.c **** * Summary:
 282:.\Generated_Source\PSoC4/EZI2C_EZI2C.c **** *  Resets the EZI2C FSM into the default state.
 283:.\Generated_Source\PSoC4/EZI2C_EZI2C.c **** *
 284:.\Generated_Source\PSoC4/EZI2C_EZI2C.c **** * Parameters:
 285:.\Generated_Source\PSoC4/EZI2C_EZI2C.c **** *  None
 286:.\Generated_Source\PSoC4/EZI2C_EZI2C.c **** *
 287:.\Generated_Source\PSoC4/EZI2C_EZI2C.c **** * Return:
 288:.\Generated_Source\PSoC4/EZI2C_EZI2C.c **** *  None
 289:.\Generated_Source\PSoC4/EZI2C_EZI2C.c **** *
 290:.\Generated_Source\PSoC4/EZI2C_EZI2C.c **** *******************************************************************************/
 291:.\Generated_Source\PSoC4/EZI2C_EZI2C.c **** void EZI2C_EzI2CStop(void)
 292:.\Generated_Source\PSoC4/EZI2C_EZI2C.c **** {
 143              		.loc 1 292 0
 144              		.cfi_startproc
 293:.\Generated_Source\PSoC4/EZI2C_EZI2C.c ****     EZI2C_fsmState = EZI2C_EZI2C_FSM_IDLE;
 145              		.loc 1 293 0
 146 0000 0222     		mov	r2, #2
 147 0002 014B     		ldr	r3, .L5
 148 0004 1A70     		strb	r2, [r3]
 294:.\Generated_Source\PSoC4/EZI2C_EZI2C.c **** }
 149              		.loc 1 294 0
 150              		@ sp needed
 151 0006 7047     		bx	lr
 152              	.L6:
 153              		.align	2
 154              	.L5:
 155 0008 00000000 		.word	EZI2C_fsmState
 156              		.cfi_endproc
 157              	.LFE3:
 158              		.size	EZI2C_EzI2CStop, .-EZI2C_EzI2CStop
 159              		.section	.text.EZI2C_EzI2CGetActivity,"ax",%progbits
 160              		.align	2
 161              		.global	EZI2C_EzI2CGetActivity
 162              		.code	16
ARM GAS  C:\Users\JAVIER~1\AppData\Local\Temp\ccQuJx5a.s 			page 9


 163              		.thumb_func
 164              		.type	EZI2C_EzI2CGetActivity, %function
 165              	EZI2C_EzI2CGetActivity:
 166              	.LFB4:
 295:.\Generated_Source\PSoC4/EZI2C_EZI2C.c **** 
 296:.\Generated_Source\PSoC4/EZI2C_EZI2C.c **** 
 297:.\Generated_Source\PSoC4/EZI2C_EZI2C.c **** /*******************************************************************************
 298:.\Generated_Source\PSoC4/EZI2C_EZI2C.c **** * Function Name: EZI2C_EzI2CGetActivity
 299:.\Generated_Source\PSoC4/EZI2C_EZI2C.c **** ********************************************************************************
 300:.\Generated_Source\PSoC4/EZI2C_EZI2C.c **** *
 301:.\Generated_Source\PSoC4/EZI2C_EZI2C.c **** * Summary:
 302:.\Generated_Source\PSoC4/EZI2C_EZI2C.c **** *  Returns the EZI2C slave status.
 303:.\Generated_Source\PSoC4/EZI2C_EZI2C.c **** *  The read, write and error status flags reset to zero after this function
 304:.\Generated_Source\PSoC4/EZI2C_EZI2C.c **** *  call. The busy status flag is cleared when the transaction intended for
 305:.\Generated_Source\PSoC4/EZI2C_EZI2C.c **** *  the EZI2C slave completes.
 306:.\Generated_Source\PSoC4/EZI2C_EZI2C.c **** *
 307:.\Generated_Source\PSoC4/EZI2C_EZI2C.c **** * Parameters:
 308:.\Generated_Source\PSoC4/EZI2C_EZI2C.c **** *  None
 309:.\Generated_Source\PSoC4/EZI2C_EZI2C.c **** *
 310:.\Generated_Source\PSoC4/EZI2C_EZI2C.c **** * Return:
 311:.\Generated_Source\PSoC4/EZI2C_EZI2C.c **** *  Returns the status of the EZI2C Slave activity.
 312:.\Generated_Source\PSoC4/EZI2C_EZI2C.c **** *
 313:.\Generated_Source\PSoC4/EZI2C_EZI2C.c **** *******************************************************************************/
 314:.\Generated_Source\PSoC4/EZI2C_EZI2C.c **** uint32 EZI2C_EzI2CGetActivity(void)
 315:.\Generated_Source\PSoC4/EZI2C_EZI2C.c **** {
 167              		.loc 1 315 0
 168              		.cfi_startproc
 169 0000 10B5     		push	{r4, lr}
 170              		.cfi_def_cfa_offset 8
 171              		.cfi_offset 4, -8
 172              		.cfi_offset 14, -4
 316:.\Generated_Source\PSoC4/EZI2C_EZI2C.c ****     uint32 status;
 317:.\Generated_Source\PSoC4/EZI2C_EZI2C.c **** 
 318:.\Generated_Source\PSoC4/EZI2C_EZI2C.c ****     EZI2C_DisableInt();  /* Lock from interruption */
 173              		.loc 1 318 0
 174 0002 0920     		mov	r0, #9
 175 0004 FFF7FEFF 		bl	CyIntDisable
 176              	.LVL3:
 319:.\Generated_Source\PSoC4/EZI2C_EZI2C.c **** 
 320:.\Generated_Source\PSoC4/EZI2C_EZI2C.c ****     status = EZI2C_curStatus;
 177              		.loc 1 320 0
 178 0008 054B     		ldr	r3, .L8
 179 000a 1C78     		ldrb	r4, [r3]
 180 000c E4B2     		uxtb	r4, r4
 181              	.LVL4:
 321:.\Generated_Source\PSoC4/EZI2C_EZI2C.c **** 
 322:.\Generated_Source\PSoC4/EZI2C_EZI2C.c ****     /* Relay on address match event from HW as bus busy status */
 323:.\Generated_Source\PSoC4/EZI2C_EZI2C.c ****     #if(EZI2C_EZI2C_SCL_STRETCH_DISABLE)
 324:.\Generated_Source\PSoC4/EZI2C_EZI2C.c ****     {
 325:.\Generated_Source\PSoC4/EZI2C_EZI2C.c ****         /* For EZI2C_CY_SCBIP_V0 the wake is prohibited by customizer */
 326:.\Generated_Source\PSoC4/EZI2C_EZI2C.c ****         #if(EZI2C_EZI2C_EC_AM_ENABLE)
 327:.\Generated_Source\PSoC4/EZI2C_EZI2C.c ****         {
 328:.\Generated_Source\PSoC4/EZI2C_EZI2C.c ****             status |= EZI2C_CHECK_INTR_I2C_EC(EZI2C_INTR_I2C_EC_WAKE_UP) ?
 329:.\Generated_Source\PSoC4/EZI2C_EZI2C.c ****                         EZI2C_EZI2C_STATUS_BUSY : 0u;
 330:.\Generated_Source\PSoC4/EZI2C_EZI2C.c ****         }
 331:.\Generated_Source\PSoC4/EZI2C_EZI2C.c ****         #else
 332:.\Generated_Source\PSoC4/EZI2C_EZI2C.c ****         {
ARM GAS  C:\Users\JAVIER~1\AppData\Local\Temp\ccQuJx5a.s 			page 10


 333:.\Generated_Source\PSoC4/EZI2C_EZI2C.c ****             status |= EZI2C_CHECK_INTR_SLAVE(EZI2C_INTR_SLAVE_I2C_ADDR_MATCH) ?
 334:.\Generated_Source\PSoC4/EZI2C_EZI2C.c ****                         EZI2C_EZI2C_STATUS_BUSY : 0u;
 335:.\Generated_Source\PSoC4/EZI2C_EZI2C.c ****         }
 336:.\Generated_Source\PSoC4/EZI2C_EZI2C.c ****         #endif
 337:.\Generated_Source\PSoC4/EZI2C_EZI2C.c ****     }
 338:.\Generated_Source\PSoC4/EZI2C_EZI2C.c ****     #endif
 339:.\Generated_Source\PSoC4/EZI2C_EZI2C.c **** 
 340:.\Generated_Source\PSoC4/EZI2C_EZI2C.c ****     EZI2C_curStatus &= ((uint8) ~EZI2C_EZI2C_CLEAR_STATUS);
 182              		.loc 1 340 0
 183 000e 1A78     		ldrb	r2, [r3]
 184 0010 1F21     		mov	r1, #31
 185 0012 8A43     		bic	r2, r1
 186 0014 1A70     		strb	r2, [r3]
 341:.\Generated_Source\PSoC4/EZI2C_EZI2C.c **** 
 342:.\Generated_Source\PSoC4/EZI2C_EZI2C.c ****     EZI2C_EnableInt();   /* Release lock */
 187              		.loc 1 342 0
 188 0016 0920     		mov	r0, #9
 189 0018 FFF7FEFF 		bl	CyIntEnable
 190              	.LVL5:
 343:.\Generated_Source\PSoC4/EZI2C_EZI2C.c **** 
 344:.\Generated_Source\PSoC4/EZI2C_EZI2C.c ****     return(status);
 345:.\Generated_Source\PSoC4/EZI2C_EZI2C.c **** }
 191              		.loc 1 345 0
 192 001c 201C     		mov	r0, r4
 193              		@ sp needed
 194              	.LVL6:
 195 001e 10BD     		pop	{r4, pc}
 196              	.L9:
 197              		.align	2
 198              	.L8:
 199 0020 00000000 		.word	EZI2C_curStatus
 200              		.cfi_endproc
 201              	.LFE4:
 202              		.size	EZI2C_EzI2CGetActivity, .-EZI2C_EzI2CGetActivity
 203              		.section	.text.EZI2C_EzI2CSetAddress1,"ax",%progbits
 204              		.align	2
 205              		.global	EZI2C_EzI2CSetAddress1
 206              		.code	16
 207              		.thumb_func
 208              		.type	EZI2C_EzI2CSetAddress1, %function
 209              	EZI2C_EzI2CSetAddress1:
 210              	.LFB5:
 346:.\Generated_Source\PSoC4/EZI2C_EZI2C.c **** 
 347:.\Generated_Source\PSoC4/EZI2C_EZI2C.c **** 
 348:.\Generated_Source\PSoC4/EZI2C_EZI2C.c **** /*******************************************************************************
 349:.\Generated_Source\PSoC4/EZI2C_EZI2C.c **** * Function Name: EZI2C_EzI2CSetAddress1
 350:.\Generated_Source\PSoC4/EZI2C_EZI2C.c **** ********************************************************************************
 351:.\Generated_Source\PSoC4/EZI2C_EZI2C.c **** *
 352:.\Generated_Source\PSoC4/EZI2C_EZI2C.c **** * Summary:
 353:.\Generated_Source\PSoC4/EZI2C_EZI2C.c **** *  Sets the primary I2C slave address.
 354:.\Generated_Source\PSoC4/EZI2C_EZI2C.c **** *
 355:.\Generated_Source\PSoC4/EZI2C_EZI2C.c **** * Parameters:
 356:.\Generated_Source\PSoC4/EZI2C_EZI2C.c **** *  address: I2C slave address for the secondary device.
 357:.\Generated_Source\PSoC4/EZI2C_EZI2C.c **** *           This address is the 7-bit right-justified slave address and does
 358:.\Generated_Source\PSoC4/EZI2C_EZI2C.c **** *           not include the R/W bit.
 359:.\Generated_Source\PSoC4/EZI2C_EZI2C.c **** *           This value may be any address between 0 and 127 (0x00 to 0x7F).
 360:.\Generated_Source\PSoC4/EZI2C_EZI2C.c **** *
ARM GAS  C:\Users\JAVIER~1\AppData\Local\Temp\ccQuJx5a.s 			page 11


 361:.\Generated_Source\PSoC4/EZI2C_EZI2C.c **** * Return:
 362:.\Generated_Source\PSoC4/EZI2C_EZI2C.c **** *  None
 363:.\Generated_Source\PSoC4/EZI2C_EZI2C.c **** *
 364:.\Generated_Source\PSoC4/EZI2C_EZI2C.c **** *******************************************************************************/
 365:.\Generated_Source\PSoC4/EZI2C_EZI2C.c **** void EZI2C_EzI2CSetAddress1(uint32 address)
 366:.\Generated_Source\PSoC4/EZI2C_EZI2C.c **** {
 211              		.loc 1 366 0
 212              		.cfi_startproc
 213              	.LVL7:
 214              	.LBB2:
 367:.\Generated_Source\PSoC4/EZI2C_EZI2C.c ****     #if(EZI2C_SECONDARY_ADDRESS_ENABLE)
 368:.\Generated_Source\PSoC4/EZI2C_EZI2C.c ****     {
 369:.\Generated_Source\PSoC4/EZI2C_EZI2C.c ****         EZI2C_addrBuf1 = (uint8) address;
 370:.\Generated_Source\PSoC4/EZI2C_EZI2C.c **** 
 371:.\Generated_Source\PSoC4/EZI2C_EZI2C.c ****         EZI2C_RX_MATCH_REG = EZI2C_EzI2CUpdateRxMatchReg(address,
 372:.\Generated_Source\PSoC4/EZI2C_EZI2C.c ****                                                                                (uint32) EZI2C_addrB
 373:.\Generated_Source\PSoC4/EZI2C_EZI2C.c ****     }
 374:.\Generated_Source\PSoC4/EZI2C_EZI2C.c ****     #else
 375:.\Generated_Source\PSoC4/EZI2C_EZI2C.c ****     {
 376:.\Generated_Source\PSoC4/EZI2C_EZI2C.c ****         uint32 matchReg;
 377:.\Generated_Source\PSoC4/EZI2C_EZI2C.c **** 
 378:.\Generated_Source\PSoC4/EZI2C_EZI2C.c ****         matchReg = EZI2C_RX_MATCH_REG;
 215              		.loc 1 378 0
 216 0000 044A     		ldr	r2, .L11
 217 0002 1368     		ldr	r3, [r2]
 218              	.LVL8:
 379:.\Generated_Source\PSoC4/EZI2C_EZI2C.c **** 
 380:.\Generated_Source\PSoC4/EZI2C_EZI2C.c ****         matchReg &= ((uint32) ~EZI2C_RX_MATCH_ADDR_MASK);            /* Clear address bits */
 219              		.loc 1 380 0
 220 0004 FF21     		mov	r1, #255
 221 0006 8B43     		bic	r3, r1
 222              	.LVL9:
 381:.\Generated_Source\PSoC4/EZI2C_EZI2C.c ****         matchReg |= ((uint32)  EZI2C_GET_I2C_8BIT_ADDRESS(address)); /* Set mask */
 223              		.loc 1 381 0
 224 0008 4000     		lsl	r0, r0, #1
 225              	.LVL10:
 226 000a 0840     		and	r0, r1
 227 000c 1843     		orr	r0, r3
 228              	.LVL11:
 382:.\Generated_Source\PSoC4/EZI2C_EZI2C.c **** 
 383:.\Generated_Source\PSoC4/EZI2C_EZI2C.c ****         EZI2C_RX_MATCH_REG = matchReg;
 229              		.loc 1 383 0
 230 000e 1060     		str	r0, [r2]
 231              	.LBE2:
 384:.\Generated_Source\PSoC4/EZI2C_EZI2C.c ****     }
 385:.\Generated_Source\PSoC4/EZI2C_EZI2C.c ****     #endif
 386:.\Generated_Source\PSoC4/EZI2C_EZI2C.c **** }
 232              		.loc 1 386 0
 233              		@ sp needed
 234 0010 7047     		bx	lr
 235              	.L12:
 236 0012 C046     		.align	2
 237              	.L11:
 238 0014 10032440 		.word	1076101904
 239              		.cfi_endproc
 240              	.LFE5:
 241              		.size	EZI2C_EzI2CSetAddress1, .-EZI2C_EzI2CSetAddress1
ARM GAS  C:\Users\JAVIER~1\AppData\Local\Temp\ccQuJx5a.s 			page 12


 242              		.section	.text.EZI2C_EzI2CGetAddress1,"ax",%progbits
 243              		.align	2
 244              		.global	EZI2C_EzI2CGetAddress1
 245              		.code	16
 246              		.thumb_func
 247              		.type	EZI2C_EzI2CGetAddress1, %function
 248              	EZI2C_EzI2CGetAddress1:
 249              	.LFB6:
 387:.\Generated_Source\PSoC4/EZI2C_EZI2C.c **** 
 388:.\Generated_Source\PSoC4/EZI2C_EZI2C.c **** 
 389:.\Generated_Source\PSoC4/EZI2C_EZI2C.c **** /*******************************************************************************
 390:.\Generated_Source\PSoC4/EZI2C_EZI2C.c **** * Function Name: EZI2C_EzI2CGetAddress1
 391:.\Generated_Source\PSoC4/EZI2C_EZI2C.c **** ********************************************************************************
 392:.\Generated_Source\PSoC4/EZI2C_EZI2C.c **** *
 393:.\Generated_Source\PSoC4/EZI2C_EZI2C.c **** * Summary:
 394:.\Generated_Source\PSoC4/EZI2C_EZI2C.c **** *  Gets the primary I2C slave 7-bit address.
 395:.\Generated_Source\PSoC4/EZI2C_EZI2C.c **** *
 396:.\Generated_Source\PSoC4/EZI2C_EZI2C.c **** * Parameters:
 397:.\Generated_Source\PSoC4/EZI2C_EZI2C.c **** *  None
 398:.\Generated_Source\PSoC4/EZI2C_EZI2C.c **** *
 399:.\Generated_Source\PSoC4/EZI2C_EZI2C.c **** * Return:
 400:.\Generated_Source\PSoC4/EZI2C_EZI2C.c **** *  Returns I2C slave address for the primary device.
 401:.\Generated_Source\PSoC4/EZI2C_EZI2C.c **** *  This address is the 7-bit right-justified slave address and does not
 402:.\Generated_Source\PSoC4/EZI2C_EZI2C.c **** *  include the R/W bit.
 403:.\Generated_Source\PSoC4/EZI2C_EZI2C.c **** *  This value may be any address between 0 and 127 (0x00 to 0x7F).
 404:.\Generated_Source\PSoC4/EZI2C_EZI2C.c **** *
 405:.\Generated_Source\PSoC4/EZI2C_EZI2C.c **** *******************************************************************************/
 406:.\Generated_Source\PSoC4/EZI2C_EZI2C.c **** uint32 EZI2C_EzI2CGetAddress1(void)
 407:.\Generated_Source\PSoC4/EZI2C_EZI2C.c **** {
 250              		.loc 1 407 0
 251              		.cfi_startproc
 408:.\Generated_Source\PSoC4/EZI2C_EZI2C.c ****     uint32 address;
 409:.\Generated_Source\PSoC4/EZI2C_EZI2C.c **** 
 410:.\Generated_Source\PSoC4/EZI2C_EZI2C.c ****     #if(EZI2C_SECONDARY_ADDRESS_ENABLE)
 411:.\Generated_Source\PSoC4/EZI2C_EZI2C.c ****     {
 412:.\Generated_Source\PSoC4/EZI2C_EZI2C.c ****         address = (uint32) EZI2C_addrBuf1;
 413:.\Generated_Source\PSoC4/EZI2C_EZI2C.c ****     }
 414:.\Generated_Source\PSoC4/EZI2C_EZI2C.c ****     #else
 415:.\Generated_Source\PSoC4/EZI2C_EZI2C.c ****     {
 416:.\Generated_Source\PSoC4/EZI2C_EZI2C.c ****         address = (EZI2C_GET_RX_MATCH_ADDR(EZI2C_RX_MATCH_REG) >>
 252              		.loc 1 416 0
 253 0000 024B     		ldr	r3, .L14
 254 0002 1868     		ldr	r0, [r3]
 255 0004 0006     		lsl	r0, r0, #24
 256 0006 400E     		lsr	r0, r0, #25
 257              	.LVL12:
 417:.\Generated_Source\PSoC4/EZI2C_EZI2C.c ****                    EZI2C_I2C_SLAVE_ADDR_POS);
 418:.\Generated_Source\PSoC4/EZI2C_EZI2C.c ****     }
 419:.\Generated_Source\PSoC4/EZI2C_EZI2C.c ****     #endif
 420:.\Generated_Source\PSoC4/EZI2C_EZI2C.c **** 
 421:.\Generated_Source\PSoC4/EZI2C_EZI2C.c ****     return(address);
 422:.\Generated_Source\PSoC4/EZI2C_EZI2C.c **** }
 258              		.loc 1 422 0
 259              		@ sp needed
 260 0008 7047     		bx	lr
 261              	.L15:
 262 000a C046     		.align	2
ARM GAS  C:\Users\JAVIER~1\AppData\Local\Temp\ccQuJx5a.s 			page 13


 263              	.L14:
 264 000c 10032440 		.word	1076101904
 265              		.cfi_endproc
 266              	.LFE6:
 267              		.size	EZI2C_EzI2CGetAddress1, .-EZI2C_EzI2CGetAddress1
 268              		.section	.text.EZI2C_EzI2CSetBuffer1,"ax",%progbits
 269              		.align	2
 270              		.global	EZI2C_EzI2CSetBuffer1
 271              		.code	16
 272              		.thumb_func
 273              		.type	EZI2C_EzI2CSetBuffer1, %function
 274              	EZI2C_EzI2CSetBuffer1:
 275              	.LFB7:
 423:.\Generated_Source\PSoC4/EZI2C_EZI2C.c **** 
 424:.\Generated_Source\PSoC4/EZI2C_EZI2C.c **** 
 425:.\Generated_Source\PSoC4/EZI2C_EZI2C.c **** /*******************************************************************************
 426:.\Generated_Source\PSoC4/EZI2C_EZI2C.c **** * Function Name: EZI2C_EzI2CSetBuffer1
 427:.\Generated_Source\PSoC4/EZI2C_EZI2C.c **** ********************************************************************************
 428:.\Generated_Source\PSoC4/EZI2C_EZI2C.c **** *
 429:.\Generated_Source\PSoC4/EZI2C_EZI2C.c **** * Summary:
 430:.\Generated_Source\PSoC4/EZI2C_EZI2C.c **** *  Sets up the data buffer to be exposed to the I2C master on a primary slave
 431:.\Generated_Source\PSoC4/EZI2C_EZI2C.c **** *  address request.
 432:.\Generated_Source\PSoC4/EZI2C_EZI2C.c **** *
 433:.\Generated_Source\PSoC4/EZI2C_EZI2C.c **** * Parameters:
 434:.\Generated_Source\PSoC4/EZI2C_EZI2C.c **** *  bufSize: Size of the buffer in bytes.
 435:.\Generated_Source\PSoC4/EZI2C_EZI2C.c **** *  rwBoundary: Sets how many bytes are writeable in the beginning of the buffer.
 436:.\Generated_Source\PSoC4/EZI2C_EZI2C.c **** *              This value must be less than or equal to the buffer size.
 437:.\Generated_Source\PSoC4/EZI2C_EZI2C.c **** *              Data located at offset rwBoundry and greater are read only.
 438:.\Generated_Source\PSoC4/EZI2C_EZI2C.c **** *  buffer: Pointer to the data buffer.
 439:.\Generated_Source\PSoC4/EZI2C_EZI2C.c **** *
 440:.\Generated_Source\PSoC4/EZI2C_EZI2C.c **** * Return:
 441:.\Generated_Source\PSoC4/EZI2C_EZI2C.c **** *  None
 442:.\Generated_Source\PSoC4/EZI2C_EZI2C.c **** *
 443:.\Generated_Source\PSoC4/EZI2C_EZI2C.c **** *******************************************************************************/
 444:.\Generated_Source\PSoC4/EZI2C_EZI2C.c **** void EZI2C_EzI2CSetBuffer1(uint32 bufSize, uint32 rwBoundary, volatile uint8 * buffer)
 445:.\Generated_Source\PSoC4/EZI2C_EZI2C.c **** {
 276              		.loc 1 445 0
 277              		.cfi_startproc
 278              	.LVL13:
 279 0000 70B5     		push	{r4, r5, r6, lr}
 280              		.cfi_def_cfa_offset 16
 281              		.cfi_offset 4, -16
 282              		.cfi_offset 5, -12
 283              		.cfi_offset 6, -8
 284              		.cfi_offset 14, -4
 285 0002 061C     		mov	r6, r0
 286 0004 0D1C     		mov	r5, r1
 287 0006 141E     		sub	r4, r2, #0
 446:.\Generated_Source\PSoC4/EZI2C_EZI2C.c ****     if (NULL != buffer)
 288              		.loc 1 446 0
 289 0008 0BD0     		beq	.L16
 447:.\Generated_Source\PSoC4/EZI2C_EZI2C.c ****     {
 448:.\Generated_Source\PSoC4/EZI2C_EZI2C.c ****         EZI2C_DisableInt();  /* Lock from interruption */
 290              		.loc 1 448 0
 291 000a 0920     		mov	r0, #9
 292              	.LVL14:
 293 000c FFF7FEFF 		bl	CyIntDisable
ARM GAS  C:\Users\JAVIER~1\AppData\Local\Temp\ccQuJx5a.s 			page 14


 294              	.LVL15:
 449:.\Generated_Source\PSoC4/EZI2C_EZI2C.c **** 
 450:.\Generated_Source\PSoC4/EZI2C_EZI2C.c ****         EZI2C_dataBuffer1 =  buffer;
 295              		.loc 1 450 0
 296 0010 044B     		ldr	r3, .L18
 297 0012 1C60     		str	r4, [r3]
 451:.\Generated_Source\PSoC4/EZI2C_EZI2C.c ****         EZI2C_bufSizeBuf1 = (uint16) bufSize;
 298              		.loc 1 451 0
 299 0014 044B     		ldr	r3, .L18+4
 300 0016 1E80     		strh	r6, [r3]
 452:.\Generated_Source\PSoC4/EZI2C_EZI2C.c ****         EZI2C_protectBuf1 = (uint16) rwBoundary;
 301              		.loc 1 452 0
 302 0018 044B     		ldr	r3, .L18+8
 303 001a 1D80     		strh	r5, [r3]
 453:.\Generated_Source\PSoC4/EZI2C_EZI2C.c **** 
 454:.\Generated_Source\PSoC4/EZI2C_EZI2C.c ****         EZI2C_EnableInt();   /* Release lock */
 304              		.loc 1 454 0
 305 001c 0920     		mov	r0, #9
 306 001e FFF7FEFF 		bl	CyIntEnable
 307              	.LVL16:
 308              	.L16:
 455:.\Generated_Source\PSoC4/EZI2C_EZI2C.c ****     }
 456:.\Generated_Source\PSoC4/EZI2C_EZI2C.c **** }
 309              		.loc 1 456 0
 310              		@ sp needed
 311              	.LVL17:
 312              	.LVL18:
 313              	.LVL19:
 314 0022 70BD     		pop	{r4, r5, r6, pc}
 315              	.L19:
 316              		.align	2
 317              	.L18:
 318 0024 00000000 		.word	EZI2C_dataBuffer1
 319 0028 00000000 		.word	EZI2C_bufSizeBuf1
 320 002c 00000000 		.word	EZI2C_protectBuf1
 321              		.cfi_endproc
 322              	.LFE7:
 323              		.size	EZI2C_EzI2CSetBuffer1, .-EZI2C_EzI2CSetBuffer1
 324              		.section	.text.EZI2C_EzI2CSetReadBoundaryBuffer1,"ax",%progbits
 325              		.align	2
 326              		.global	EZI2C_EzI2CSetReadBoundaryBuffer1
 327              		.code	16
 328              		.thumb_func
 329              		.type	EZI2C_EzI2CSetReadBoundaryBuffer1, %function
 330              	EZI2C_EzI2CSetReadBoundaryBuffer1:
 331              	.LFB8:
 457:.\Generated_Source\PSoC4/EZI2C_EZI2C.c **** 
 458:.\Generated_Source\PSoC4/EZI2C_EZI2C.c **** 
 459:.\Generated_Source\PSoC4/EZI2C_EZI2C.c **** /*******************************************************************************
 460:.\Generated_Source\PSoC4/EZI2C_EZI2C.c **** * Function Name: EZI2C_EzI2CSetReadBoundaryBuffer1
 461:.\Generated_Source\PSoC4/EZI2C_EZI2C.c **** ********************************************************************************
 462:.\Generated_Source\PSoC4/EZI2C_EZI2C.c **** *
 463:.\Generated_Source\PSoC4/EZI2C_EZI2C.c **** * Summary:
 464:.\Generated_Source\PSoC4/EZI2C_EZI2C.c **** *  Sets the read only boundary in the data buffer to be exposed to the I2C
 465:.\Generated_Source\PSoC4/EZI2C_EZI2C.c **** *  master on a primary slave address request.
 466:.\Generated_Source\PSoC4/EZI2C_EZI2C.c **** *
 467:.\Generated_Source\PSoC4/EZI2C_EZI2C.c **** * Parameters:
ARM GAS  C:\Users\JAVIER~1\AppData\Local\Temp\ccQuJx5a.s 			page 15


 468:.\Generated_Source\PSoC4/EZI2C_EZI2C.c **** *  rwBoundry: Sets how many bytes are writeable in the beginning of the buffer.
 469:.\Generated_Source\PSoC4/EZI2C_EZI2C.c **** *             This value must be less than or equal to the buffer size.
 470:.\Generated_Source\PSoC4/EZI2C_EZI2C.c **** *             Data located at offset rwBoundry and greater are read only.
 471:.\Generated_Source\PSoC4/EZI2C_EZI2C.c **** *
 472:.\Generated_Source\PSoC4/EZI2C_EZI2C.c **** * Return:
 473:.\Generated_Source\PSoC4/EZI2C_EZI2C.c **** *  None
 474:.\Generated_Source\PSoC4/EZI2C_EZI2C.c **** *
 475:.\Generated_Source\PSoC4/EZI2C_EZI2C.c **** *******************************************************************************/
 476:.\Generated_Source\PSoC4/EZI2C_EZI2C.c **** void EZI2C_EzI2CSetReadBoundaryBuffer1(uint32 rwBoundary)
 477:.\Generated_Source\PSoC4/EZI2C_EZI2C.c **** {
 332              		.loc 1 477 0
 333              		.cfi_startproc
 334              	.LVL20:
 478:.\Generated_Source\PSoC4/EZI2C_EZI2C.c ****     EZI2C_protectBuf1 = (uint16) rwBoundary;
 335              		.loc 1 478 0
 336 0000 014B     		ldr	r3, .L21
 337 0002 1880     		strh	r0, [r3]
 479:.\Generated_Source\PSoC4/EZI2C_EZI2C.c **** }
 338              		.loc 1 479 0
 339              		@ sp needed
 340 0004 7047     		bx	lr
 341              	.L22:
 342 0006 C046     		.align	2
 343              	.L21:
 344 0008 00000000 		.word	EZI2C_protectBuf1
 345              		.cfi_endproc
 346              	.LFE8:
 347              		.size	EZI2C_EzI2CSetReadBoundaryBuffer1, .-EZI2C_EzI2CSetReadBoundaryBuffer1
 348              		.comm	EZI2C_indexBuf1,2,2
 349              		.comm	EZI2C_offsetBuf1,2,2
 350              		.comm	EZI2C_protectBuf1,2,2
 351              		.comm	EZI2C_bufSizeBuf1,2,2
 352              		.comm	EZI2C_dataBuffer1,4,4
 353              		.comm	EZI2C_fsmState,1,1
 354              		.comm	EZI2C_curStatus,1,1
 355              		.text
 356              	.Letext0:
 357              		.file 2 "Generated_Source\\PSoC4/cytypes.h"
 358              		.file 3 "Generated_Source\\PSoC4/CyLib.h"