ARM GAS  C:\Users\JAVIER~1\AppData\Local\Temp\ccyEBIku.s 			page 1


   1              		.cpu cortex-m0
   2              		.fpu softvfp
   3              		.eabi_attribute 20, 1
   4              		.eabi_attribute 21, 1
   5              		.eabi_attribute 23, 3
   6              		.eabi_attribute 24, 1
   7              		.eabi_attribute 25, 1
   8              		.eabi_attribute 26, 1
   9              		.eabi_attribute 30, 1
  10              		.eabi_attribute 34, 0
  11              		.eabi_attribute 18, 4
  12              		.code	16
  13              		.file	"Gesture.c"
  14              		.text
  15              	.Ltext0:
  16              		.cfi_sections	.debug_frame
  17              		.section	.text.Gestures_CalculateRadius,"ax",%progbits
  18              		.align	2
  19              		.code	16
  20              		.thumb_func
  21              		.type	Gestures_CalculateRadius, %function
  22              	Gestures_CalculateRadius:
  23              	.LFB38:
  24              		.file 1 ".\\Gesture.c"
   1:.\Gesture.c   **** /*******************************************************************************
   2:.\Gesture.c   **** * File Name: Gesture.c
   3:.\Gesture.c   **** *
   4:.\Gesture.c   **** * Version 1.0
   5:.\Gesture.c   **** *
   6:.\Gesture.c   **** * Description: This file contains the CapSense gesture detection logic APIs
   7:.\Gesture.c   **** *
   8:.\Gesture.c   **** *******************************************************************************
   9:.\Gesture.c   **** * Copyright (2015), Cypress Semiconductor Corporation.
  10:.\Gesture.c   **** *******************************************************************************
  11:.\Gesture.c   **** * This software, including source code, documentation and related materials
  12:.\Gesture.c   **** * ("Software") is owned by Cypress Semiconductor Corporation (Cypress) and is
  13:.\Gesture.c   **** * protected by and subject to worldwide patent protection (United States and 
  14:.\Gesture.c   **** * foreign), United States copyright laws and international treaty provisions. 
  15:.\Gesture.c   **** * Cypress hereby grants to licensee a personal, non-exclusive, non-transferable
  16:.\Gesture.c   **** * license to copy, use, modify, create derivative works of, and compile the 
  17:.\Gesture.c   **** * Cypress source code and derivative works for the sole purpose of creating 
  18:.\Gesture.c   **** * custom software in support of licensee product, such licensee product to be
  19:.\Gesture.c   **** * used only in conjunction with Cypress's integrated circuit as specified in the
  20:.\Gesture.c   **** * applicable agreement. Any reproduction, modification, translation, compilation,
  21:.\Gesture.c   **** * or representation of this Software except as specified above is prohibited 
  22:.\Gesture.c   **** * without the express written permission of Cypress.
  23:.\Gesture.c   **** * 
  24:.\Gesture.c   **** * Disclaimer: THIS SOFTWARE IS PROVIDED AS-IS, WITH NO WARRANTY OF ANY KIND, 
  25:.\Gesture.c   **** * EXPRESS OR IMPLIED, INCLUDING, BUT NOT LIMITED TO, NONINFRINGEMENT, IMPLIED 
  26:.\Gesture.c   **** * WARRANTIES OF MERCHANTABILITY AND FITNESS FOR A PARTICULAR PURPOSE.
  27:.\Gesture.c   **** * Cypress reserves the Right to make changes to the Software without notice. 
  28:.\Gesture.c   **** * Cypress does not assume any liability arising out of the application or use
  29:.\Gesture.c   **** * of Software or any product or circuit described in the Software. Cypress does
  30:.\Gesture.c   **** * not authorize its products for use as critical components in any products 
  31:.\Gesture.c   **** * where a malfunction or failure may reasonably be expected to result in 
  32:.\Gesture.c   **** * significant injury or death ("ACTIVE Risk Product"). By including Cypress's 
  33:.\Gesture.c   **** * product in a ACTIVE Risk Product, the manufacturer of such system or application
ARM GAS  C:\Users\JAVIER~1\AppData\Local\Temp\ccyEBIku.s 			page 2


  34:.\Gesture.c   **** * assumes all risk of such use and in doing so indemnifies Cypress against all
  35:.\Gesture.c   **** * liability. Use of this Software may be limited by and subject to the applicable
  36:.\Gesture.c   **** * Cypress software license agreement.
  37:.\Gesture.c   **** *******************************************************************************/
  38:.\Gesture.c   **** 
  39:.\Gesture.c   **** #include "Gesture.h"
  40:.\Gesture.c   **** #include "CapSense_CSHL.h"
  41:.\Gesture.c   **** #include "stdbool.h"
  42:.\Gesture.c   **** #include "stdlib.h"
  43:.\Gesture.c   **** 
  44:.\Gesture.c   **** /*******************************************************************************
  45:.\Gesture.c   **** * 	Global Variable Declarations
  46:.\Gesture.c   **** *******************************************************************************/
  47:.\Gesture.c   **** 
  48:.\Gesture.c   **** /* The centroid of the radial slider from the current scan is stored in this 
  49:.\Gesture.c   ****  * variable. 
  50:.\Gesture.c   ****  */
  51:.\Gesture.c   **** uint16 sliderCentroid;
  52:.\Gesture.c   **** 
  53:.\Gesture.c   **** /* Accumulated theta and radius during CapSense activity on the Gesture Pad*/
  54:.\Gesture.c   **** int32 accRadius, accTheta;
  55:.\Gesture.c   **** 
  56:.\Gesture.c   **** /* Status of various segments */
  57:.\Gesture.c   **** uint32 capsenseButtonStatus;
  58:.\Gesture.c   **** 
  59:.\Gesture.c   **** /* X and Y coordinates from Gesture Pad radius and theta */
  60:.\Gesture.c   **** int32 xPos, yPos;
  61:.\Gesture.c   **** 
  62:.\Gesture.c   **** /* Polar coordinates - Radius and theta */
  63:.\Gesture.c   **** uint32 radius;
  64:.\Gesture.c   **** int32 theta;
  65:.\Gesture.c   **** 
  66:.\Gesture.c   **** /*******************************************************************************
  67:.\Gesture.c   **** * 	Static Variable Declarations
  68:.\Gesture.c   **** *******************************************************************************/
  69:.\Gesture.c   **** 
  70:.\Gesture.c   **** /* Constants used in various functions for lookup */
  71:.\Gesture.c   **** const int16 sinLookUp[] = {0,
  72:.\Gesture.c   **** 9,
  73:.\Gesture.c   **** 18,
  74:.\Gesture.c   **** 27,
  75:.\Gesture.c   **** 36,
  76:.\Gesture.c   **** 44,
  77:.\Gesture.c   **** 53,
  78:.\Gesture.c   **** 62,
  79:.\Gesture.c   **** 71,
  80:.\Gesture.c   **** 79,
  81:.\Gesture.c   **** 88,
  82:.\Gesture.c   **** 96,
  83:.\Gesture.c   **** 104,
  84:.\Gesture.c   **** 112,
  85:.\Gesture.c   **** 120,
  86:.\Gesture.c   **** 128,
  87:.\Gesture.c   **** 136,
  88:.\Gesture.c   **** 143,
  89:.\Gesture.c   **** 150,
  90:.\Gesture.c   **** 158,
ARM GAS  C:\Users\JAVIER~1\AppData\Local\Temp\ccyEBIku.s 			page 3


  91:.\Gesture.c   **** 165,
  92:.\Gesture.c   **** 171,
  93:.\Gesture.c   **** 178,
  94:.\Gesture.c   **** 184,
  95:.\Gesture.c   **** 190,
  96:.\Gesture.c   **** 196,
  97:.\Gesture.c   **** 202,
  98:.\Gesture.c   **** 207,
  99:.\Gesture.c   **** 212,
 100:.\Gesture.c   **** 217,
 101:.\Gesture.c   **** 222,
 102:.\Gesture.c   **** 226,
 103:.\Gesture.c   **** 230,
 104:.\Gesture.c   **** 234,
 105:.\Gesture.c   **** 237,
 106:.\Gesture.c   **** 241,
 107:.\Gesture.c   **** 243,
 108:.\Gesture.c   **** 246,
 109:.\Gesture.c   **** 248,
 110:.\Gesture.c   **** 250,
 111:.\Gesture.c   **** 252,
 112:.\Gesture.c   **** 254,
 113:.\Gesture.c   **** 255,
 114:.\Gesture.c   **** 255,
 115:.\Gesture.c   **** 256,
 116:.\Gesture.c   **** 256,
 117:.\Gesture.c   **** };
 118:.\Gesture.c   **** const uint32 sectorLookup[] = {SECTOR_0_WEIGHT, SECTOR_1_WEIGHT, SECTOR_2_WEIGHT, SECTOR_3_WEIGHT, 
 119:.\Gesture.c   **** const uint32 sectorToButtonLookup[] = {CENTRE_BTN_MASK, UP_BTN_MASK, LEFT_BTN_MASK, DOWN_BTN_MASK, 
 120:.\Gesture.c   **** 
 121:.\Gesture.c   **** /*******************************************************************************
 122:.\Gesture.c   **** * 	Global Function Prototypes
 123:.\Gesture.c   **** *******************************************************************************/
 124:.\Gesture.c   **** 
 125:.\Gesture.c   **** int32 Gestures_CalculateY(uint32 radius, int32 theta);
 126:.\Gesture.c   **** int32 Gestures_CalculateX(uint32 radius, int32 theta);
 127:.\Gesture.c   **** tGestureId DetectGesture(uint8 isAnySensorActive);
 128:.\Gesture.c   **** 
 129:.\Gesture.c   **** /*******************************************************************************
 130:.\Gesture.c   **** * 	Local Function Prototypes
 131:.\Gesture.c   **** *******************************************************************************/
 132:.\Gesture.c   **** 
 133:.\Gesture.c   **** static uint32 Gestures_ValidateButtons(uint32 buttonStatus, uint32 sliderSector);
 134:.\Gesture.c   **** static int32 Gestures_CalculateTheta(uint32 buttonStatus, int32 sliderPos);
 135:.\Gesture.c   **** static uint32 Gestures_CalculateRadius(uint32 buttonStatus);
 136:.\Gesture.c   **** static tGestureId Gestures_Process(uint32 radius, int32 theta);
 137:.\Gesture.c   **** 
 138:.\Gesture.c   **** /*******************************************************************************
 139:.\Gesture.c   **** * Function Name: DetectGesture
 140:.\Gesture.c   **** ********************************************************************************
 141:.\Gesture.c   **** *
 142:.\Gesture.c   **** * Summary:
 143:.\Gesture.c   **** * This function implements the gesture detection logic. 
 144:.\Gesture.c   **** *
 145:.\Gesture.c   **** * Parameters:
 146:.\Gesture.c   **** * isAnySensorActive - Indicates if user touch is present or not.
 147:.\Gesture.c   **** * 1 - if any of the sensors (5 buttons and 8 slider elements) is active.
ARM GAS  C:\Users\JAVIER~1\AppData\Local\Temp\ccyEBIku.s 			page 4


 148:.\Gesture.c   **** * 0 - If none of the sensors is active.
 149:.\Gesture.c   **** *
 150:.\Gesture.c   **** * Return:
 151:.\Gesture.c   **** * tGestureId - Id of the gesture detected. 
 152:.\Gesture.c   **** *
 153:.\Gesture.c   **** * Theory:
 154:.\Gesture.c   **** * This function waits until MAX_SCAN_COUNT number of unique sensor touches are
 155:.\Gesture.c   **** * found or the touch is released before identifying the gesture. 
 156:.\Gesture.c   **** *
 157:.\Gesture.c   **** *******************************************************************************/
 158:.\Gesture.c   **** tGestureId DetectGesture(uint8 isAnySensorActive)
 159:.\Gesture.c   **** {	
 160:.\Gesture.c   **** 	tGestureId gestureId;
 161:.\Gesture.c   **** 	uint32 buttonStatus = 0, sliderSector = 0, sliderPos = 0;	
 162:.\Gesture.c   **** 	
 163:.\Gesture.c   **** 	/* If any sensor is active, get the status of various CapSense elements */
 164:.\Gesture.c   **** 	if(isAnySensorActive)
 165:.\Gesture.c   **** 	{
 166:.\Gesture.c   **** 		/* Read the status of LEFT, RIGHT, UP, DOWN and CENTRE buttons  */
 167:.\Gesture.c   **** 		buttonStatus = CapSense_sensorOnMask[0] & (LEFT_BTN_MASK | RIGHT_BTN_MASK | UP_BTN_MASK | DOWN_BT
 168:.\Gesture.c   **** 	}
 169:.\Gesture.c   **** 	
 170:.\Gesture.c   **** 	/* Read the slider status */
 171:.\Gesture.c   **** 	sliderPos = CapSense_GetRadialCentroidPos(CapSense_RADIALSLIDER0__RS);
 172:.\Gesture.c   **** 	
 173:.\Gesture.c   **** 	/* If slider is active, process slider position */
 174:.\Gesture.c   **** 	if(sliderPos != 0xFFFF)
 175:.\Gesture.c   **** 	{
 176:.\Gesture.c   **** 		/* Update slider active status to the button status */
 177:.\Gesture.c   **** 		buttonStatus |= SLIDER_ACT_MASK;
 178:.\Gesture.c   **** 		
 179:.\Gesture.c   **** 		/* Find the sector in which finger is present */
 180:.\Gesture.c   **** 		sliderSector = sliderPos/ANGLE_45;	
 181:.\Gesture.c   **** 		
 182:.\Gesture.c   **** 		/* Radial slider offset correction to provide a more accurate theta */
 183:.\Gesture.c   **** 		if(sliderPos < ANGLE_90)
 184:.\Gesture.c   **** 		{
 185:.\Gesture.c   **** 			sliderPos = sliderPos + 10;		
 186:.\Gesture.c   **** 		}
 187:.\Gesture.c   **** 	}
 188:.\Gesture.c   **** 	else
 189:.\Gesture.c   **** 	{
 190:.\Gesture.c   **** 		/* Clear slider active status */
 191:.\Gesture.c   **** 		buttonStatus &= ~SLIDER_ACT_MASK;
 192:.\Gesture.c   **** 	}
 193:.\Gesture.c   **** 	
 194:.\Gesture.c   **** 	/* Validate the buttons pressed and update the status with valid button presses */
 195:.\Gesture.c   **** 	buttonStatus = Gestures_ValidateButtons(buttonStatus, sliderSector);
 196:.\Gesture.c   **** 	
 197:.\Gesture.c   **** 	/* Get radius and theta from active buttons and slider position */
 198:.\Gesture.c   **** 	radius = Gestures_CalculateRadius(buttonStatus);
 199:.\Gesture.c   **** 	theta = Gestures_CalculateTheta(buttonStatus, sliderPos);
 200:.\Gesture.c   **** 	
 201:.\Gesture.c   **** 	/* Obtain the gesture from theta and radius */
 202:.\Gesture.c   **** 	gestureId = Gestures_Process(radius, theta);
 203:.\Gesture.c   **** 	
 204:.\Gesture.c   **** 	#ifdef CALCULATE_X_Y_IN_GES
ARM GAS  C:\Users\JAVIER~1\AppData\Local\Temp\ccyEBIku.s 			page 5


 205:.\Gesture.c   **** 		/* Calculate the Cartesian coordinates from Polar coordinates - provided a valid angle is detecte
 206:.\Gesture.c   **** 		if(theta != INVALID_ANGLE)
 207:.\Gesture.c   **** 		{
 208:.\Gesture.c   **** 			xPos = Gestures_CalculateX(radius, theta);
 209:.\Gesture.c   **** 			yPos = Gestures_CalculateY(radius, theta);
 210:.\Gesture.c   **** 		}
 211:.\Gesture.c   **** 		else
 212:.\Gesture.c   **** 		{
 213:.\Gesture.c   **** 			xPos = 0;
 214:.\Gesture.c   **** 			yPos = 0;
 215:.\Gesture.c   **** 		}
 216:.\Gesture.c   **** 	#endif
 217:.\Gesture.c   **** 	
 218:.\Gesture.c   **** 	return gestureId;		
 219:.\Gesture.c   **** }
 220:.\Gesture.c   **** 
 221:.\Gesture.c   **** /*******************************************************************************
 222:.\Gesture.c   **** * Function Name: Gestures_ValidateButtons
 223:.\Gesture.c   **** ********************************************************************************
 224:.\Gesture.c   **** *
 225:.\Gesture.c   **** * Summary:
 226:.\Gesture.c   **** * This function validates the button and slider active status and returns the 
 227:.\Gesture.c   **** *	validated output. 
 228:.\Gesture.c   **** *
 229:.\Gesture.c   **** * Parameters:
 230:.\Gesture.c   **** *  buttonStatus - status of various buttons, refer to Gesture.h for various
 231:.\Gesture.c   **** *					masks
 232:.\Gesture.c   **** *  sliderSector - sector of the slider which is active (slider divided
 233:.\Gesture.c   **** *                   into four sectors)
 234:.\Gesture.c   **** *
 235:.\Gesture.c   **** * Return:
 236:.\Gesture.c   **** * uint32 - validated button status
 237:.\Gesture.c   **** *
 238:.\Gesture.c   **** *******************************************************************************/
 239:.\Gesture.c   **** uint32 Gestures_ValidateButtons(uint32 buttonStatus, uint32 sliderSector)
 240:.\Gesture.c   **** {
 241:.\Gesture.c   **** 	static uint32 prevButtonStatus;
 242:.\Gesture.c   **** 	
 243:.\Gesture.c   **** 	/* If both slider and centre button are active, slider gets preference
 244:.\Gesture.c   **** 		Only one of these two can be activated in the design */
 245:.\Gesture.c   **** 	if((buttonStatus & SLIDER_ACT_MASK) && (buttonStatus & CENTRE_BTN_MASK))
 246:.\Gesture.c   **** 	{
 247:.\Gesture.c   **** 		buttonStatus &= ~ CENTRE_BTN_MASK;		
 248:.\Gesture.c   **** 	}
 249:.\Gesture.c   **** 	
 250:.\Gesture.c   **** 	/* If both left and right button are active, analyze and report only the
 251:.\Gesture.c   **** 		more probable button */
 252:.\Gesture.c   **** 	if((buttonStatus & LEFT_BTN_MASK) && (buttonStatus & RIGHT_BTN_MASK))
 253:.\Gesture.c   **** 	{
 254:.\Gesture.c   **** 		/* If slider is active, then check the sector of slider is referred to 
 255:.\Gesture.c   **** 			decide the button to be reported */
 256:.\Gesture.c   **** 		if(buttonStatus & SLIDER_ACT_MASK)
 257:.\Gesture.c   **** 		{
 258:.\Gesture.c   **** 			if((sliderSector & SLIDER_4_SECTOR_MASK) == SECTOR_LEFT) 
 259:.\Gesture.c   **** 			/* Clear Right button mask if slider sector is left */
 260:.\Gesture.c   **** 			{
 261:.\Gesture.c   **** 				buttonStatus &= ~RIGHT_BTN_MASK;
ARM GAS  C:\Users\JAVIER~1\AppData\Local\Temp\ccyEBIku.s 			page 6


 262:.\Gesture.c   **** 			}
 263:.\Gesture.c   **** 			else if((sliderSector & SLIDER_4_SECTOR_MASK) == SECTOR_RIGHT)
 264:.\Gesture.c   **** 			/* Clear Left button mask if slider sector is Right */
 265:.\Gesture.c   **** 			{
 266:.\Gesture.c   **** 				buttonStatus &= ~LEFT_BTN_MASK;
 267:.\Gesture.c   **** 			}
 268:.\Gesture.c   **** 			else
 269:.\Gesture.c   **** 			/* Retain the previous button status if slider sector is neither left nor right */
 270:.\Gesture.c   **** 			{
 271:.\Gesture.c   **** 				buttonStatus &= ~(LEFT_BTN_MASK | RIGHT_BTN_MASK);
 272:.\Gesture.c   **** 				buttonStatus |= prevButtonStatus & (LEFT_BTN_MASK | RIGHT_BTN_MASK);
 273:.\Gesture.c   **** 			}
 274:.\Gesture.c   **** 		}
 275:.\Gesture.c   **** 		else
 276:.\Gesture.c   **** 		/* If slider is not active, use button signal to decide the button */
 277:.\Gesture.c   **** 		{
 278:.\Gesture.c   **** 			if(GetSignal(LEFT_BTN_ID) > GetSignal(RIGHT_BTN_ID))
 279:.\Gesture.c   **** 			{
 280:.\Gesture.c   **** 				buttonStatus &= ~RIGHT_BTN_MASK;
 281:.\Gesture.c   **** 			}
 282:.\Gesture.c   **** 			else if(GetSignal(LEFT_BTN_ID) < GetSignal(RIGHT_BTN_ID))
 283:.\Gesture.c   **** 			{
 284:.\Gesture.c   **** 				buttonStatus &= ~LEFT_BTN_MASK;
 285:.\Gesture.c   **** 			}
 286:.\Gesture.c   **** 			else
 287:.\Gesture.c   **** 			{
 288:.\Gesture.c   **** 				buttonStatus &= ~(LEFT_BTN_MASK | RIGHT_BTN_MASK);
 289:.\Gesture.c   **** 				buttonStatus |= prevButtonStatus & (LEFT_BTN_MASK | RIGHT_BTN_MASK);
 290:.\Gesture.c   **** 			}
 291:.\Gesture.c   **** 		}
 292:.\Gesture.c   **** 	}
 293:.\Gesture.c   **** 	
 294:.\Gesture.c   **** 	/* Same logic as Left/Right button for Up/Down button as well */
 295:.\Gesture.c   **** 	if((buttonStatus & UP_BTN_MASK) && (buttonStatus & DOWN_BTN_MASK))
 296:.\Gesture.c   **** 	{
 297:.\Gesture.c   **** 		if(buttonStatus & SLIDER_ACT_MASK)
 298:.\Gesture.c   **** 		{
 299:.\Gesture.c   **** 			if((sliderSector & SLIDER_4_SECTOR_MASK) == SECTOR_UP)
 300:.\Gesture.c   **** 			{
 301:.\Gesture.c   **** 				buttonStatus &= ~DOWN_BTN_MASK;
 302:.\Gesture.c   **** 			}
 303:.\Gesture.c   **** 			else if((sliderSector & SLIDER_4_SECTOR_MASK) == SECTOR_DOWN)
 304:.\Gesture.c   **** 			{
 305:.\Gesture.c   **** 				buttonStatus &= ~UP_BTN_MASK;
 306:.\Gesture.c   **** 			}
 307:.\Gesture.c   **** 			else
 308:.\Gesture.c   **** 			{
 309:.\Gesture.c   **** 				buttonStatus &= ~(UP_BTN_MASK | DOWN_BTN_MASK);
 310:.\Gesture.c   **** 				buttonStatus |= prevButtonStatus & (UP_BTN_MASK | DOWN_BTN_MASK);
 311:.\Gesture.c   **** 			}
 312:.\Gesture.c   **** 		}
 313:.\Gesture.c   **** 		else
 314:.\Gesture.c   **** 		{
 315:.\Gesture.c   **** 			if(GetSignal(UP_BTN_ID) > GetSignal(DOWN_BTN_ID))
 316:.\Gesture.c   **** 			{
 317:.\Gesture.c   **** 				buttonStatus &= ~DOWN_BTN_MASK;
 318:.\Gesture.c   **** 			}
ARM GAS  C:\Users\JAVIER~1\AppData\Local\Temp\ccyEBIku.s 			page 7


 319:.\Gesture.c   **** 			else if(GetSignal(UP_BTN_ID) < GetSignal(DOWN_BTN_ID))
 320:.\Gesture.c   **** 			{
 321:.\Gesture.c   **** 				buttonStatus &= ~UP_BTN_MASK;
 322:.\Gesture.c   **** 			}
 323:.\Gesture.c   **** 			else
 324:.\Gesture.c   **** 			{
 325:.\Gesture.c   **** 				buttonStatus &= ~(UP_BTN_MASK | DOWN_BTN_MASK);
 326:.\Gesture.c   **** 				buttonStatus |= prevButtonStatus & (UP_BTN_MASK | DOWN_BTN_MASK);
 327:.\Gesture.c   **** 			}
 328:.\Gesture.c   **** 		}
 329:.\Gesture.c   **** 	}
 330:.\Gesture.c   **** 	
 331:.\Gesture.c   **** 	/* Store current buttonStatus to previous button status for next cycle */
 332:.\Gesture.c   **** 	prevButtonStatus = buttonStatus;
 333:.\Gesture.c   **** 	
 334:.\Gesture.c   **** 	/* Return the validated button status */
 335:.\Gesture.c   **** 	return	buttonStatus;
 336:.\Gesture.c   **** }
 337:.\Gesture.c   **** 
 338:.\Gesture.c   **** 
 339:.\Gesture.c   **** /*******************************************************************************
 340:.\Gesture.c   **** * Function Name: Gestures_CalculateRadius
 341:.\Gesture.c   **** ********************************************************************************
 342:.\Gesture.c   **** *
 343:.\Gesture.c   **** * Summary:
 344:.\Gesture.c   **** * This function calculates the radius of active point on the Gesture Pad 
 345:.\Gesture.c   **** *
 346:.\Gesture.c   **** * Parameters:
 347:.\Gesture.c   **** *  buttonStatus - status of various buttons, refer to Gesture.h for various
 348:.\Gesture.c   **** *					masks
 349:.\Gesture.c   **** *
 350:.\Gesture.c   **** * Return:
 351:.\Gesture.c   **** * uint32 - calculated radius (valid range 0 to 4)
 352:.\Gesture.c   **** *
 353:.\Gesture.c   **** *******************************************************************************/
 354:.\Gesture.c   **** uint32 Gestures_CalculateRadius(uint32 buttonStatus)
 355:.\Gesture.c   **** {
  25              		.loc 1 355 0
  26              		.cfi_startproc
  27              	.LVL0:
 356:.\Gesture.c   **** 	uint32 radius = INVALID_RADIUS;
 357:.\Gesture.c   **** 	
 358:.\Gesture.c   **** 	/* Check if slider is active */
 359:.\Gesture.c   **** 	if(buttonStatus & SLIDER_ACT_MASK)
  28              		.loc 1 359 0
  29 0000 8306     		lsl	r3, r0, #26
  30 0002 03D5     		bpl	.L2
 360:.\Gesture.c   **** 	{
 361:.\Gesture.c   **** 		/* If slider is active then 
 362:.\Gesture.c   ****             1. radius = 3, if any of the LEFT/RIGHT/UP/DOWN buttons are active
 363:.\Gesture.c   ****             2. radius = 4, if ONLY slider is active */
 364:.\Gesture.c   **** 		if(buttonStatus & (LEFT_BTN_MASK | RIGHT_BTN_MASK | UP_BTN_MASK | DOWN_BTN_MASK))
  31              		.loc 1 364 0
  32 0004 0307     		lsl	r3, r0, #28
  33 0006 0BD0     		beq	.L5
 365:.\Gesture.c   **** 		{
 366:.\Gesture.c   **** 			radius = 3;
ARM GAS  C:\Users\JAVIER~1\AppData\Local\Temp\ccyEBIku.s 			page 8


  34              		.loc 1 366 0
  35 0008 0320     		mov	r0, #3
  36              	.LVL1:
  37 000a 0EE0     		b	.L3
  38              	.LVL2:
  39              	.L2:
 367:.\Gesture.c   **** 		}
 368:.\Gesture.c   **** 		else
 369:.\Gesture.c   **** 		{
 370:.\Gesture.c   **** 			radius = 4;
 371:.\Gesture.c   **** 		}
 372:.\Gesture.c   **** 	}
 373:.\Gesture.c   **** 	/* Check if centre button is active */
 374:.\Gesture.c   **** 	else if(buttonStatus & CENTRE_BTN_MASK)
  40              		.loc 1 374 0
  41 000c C306     		lsl	r3, r0, #27
  42 000e 03D5     		bpl	.L4
 375:.\Gesture.c   **** 	{
 376:.\Gesture.c   **** 		/* If centre button is active then 
 377:.\Gesture.c   ****             1. radius = 1, if any of the LEFT/RIGHT/UP/DOWN buttons are active
 378:.\Gesture.c   **** 		    2. radius = 0, if ONLY centre button is active */
 379:.\Gesture.c   **** 		if(buttonStatus & (LEFT_BTN_MASK | RIGHT_BTN_MASK | UP_BTN_MASK | DOWN_BTN_MASK))
  43              		.loc 1 379 0
  44 0010 0307     		lsl	r3, r0, #28
  45 0012 07D0     		beq	.L6
 380:.\Gesture.c   **** 		{
 381:.\Gesture.c   **** 			radius = 1;
  46              		.loc 1 381 0
  47 0014 0120     		mov	r0, #1
  48              	.LVL3:
  49 0016 08E0     		b	.L3
  50              	.LVL4:
  51              	.L4:
 382:.\Gesture.c   **** 		}
 383:.\Gesture.c   **** 		else
 384:.\Gesture.c   **** 		{
 385:.\Gesture.c   **** 			radius = 0;
 386:.\Gesture.c   **** 		}
 387:.\Gesture.c   **** 	}
 388:.\Gesture.c   **** 	else if(buttonStatus != 0)
  52              		.loc 1 388 0
  53 0018 0028     		cmp	r0, #0
  54 001a 05D1     		bne	.L7
 356:.\Gesture.c   **** 	
  55              		.loc 1 356 0
  56 001c FF30     		add	r0, r0, #255
  57              	.LVL5:
  58 001e 04E0     		b	.L3
  59              	.LVL6:
  60              	.L5:
 370:.\Gesture.c   **** 		}
  61              		.loc 1 370 0
  62 0020 0420     		mov	r0, #4
  63              	.LVL7:
  64 0022 02E0     		b	.L3
  65              	.LVL8:
  66              	.L6:
ARM GAS  C:\Users\JAVIER~1\AppData\Local\Temp\ccyEBIku.s 			page 9


 385:.\Gesture.c   **** 		}
  67              		.loc 1 385 0
  68 0024 0020     		mov	r0, #0
  69              	.LVL9:
  70 0026 00E0     		b	.L3
  71              	.LVL10:
  72              	.L7:
 389:.\Gesture.c   **** 	{
 390:.\Gesture.c   **** 		/* radius = 2, if neither slider nor centre button is active */
 391:.\Gesture.c   **** 		radius = 2;
  73              		.loc 1 391 0
  74 0028 0220     		mov	r0, #2
  75              	.LVL11:
  76              	.L3:
 392:.\Gesture.c   **** 	}
 393:.\Gesture.c   **** 	
 394:.\Gesture.c   **** 	return radius;
 395:.\Gesture.c   **** }
  77              		.loc 1 395 0
  78              		@ sp needed
  79 002a 7047     		bx	lr
  80              		.cfi_endproc
  81              	.LFE38:
  82              		.size	Gestures_CalculateRadius, .-Gestures_CalculateRadius
  83              		.section	.text.Gestures_CalculateTheta,"ax",%progbits
  84              		.align	2
  85              		.code	16
  86              		.thumb_func
  87              		.type	Gestures_CalculateTheta, %function
  88              	Gestures_CalculateTheta:
  89              	.LFB39:
 396:.\Gesture.c   **** 
 397:.\Gesture.c   **** /*******************************************************************************
 398:.\Gesture.c   **** * Function Name: Gestures_CalculateTheta
 399:.\Gesture.c   **** ********************************************************************************
 400:.\Gesture.c   **** *
 401:.\Gesture.c   **** * Summary:
 402:.\Gesture.c   **** * This function calculates the theta of active point on the Gesture Pad 
 403:.\Gesture.c   **** *
 404:.\Gesture.c   **** * Parameters:
 405:.\Gesture.c   **** *  buttonStatus - status of various buttons, refer to Gesture.h for various
 406:.\Gesture.c   **** *					masks
 407:.\Gesture.c   **** *  sliderPos - position of finger on slider
 408:.\Gesture.c   **** *
 409:.\Gesture.c   **** * Return:
 410:.\Gesture.c   **** * int32 - calculated theta (valid range -90 to 90); 1 count = 2 degrees;
 411:.\Gesture.c   **** *
 412:.\Gesture.c   **** *******************************************************************************/
 413:.\Gesture.c   **** int32 Gestures_CalculateTheta(uint32 buttonStatus, int32 sliderPos)
 414:.\Gesture.c   **** {
  90              		.loc 1 414 0
  91              		.cfi_startproc
  92              	.LVL12:
 415:.\Gesture.c   **** 	int32 theta = INVALID_ANGLE;
 416:.\Gesture.c   **** 	
 417:.\Gesture.c   **** 	/* If slider is active, theta is calculated from the slider centroid */
 418:.\Gesture.c   **** 	if(buttonStatus & SLIDER_ACT_MASK)
ARM GAS  C:\Users\JAVIER~1\AppData\Local\Temp\ccyEBIku.s 			page 10


  93              		.loc 1 418 0
  94 0000 8306     		lsl	r3, r0, #26
  95 0002 03D5     		bpl	.L9
 419:.\Gesture.c   **** 	{
 420:.\Gesture.c   **** 		/* theta is in the range of -90 to 90 (-180 degrees to +180 degrees), hence adjust slider output 
 421:.\Gesture.c   **** 			with respect to mid position to get -90 to 90 output for theta */
 422:.\Gesture.c   **** 		if(sliderPos > SLIDER_MID_POS)
  96              		.loc 1 422 0
  97 0004 5A29     		cmp	r1, #90
  98 0006 24DD     		ble	.L10
 423:.\Gesture.c   **** 		{
 424:.\Gesture.c   **** 			theta = sliderPos - SLIDER_RESOLUTION;
  99              		.loc 1 424 0
 100 0008 B439     		sub	r1, r1, #180
 101              	.LVL13:
 102 000a 22E0     		b	.L10
 103              	.LVL14:
 104              	.L9:
 425:.\Gesture.c   **** 		}
 426:.\Gesture.c   **** 		else
 427:.\Gesture.c   **** 		{
 428:.\Gesture.c   **** 			theta = sliderPos;
 429:.\Gesture.c   **** 		}
 430:.\Gesture.c   **** 	}
 431:.\Gesture.c   **** 	/* If slider is not active, check any of LEFT/RIGHT/UP/DOWN is active */
 432:.\Gesture.c   **** 	else if(buttonStatus & (LEFT_BTN_MASK | RIGHT_BTN_MASK | UP_BTN_MASK | DOWN_BTN_MASK))
 105              		.loc 1 432 0
 106 000c 0F23     		mov	r3, #15
 107 000e 0340     		and	r3, r0
 108 0010 18D0     		beq	.L11
 433:.\Gesture.c   **** 	{
 434:.\Gesture.c   **** 		/* Based on the combination of active buttons between LEFT/RIGHT/UP/DOWN, report theta */
 435:.\Gesture.c   **** 		switch(buttonStatus & (LEFT_BTN_MASK | RIGHT_BTN_MASK | UP_BTN_MASK | DOWN_BTN_MASK))
 109              		.loc 1 435 0
 110 0012 0A2B     		cmp	r3, #10
 111 0014 14D8     		bhi	.L12
 112 0016 9B00     		lsl	r3, r3, #2
 113 0018 0F4A     		ldr	r2, .L23
 114 001a D358     		ldr	r3, [r2, r3]
 115 001c 9F46     		mov	pc, r3
 116              		.section	.rodata
 117              		.align	2
 118              	.L14:
 119 0000 40000000 		.word	.L12
 120 0004 1E000000 		.word	.L13
 121 0008 2E000000 		.word	.L15
 122 000c 40000000 		.word	.L12
 123 0010 26000000 		.word	.L16
 124 0014 22000000 		.word	.L17
 125 0018 2A000000 		.word	.L18
 126 001c 40000000 		.word	.L12
 127 0020 3A000000 		.word	.L19
 128 0024 4C000000 		.word	.L21
 129 0028 34000000 		.word	.L20
 130              		.section	.text.Gestures_CalculateTheta
 131              	.L13:
 436:.\Gesture.c   **** 		{
ARM GAS  C:\Users\JAVIER~1\AppData\Local\Temp\ccyEBIku.s 			page 11


 437:.\Gesture.c   **** 			/* Only LEFT active, theta = 135 degree */
 438:.\Gesture.c   **** 			case (LEFT_BTN_MASK):
 439:.\Gesture.c   **** 				theta = ANGLE_135;
 132              		.loc 1 439 0
 133 001e 4321     		mov	r1, #67
 134              	.LVL15:
 135 0020 17E0     		b	.L10
 136              	.LVL16:
 137              	.L17:
 440:.\Gesture.c   **** 			break;
 441:.\Gesture.c   **** 			
 442:.\Gesture.c   **** 			/* LEFT and DOWN active, theta = 180 degree */
 443:.\Gesture.c   **** 			case (LEFT_BTN_MASK | DOWN_BTN_MASK):
 444:.\Gesture.c   **** 				theta = ANGLE_180;
 445:.\Gesture.c   **** 			break;
 446:.\Gesture.c   **** 			
 447:.\Gesture.c   **** 			/* LEFT and UP active, theta = 90 degree */
 448:.\Gesture.c   **** 			case (LEFT_BTN_MASK | UP_BTN_MASK):
 449:.\Gesture.c   **** 				theta = ANGLE_90;
 138              		.loc 1 449 0
 139 0022 2D21     		mov	r1, #45
 140              	.LVL17:
 450:.\Gesture.c   **** 			break;
 141              		.loc 1 450 0
 142 0024 15E0     		b	.L10
 143              	.LVL18:
 144              	.L16:
 451:.\Gesture.c   **** 			
 452:.\Gesture.c   **** 			/* Only UP active, theta = 45 degree */
 453:.\Gesture.c   **** 			case (UP_BTN_MASK):
 454:.\Gesture.c   **** 				theta = ANGLE_45;
 145              		.loc 1 454 0
 146 0026 1621     		mov	r1, #22
 147              	.LVL19:
 455:.\Gesture.c   **** 			break;
 148              		.loc 1 455 0
 149 0028 13E0     		b	.L10
 150              	.LVL20:
 151              	.L18:
 456:.\Gesture.c   **** 			
 457:.\Gesture.c   **** 			/* RIGHT and UP active, theta = 0 degree */
 458:.\Gesture.c   **** 			case (RIGHT_BTN_MASK | UP_BTN_MASK ):
 459:.\Gesture.c   **** 				theta = ANGLE_0;
 152              		.loc 1 459 0
 153 002a 0021     		mov	r1, #0
 154              	.LVL21:
 460:.\Gesture.c   **** 			break;
 155              		.loc 1 460 0
 156 002c 11E0     		b	.L10
 157              	.LVL22:
 158              	.L15:
 461:.\Gesture.c   **** 			
 462:.\Gesture.c   **** 			/* Only RIGHT active, theta = -45 degree */
 463:.\Gesture.c   **** 			case (RIGHT_BTN_MASK):
 464:.\Gesture.c   **** 				theta = -ANGLE_45;
 159              		.loc 1 464 0
 160 002e 1621     		mov	r1, #22
ARM GAS  C:\Users\JAVIER~1\AppData\Local\Temp\ccyEBIku.s 			page 12


 161              	.LVL23:
 162 0030 4942     		neg	r1, r1
 465:.\Gesture.c   **** 			break;
 163              		.loc 1 465 0
 164 0032 0EE0     		b	.L10
 165              	.LVL24:
 166              	.L20:
 466:.\Gesture.c   **** 			
 467:.\Gesture.c   **** 			/* RIGHT and DOWN active, theta = -90 degree */
 468:.\Gesture.c   **** 			case (RIGHT_BTN_MASK | DOWN_BTN_MASK):
 469:.\Gesture.c   **** 				theta = -ANGLE_90;
 167              		.loc 1 469 0
 168 0034 2D21     		mov	r1, #45
 169              	.LVL25:
 170 0036 4942     		neg	r1, r1
 470:.\Gesture.c   **** 			break;
 171              		.loc 1 470 0
 172 0038 0BE0     		b	.L10
 173              	.LVL26:
 174              	.L19:
 471:.\Gesture.c   **** 			
 472:.\Gesture.c   **** 			/* Only DOWN active, theta = -135 degree */
 473:.\Gesture.c   **** 			case (DOWN_BTN_MASK):
 474:.\Gesture.c   **** 				theta = -ANGLE_135;
 175              		.loc 1 474 0
 176 003a 4321     		mov	r1, #67
 177              	.LVL27:
 178 003c 4942     		neg	r1, r1
 475:.\Gesture.c   **** 			break;
 179              		.loc 1 475 0
 180 003e 08E0     		b	.L10
 181              	.LVL28:
 182              	.L12:
 476:.\Gesture.c   **** 			
 477:.\Gesture.c   **** 			/* For any other combination, theta is not valid */
 478:.\Gesture.c   **** 			default:
 479:.\Gesture.c   **** 				theta = INVALID_ANGLE;
 183              		.loc 1 479 0
 184 0040 FA21     		mov	r1, #250
 185              	.LVL29:
 480:.\Gesture.c   **** 			break;
 186              		.loc 1 480 0
 187 0042 06E0     		b	.L10
 188              	.LVL30:
 189              	.L11:
 481:.\Gesture.c   **** 		}
 482:.\Gesture.c   **** 		
 483:.\Gesture.c   **** 	}
 484:.\Gesture.c   **** 	/* If only CENTRE button is active, theta = 0 */
 485:.\Gesture.c   **** 	else if(buttonStatus != 0)
 190              		.loc 1 485 0
 191 0044 0028     		cmp	r0, #0
 192 0046 03D1     		bne	.L22
 415:.\Gesture.c   **** 	
 193              		.loc 1 415 0
 194 0048 FA21     		mov	r1, #250
 195              	.LVL31:
ARM GAS  C:\Users\JAVIER~1\AppData\Local\Temp\ccyEBIku.s 			page 13


 196 004a 02E0     		b	.L10
 197              	.LVL32:
 198              	.L21:
 444:.\Gesture.c   **** 			break;
 199              		.loc 1 444 0
 200 004c 5A21     		mov	r1, #90
 201              	.LVL33:
 202 004e 00E0     		b	.L10
 203              	.LVL34:
 204              	.L22:
 486:.\Gesture.c   **** 	{
 487:.\Gesture.c   **** 		theta = 0;
 205              		.loc 1 487 0
 206 0050 0021     		mov	r1, #0
 207              	.LVL35:
 208              	.L10:
 488:.\Gesture.c   **** 	}
 489:.\Gesture.c   **** 	
 490:.\Gesture.c   **** 	return theta;
 491:.\Gesture.c   **** }
 209              		.loc 1 491 0
 210 0052 081C     		mov	r0, r1
 211              	.LVL36:
 212              		@ sp needed
 213 0054 7047     		bx	lr
 214              	.L24:
 215 0056 C046     		.align	2
 216              	.L23:
 217 0058 00000000 		.word	.L14
 218              		.cfi_endproc
 219              	.LFE39:
 220              		.size	Gestures_CalculateTheta, .-Gestures_CalculateTheta
 221              		.section	.text.Gestures_LookUpGesture,"ax",%progbits
 222              		.align	2
 223              		.code	16
 224              		.thumb_func
 225              		.type	Gestures_LookUpGesture, %function
 226              	Gestures_LookUpGesture:
 227              	.LFB45:
 492:.\Gesture.c   **** 
 493:.\Gesture.c   **** /*******************************************************************************
 494:.\Gesture.c   **** * Function Name: GetSinTheta
 495:.\Gesture.c   **** ********************************************************************************
 496:.\Gesture.c   **** *
 497:.\Gesture.c   **** * Summary:
 498:.\Gesture.c   **** * This function calculates the sine theta of a given angle 
 499:.\Gesture.c   **** *
 500:.\Gesture.c   **** * Parameters:
 501:.\Gesture.c   **** *  theta - angle for which sine needs to be calculated (-90 to 90);
 502:.\Gesture.c   **** *			1 count = 2 degrees;
 503:.\Gesture.c   **** *
 504:.\Gesture.c   **** * Return:
 505:.\Gesture.c   **** * int32 - sine theta value scaled to 256 (i.e. 1 = 256, 0.5 = 128 etc)
 506:.\Gesture.c   **** *
 507:.\Gesture.c   **** *******************************************************************************/
 508:.\Gesture.c   **** int32 GetSinTheta(int32 theta)
 509:.\Gesture.c   **** {
ARM GAS  C:\Users\JAVIER~1\AppData\Local\Temp\ccyEBIku.s 			page 14


 510:.\Gesture.c   **** 	int32 sinTheta = INVALID_SINE;
 511:.\Gesture.c   **** 	
 512:.\Gesture.c   **** 	/* Return sine theta, only if angle/theta is valid */
 513:.\Gesture.c   **** 	if(theta != INVALID_ANGLE)
 514:.\Gesture.c   **** 	{
 515:.\Gesture.c   **** 		/* Based on theta, lookup the sine table appropriately and return the value */
 516:.\Gesture.c   **** 		/* sin(-theta) = -sin(theta) */
 517:.\Gesture.c   **** 		if(theta < 0)
 518:.\Gesture.c   **** 		{			
 519:.\Gesture.c   **** 			theta = -theta;
 520:.\Gesture.c   **** 			
 521:.\Gesture.c   **** 			/* sin(180-theta) = sin(theta) */
 522:.\Gesture.c   **** 			if(theta > ANGLE_90)
 523:.\Gesture.c   **** 			{
 524:.\Gesture.c   **** 				sinTheta = -1 * sinLookUp[ANGLE_180 - theta];
 525:.\Gesture.c   **** 			}
 526:.\Gesture.c   **** 			else
 527:.\Gesture.c   **** 			{
 528:.\Gesture.c   **** 				sinTheta = -1 * sinLookUp[theta];
 529:.\Gesture.c   **** 			}
 530:.\Gesture.c   **** 		}
 531:.\Gesture.c   **** 		else
 532:.\Gesture.c   **** 		{
 533:.\Gesture.c   **** 			/* sin(180-theta) = sin(theta) */
 534:.\Gesture.c   **** 			if(theta > ANGLE_90)
 535:.\Gesture.c   **** 			{
 536:.\Gesture.c   **** 				sinTheta = sinLookUp[ANGLE_180 - theta];
 537:.\Gesture.c   **** 			}
 538:.\Gesture.c   **** 			else
 539:.\Gesture.c   **** 			{
 540:.\Gesture.c   **** 				sinTheta = sinLookUp[theta];
 541:.\Gesture.c   **** 			}
 542:.\Gesture.c   **** 		}
 543:.\Gesture.c   **** 	}
 544:.\Gesture.c   **** 	
 545:.\Gesture.c   **** 	
 546:.\Gesture.c   **** 	return sinTheta;
 547:.\Gesture.c   **** }
 548:.\Gesture.c   **** 
 549:.\Gesture.c   **** /*******************************************************************************
 550:.\Gesture.c   **** * Function Name: GetCosTheta
 551:.\Gesture.c   **** ********************************************************************************
 552:.\Gesture.c   **** *
 553:.\Gesture.c   **** * Summary:
 554:.\Gesture.c   **** * This function calculates the cosine theta of a given angle 
 555:.\Gesture.c   **** *
 556:.\Gesture.c   **** * Parameters:
 557:.\Gesture.c   **** *  theta - angle for which cosine needs to be calculated (-90 to 90);
 558:.\Gesture.c   **** *			1 count = 2 degrees;
 559:.\Gesture.c   **** *
 560:.\Gesture.c   **** * Return:
 561:.\Gesture.c   **** * int32 - cosine theta value scaled to 256 (i.e. 1 = 256, 0.5 = 128 etc)
 562:.\Gesture.c   **** *
 563:.\Gesture.c   **** *******************************************************************************/
 564:.\Gesture.c   **** int32 GetCosTheta(int32 theta)
 565:.\Gesture.c   **** {
 566:.\Gesture.c   **** 	int32 cosTheta = INVALID_SINE;
ARM GAS  C:\Users\JAVIER~1\AppData\Local\Temp\ccyEBIku.s 			page 15


 567:.\Gesture.c   **** 	
 568:.\Gesture.c   **** 	/* Return cosine theta, only if angle/theta is valid */
 569:.\Gesture.c   **** 	if(theta != INVALID_ANGLE)
 570:.\Gesture.c   **** 	{
 571:.\Gesture.c   **** 		/* Trigonometric relations used in the calculation
 572:.\Gesture.c   **** 		cos(theta) = sin(90 - theta) 
 573:.\Gesture.c   **** 		cos(-theta) = cos(theta) 
 574:.\Gesture.c   **** 		cos(180 - theta) = -cos(theta) */
 575:.\Gesture.c   **** 		if(theta < 0)
 576:.\Gesture.c   **** 		{
 577:.\Gesture.c   **** 			theta = -theta;
 578:.\Gesture.c   **** 		}
 579:.\Gesture.c   **** 		
 580:.\Gesture.c   **** 		if(theta > ANGLE_90)
 581:.\Gesture.c   **** 		{
 582:.\Gesture.c   **** 			cosTheta = -1 * sinLookUp[theta - ANGLE_90];
 583:.\Gesture.c   **** 		}
 584:.\Gesture.c   **** 		else
 585:.\Gesture.c   **** 		{
 586:.\Gesture.c   **** 			cosTheta = sinLookUp[ANGLE_90 - theta];
 587:.\Gesture.c   **** 		}
 588:.\Gesture.c   **** 	}
 589:.\Gesture.c   **** 	
 590:.\Gesture.c   **** 	return cosTheta;
 591:.\Gesture.c   **** }
 592:.\Gesture.c   **** 
 593:.\Gesture.c   **** /*******************************************************************************
 594:.\Gesture.c   **** * Function Name: Gestures_CalculateX
 595:.\Gesture.c   **** ********************************************************************************
 596:.\Gesture.c   **** *
 597:.\Gesture.c   **** * Summary:
 598:.\Gesture.c   **** * This function calculates the Cartesian coordinate x from Polar coordinates 
 599:.\Gesture.c   **** *
 600:.\Gesture.c   **** * Parameters:
 601:.\Gesture.c   **** * radius - Polar coordinate radius  (0 to 4)
 602:.\Gesture.c   **** * theta - Polar coordinate theta (-90 to 90);
 603:.\Gesture.c   **** *			1 count = 2 degrees;
 604:.\Gesture.c   **** *
 605:.\Gesture.c   **** * Return:
 606:.\Gesture.c   **** * int32 - Cartesian coordinate x (-8 to +8)
 607:.\Gesture.c   **** *
 608:.\Gesture.c   **** *******************************************************************************/
 609:.\Gesture.c   **** int32 Gestures_CalculateX(uint32 radius, int32 theta)
 610:.\Gesture.c   **** {
 611:.\Gesture.c   **** 	int32 x;
 612:.\Gesture.c   **** 	
 613:.\Gesture.c   **** 	/* Shifting theta by 45 degree to provide a proper x offset */
 614:.\Gesture.c   **** 	theta += ANGLE_45;
 615:.\Gesture.c   **** 	
 616:.\Gesture.c   **** 	/* Rollover theta overflow because of the 45 degree addition */
 617:.\Gesture.c   **** 	if(theta > ANGLE_180)
 618:.\Gesture.c   **** 	{
 619:.\Gesture.c   **** 		/* To bring back theta to -180 to 180 degree range, subtract 360 degree from theta */
 620:.\Gesture.c   **** 		theta = theta - (ANGLE_180<<1);
 621:.\Gesture.c   **** 	}
 622:.\Gesture.c   **** 	
 623:.\Gesture.c   **** 	/* x = radius * cos(theta)
ARM GAS  C:\Users\JAVIER~1\AppData\Local\Temp\ccyEBIku.s 			page 16


 624:.\Gesture.c   **** 		Multiplication by MAX_X_Y is for scaling 
 625:.\Gesture.c   **** 		Shift right by 8 is to remove the cos(theta) normalization to 256 */
 626:.\Gesture.c   **** 	x = (((int32)radius) * GetCosTheta(theta) * MAX_X_Y )>> 8;
 627:.\Gesture.c   **** 
 628:.\Gesture.c   **** 	
 629:.\Gesture.c   **** 	return x;
 630:.\Gesture.c   **** }
 631:.\Gesture.c   **** 
 632:.\Gesture.c   **** /*******************************************************************************
 633:.\Gesture.c   **** * Function Name: Gestures_CalculateY
 634:.\Gesture.c   **** ********************************************************************************
 635:.\Gesture.c   **** *
 636:.\Gesture.c   **** * Summary:
 637:.\Gesture.c   **** * This function calculates the Cartesian coordinate y from Polar coordinates 
 638:.\Gesture.c   **** *
 639:.\Gesture.c   **** * Parameters:
 640:.\Gesture.c   **** * radius - Polar coordinate radius  (0 to 4)
 641:.\Gesture.c   **** * theta - Polar coordinate theta (-90 to 90);
 642:.\Gesture.c   **** *			1 count = 2 degrees;
 643:.\Gesture.c   **** *
 644:.\Gesture.c   **** * Return:
 645:.\Gesture.c   **** * int32 - Cartesian coordinate y (-8 to +8)
 646:.\Gesture.c   **** *
 647:.\Gesture.c   **** *******************************************************************************/
 648:.\Gesture.c   **** int32 Gestures_CalculateY(uint32 radius, int32 theta)
 649:.\Gesture.c   **** {
 650:.\Gesture.c   **** 	int32 y;
 651:.\Gesture.c   **** 	
 652:.\Gesture.c   **** 	theta += ANGLE_45;
 653:.\Gesture.c   **** 	
 654:.\Gesture.c   **** 	if(theta > ANGLE_180)
 655:.\Gesture.c   **** 	{
 656:.\Gesture.c   **** 		theta = theta - (ANGLE_180<<1);
 657:.\Gesture.c   **** 	}
 658:.\Gesture.c   **** 	
 659:.\Gesture.c   **** 	/* y = radius * sin(theta)
 660:.\Gesture.c   **** 		Multiplication by MAX_X_Y is for scaling 
 661:.\Gesture.c   **** 		Shift right by 8 is to remove the sin(theta) normalization to 256 */
 662:.\Gesture.c   **** 	y = (((int32)radius) * GetSinTheta(theta) * MAX_X_Y )>> 8;
 663:.\Gesture.c   **** 	
 664:.\Gesture.c   **** 	return y;
 665:.\Gesture.c   **** }
 666:.\Gesture.c   **** 
 667:.\Gesture.c   **** /*******************************************************************************
 668:.\Gesture.c   **** * Function Name: Gestures_GetSector
 669:.\Gesture.c   **** ********************************************************************************
 670:.\Gesture.c   **** *
 671:.\Gesture.c   **** * Summary:
 672:.\Gesture.c   **** * This function calculates the sector in which finger is present. There are a 
 673:.\Gesture.c   **** *	total of 5 sectors. 
 674:.\Gesture.c   **** *
 675:.\Gesture.c   **** * Parameters:
 676:.\Gesture.c   **** * radius - Polar coordinate radius  (0 to 4)
 677:.\Gesture.c   **** * theta - Polar coordinate theta (-90 to 90);
 678:.\Gesture.c   **** *			1 count = 2 degrees;
 679:.\Gesture.c   **** *
 680:.\Gesture.c   **** * Return:
ARM GAS  C:\Users\JAVIER~1\AppData\Local\Temp\ccyEBIku.s 			page 17


 681:.\Gesture.c   **** * uint32 - sector number
 682:.\Gesture.c   **** *	0 - middle sector (radius = 0) 
 683:.\Gesture.c   **** *	1 - up sector (radius > 0, 0 < theta < 45)
 684:.\Gesture.c   **** *	2 - left sector (radius > 0, 45 < theta < 90)
 685:.\Gesture.c   **** *	3 - down sector (radius > 0, -45 > theta > -90)
 686:.\Gesture.c   **** *	4 - right sector (radius > 0, 0 > theta > -45)
 687:.\Gesture.c   **** *
 688:.\Gesture.c   **** *******************************************************************************/
 689:.\Gesture.c   **** uint32 Gestures_GetSector(uint32 radius, int32 theta)
 690:.\Gesture.c   **** {
 691:.\Gesture.c   **** 	uint32 sector = INVALID_SECTOR;
 692:.\Gesture.c   **** 	
 693:.\Gesture.c   **** 	/* Process only for valid theta */
 694:.\Gesture.c   **** 	if(theta != INVALID_ANGLE)
 695:.\Gesture.c   **** 	{
 696:.\Gesture.c   **** 		/* If radius = 0, sector is 0 (CENTRE button) */
 697:.\Gesture.c   **** 		if(radius == 0)
 698:.\Gesture.c   **** 		{
 699:.\Gesture.c   **** 			sector = 0;
 700:.\Gesture.c   **** 		}
 701:.\Gesture.c   **** 		else
 702:.\Gesture.c   **** 		{
 703:.\Gesture.c   **** 			/* Calculate sector based on theta if radius != 0 */
 704:.\Gesture.c   **** 			if(theta >= 0)
 705:.\Gesture.c   **** 			{
 706:.\Gesture.c   **** 				sector = 1 + (theta/ANGLE_90);
 707:.\Gesture.c   **** 			}
 708:.\Gesture.c   **** 			else
 709:.\Gesture.c   **** 			{
 710:.\Gesture.c   **** 				sector = (uint32)((int32)4 + (theta/ANGLE_90));
 711:.\Gesture.c   **** 			}			
 712:.\Gesture.c   **** 		}
 713:.\Gesture.c   **** 	}
 714:.\Gesture.c   **** 	
 715:.\Gesture.c   **** 	return sector;
 716:.\Gesture.c   **** }
 717:.\Gesture.c   **** 
 718:.\Gesture.c   **** /*******************************************************************************
 719:.\Gesture.c   **** * Function Name: Gestures_LookUpGesture
 720:.\Gesture.c   **** ********************************************************************************
 721:.\Gesture.c   **** *
 722:.\Gesture.c   **** * Summary:
 723:.\Gesture.c   **** * This function returns the gesture based on radius detected at first touch and
 724:.\Gesture.c   **** *	a unique sum of prime products term
 725:.\Gesture.c   **** *
 726:.\Gesture.c   **** * Parameters:
 727:.\Gesture.c   **** * sectorHistorySum - unique sum term for each gesture (combination of 3 previous 
 728:.\Gesture.c   **** *						sector states and sector weights)
 729:.\Gesture.c   **** * firstRadius - radius value when the sector was first touched during the activity
 730:.\Gesture.c   **** *
 731:.\Gesture.c   **** * Return:
 732:.\Gesture.c   **** * tGestureId - gesture ID (refer to Gestures.h for details)
 733:.\Gesture.c   **** *
 734:.\Gesture.c   **** *******************************************************************************/
 735:.\Gesture.c   **** static tGestureId Gestures_LookUpGesture(uint32 sectorHistorySum, uint32 firstRadius)
 736:.\Gesture.c   **** {
 228              		.loc 1 736 0
ARM GAS  C:\Users\JAVIER~1\AppData\Local\Temp\ccyEBIku.s 			page 18


 229              		.cfi_startproc
 230              	.LVL37:
 737:.\Gesture.c   **** 	tGestureId gesture = GESTURE_INVALID;
 738:.\Gesture.c   **** 	
 739:.\Gesture.c   **** 	/* Lookup gestures based on the unique sum term for each gesture.
 740:.\Gesture.c   **** 		The unique sum term is calculated from the last/recent three 
 741:.\Gesture.c   **** 		sector changes recorded from the time finger is active
 742:.\Gesture.c   **** 	
 743:.\Gesture.c   **** 		The following logic is applied to determine the sum and make it unique - 
 744:.\Gesture.c   **** 		1. Assign a unique prime number as weights to each sector
 745:.\Gesture.c   **** 		2. Assign a unique prime number as weights for each of the past 3 states
 746:.\Gesture.c   **** 		3. The weights should be unique for sector and past states 
 747:.\Gesture.c   **** 		4. When two unique primes are multipled and added, they provide a unique sum
 748:.\Gesture.c   **** 		5. The sector weights are multiplied with the state weight and added together 
 749:.\Gesture.c   **** 			with other sector-state product recorded (total three). This sum will be unique
 750:.\Gesture.c   **** 		6. This unique sum can then be used to identify the finger movement between sectors
 751:.\Gesture.c   **** 			with a history of three sectors */
 752:.\Gesture.c   **** 	switch(sectorHistorySum)
 231              		.loc 1 752 0
 232 0000 2223     		mov	r3, #34
 233 0002 FF33     		add	r3, r3, #255
 234 0004 9842     		cmp	r0, r3
 235 0006 31D0     		beq	.L27
 236 0008 0FD8     		bhi	.L28
 237 000a E928     		cmp	r0, #233
 238 000c 34D0     		beq	.L29
 239 000e 04D8     		bhi	.L30
 240 0010 B628     		cmp	r0, #182
 241 0012 25D0     		beq	.L31
 242 0014 CE28     		cmp	r0, #206
 243 0016 35D0     		beq	.L36
 244 0018 20E0     		b	.L26
 245              	.L30:
 246 001a 0223     		mov	r3, #2
 247 001c FF33     		add	r3, r3, #255
 248 001e 9842     		cmp	r0, r3
 249 0020 24D0     		beq	.L27
 250 0022 0F33     		add	r3, r3, #15
 251 0024 9842     		cmp	r0, r3
 252 0026 1FD0     		beq	.L33
 253 0028 18E0     		b	.L26
 254              	.L28:
 255 002a 5023     		mov	r3, #80
 256 002c FF33     		add	r3, r3, #255
 257 002e 9842     		cmp	r0, r3
 258 0030 1CD0     		beq	.L27
 259 0032 07D8     		bhi	.L34
 260 0034 1B3B     		sub	r3, r3, #27
 261 0036 9842     		cmp	r0, r3
 262 0038 14D0     		beq	.L35
 263 003a 4623     		mov	r3, #70
 264 003c FF33     		add	r3, r3, #255
 265 003e 9842     		cmp	r0, r3
 266 0040 1AD0     		beq	.L29
 267 0042 0BE0     		b	.L26
 268              	.L34:
 269 0044 6823     		mov	r3, #104
ARM GAS  C:\Users\JAVIER~1\AppData\Local\Temp\ccyEBIku.s 			page 19


 270 0046 FF33     		add	r3, r3, #255
 271 0048 9842     		cmp	r0, r3
 272 004a 15D0     		beq	.L29
 273 004c 8A23     		mov	r3, #138
 274 004e FF33     		add	r3, r3, #255
 275 0050 9842     		cmp	r0, r3
 276 0052 0BD0     		beq	.L27
 277 0054 6623     		mov	r3, #102
 278 0056 FF33     		add	r3, r3, #255
 279 0058 9842     		cmp	r0, r3
 280 005a 0DD0     		beq	.L29
 281              	.L26:
 737:.\Gesture.c   **** 	tGestureId gesture = GESTURE_INVALID;
 282              		.loc 1 737 0
 283 005c 1020     		mov	r0, #16
 284              	.LVL38:
 285 005e 1AE0     		b	.L32
 286              	.LVL39:
 287              	.L31:
 753:.\Gesture.c   **** 	{
 754:.\Gesture.c   **** 		case SECTOR_1_0_3:
 755:.\Gesture.c   **** 			gesture = GESTURE_DOWN_SWIPE;
 756:.\Gesture.c   **** 		break;
 757:.\Gesture.c   **** 		
 758:.\Gesture.c   **** 		case SECTOR_3_0_1:
 759:.\Gesture.c   **** 			gesture = GESTURE_UP_SWIPE;
 288              		.loc 1 759 0
 289 0060 0720     		mov	r0, #7
 290              	.LVL40:
 760:.\Gesture.c   **** 		break;
 291              		.loc 1 760 0
 292 0062 18E0     		b	.L32
 293              	.LVL41:
 294              	.L35:
 761:.\Gesture.c   **** 		
 762:.\Gesture.c   **** 		case SECTOR_2_0_4:
 763:.\Gesture.c   **** 			gesture = GESTURE_RIGHT_SWIPE;
 295              		.loc 1 763 0
 296 0064 0620     		mov	r0, #6
 297              	.LVL42:
 764:.\Gesture.c   **** 		break;
 298              		.loc 1 764 0
 299 0066 16E0     		b	.L32
 300              	.LVL43:
 301              	.L33:
 765:.\Gesture.c   **** 		
 766:.\Gesture.c   **** 		case SECTOR_4_0_2:
 767:.\Gesture.c   **** 			gesture = GESTURE_LEFT_SWIPE;
 302              		.loc 1 767 0
 303 0068 0520     		mov	r0, #5
 304              	.LVL44:
 768:.\Gesture.c   **** 		break;
 305              		.loc 1 768 0
 306 006a 14E0     		b	.L32
 307              	.LVL45:
 308              	.L27:
 769:.\Gesture.c   **** 		
ARM GAS  C:\Users\JAVIER~1\AppData\Local\Temp\ccyEBIku.s 			page 20


 770:.\Gesture.c   **** 		case SECTOR_1_2_3:
 771:.\Gesture.c   **** 		case SECTOR_2_3_4:
 772:.\Gesture.c   **** 		case SECTOR_3_4_1:
 773:.\Gesture.c   **** 		case SECTOR_4_1_2:
 774:.\Gesture.c   **** 			if(firstRadius != INVALID_RADIUS)
 309              		.loc 1 774 0
 310 006c FF29     		cmp	r1, #255
 311 006e 0BD0     		beq	.L37
 775:.\Gesture.c   **** 			{
 776:.\Gesture.c   **** 				if(firstRadius < 3)
 312              		.loc 1 776 0
 313 0070 0229     		cmp	r1, #2
 314 0072 0BD8     		bhi	.L38
 777:.\Gesture.c   **** 				{
 778:.\Gesture.c   **** 					gesture = GESTURE_INNER_COUNTER_CLKWISE;
 315              		.loc 1 778 0
 316 0074 0B20     		mov	r0, #11
 317              	.LVL46:
 318 0076 0EE0     		b	.L32
 319              	.LVL47:
 320              	.L29:
 779:.\Gesture.c   **** 				}
 780:.\Gesture.c   **** 				else
 781:.\Gesture.c   **** 				{
 782:.\Gesture.c   **** 					gesture = GESTURE_OUTER_COUNTER_CLKWISE;
 783:.\Gesture.c   **** 				}
 784:.\Gesture.c   **** 			}
 785:.\Gesture.c   **** 		break;
 786:.\Gesture.c   **** 		
 787:.\Gesture.c   **** 		case SECTOR_1_4_3:
 788:.\Gesture.c   **** 		case SECTOR_4_3_2:
 789:.\Gesture.c   **** 		case SECTOR_3_2_1:
 790:.\Gesture.c   **** 		case SECTOR_2_1_4:
 791:.\Gesture.c   **** 			if(firstRadius != INVALID_RADIUS)
 321              		.loc 1 791 0
 322 0078 FF29     		cmp	r1, #255
 323 007a 09D0     		beq	.L39
 792:.\Gesture.c   **** 			{
 793:.\Gesture.c   **** 				if(firstRadius < 3)
 324              		.loc 1 793 0
 325 007c 0229     		cmp	r1, #2
 326 007e 09D8     		bhi	.L40
 794:.\Gesture.c   **** 				{
 795:.\Gesture.c   **** 					gesture = GESTURE_INNER_CLKWISE;
 327              		.loc 1 795 0
 328 0080 0A20     		mov	r0, #10
 329              	.LVL48:
 330 0082 08E0     		b	.L32
 331              	.LVL49:
 332              	.L36:
 755:.\Gesture.c   **** 		break;
 333              		.loc 1 755 0
 334 0084 0820     		mov	r0, #8
 335              	.LVL50:
 336 0086 06E0     		b	.L32
 337              	.LVL51:
 338              	.L37:
ARM GAS  C:\Users\JAVIER~1\AppData\Local\Temp\ccyEBIku.s 			page 21


 737:.\Gesture.c   **** 	
 339              		.loc 1 737 0
 340 0088 1020     		mov	r0, #16
 341              	.LVL52:
 342 008a 04E0     		b	.L32
 343              	.LVL53:
 344              	.L38:
 782:.\Gesture.c   **** 				}
 345              		.loc 1 782 0
 346 008c 0D20     		mov	r0, #13
 347              	.LVL54:
 348 008e 02E0     		b	.L32
 349              	.LVL55:
 350              	.L39:
 737:.\Gesture.c   **** 	
 351              		.loc 1 737 0
 352 0090 1020     		mov	r0, #16
 353              	.LVL56:
 354 0092 00E0     		b	.L32
 355              	.LVL57:
 356              	.L40:
 796:.\Gesture.c   **** 				}
 797:.\Gesture.c   **** 				else
 798:.\Gesture.c   **** 				{
 799:.\Gesture.c   **** 					gesture = GESTURE_OUTER_CLKWISE;
 357              		.loc 1 799 0
 358 0094 0C20     		mov	r0, #12
 359              	.LVL58:
 360              	.L32:
 800:.\Gesture.c   **** 				}
 801:.\Gesture.c   **** 			}
 802:.\Gesture.c   **** 		break;
 803:.\Gesture.c   **** 		
 804:.\Gesture.c   **** 		default:
 805:.\Gesture.c   **** 		break;		
 806:.\Gesture.c   **** 	}
 807:.\Gesture.c   **** 	
 808:.\Gesture.c   **** 	return gesture;
 809:.\Gesture.c   **** }
 361              		.loc 1 809 0
 362              		@ sp needed
 363 0096 7047     		bx	lr
 364              		.cfi_endproc
 365              	.LFE45:
 366              		.size	Gestures_LookUpGesture, .-Gestures_LookUpGesture
 367              		.section	.text.Gestures_ValidateButtons,"ax",%progbits
 368              		.align	2
 369              		.code	16
 370              		.thumb_func
 371              		.type	Gestures_ValidateButtons, %function
 372              	Gestures_ValidateButtons:
 373              	.LFB37:
 240:.\Gesture.c   **** 	static uint32 prevButtonStatus;
 374              		.loc 1 240 0
 375              		.cfi_startproc
 376              	.LVL59:
 377 0000 70B5     		push	{r4, r5, r6, lr}
ARM GAS  C:\Users\JAVIER~1\AppData\Local\Temp\ccyEBIku.s 			page 22


 378              		.cfi_def_cfa_offset 16
 379              		.cfi_offset 4, -16
 380              		.cfi_offset 5, -12
 381              		.cfi_offset 6, -8
 382              		.cfi_offset 14, -4
 383 0002 041C     		mov	r4, r0
 384 0004 0D1C     		mov	r5, r1
 245:.\Gesture.c   **** 	{
 385              		.loc 1 245 0
 386 0006 3023     		mov	r3, #48
 387 0008 0340     		and	r3, r0
 388 000a 302B     		cmp	r3, #48
 389 000c 01D1     		bne	.L42
 247:.\Gesture.c   **** 	}
 390              		.loc 1 247 0
 391 000e 203B     		sub	r3, r3, #32
 392 0010 9C43     		bic	r4, r3
 393              	.LVL60:
 394              	.L42:
 252:.\Gesture.c   **** 	{
 395              		.loc 1 252 0
 396 0012 0323     		mov	r3, #3
 397 0014 2340     		and	r3, r4
 398 0016 032B     		cmp	r3, #3
 399 0018 32D1     		bne	.L43
 256:.\Gesture.c   **** 		{
 400              		.loc 1 256 0
 401 001a A306     		lsl	r3, r4, #26
 402 001c 12D5     		bpl	.L44
 258:.\Gesture.c   **** 			/* Clear Right button mask if slider sector is left */
 403              		.loc 1 258 0
 404 001e 0623     		mov	r3, #6
 405 0020 2B40     		and	r3, r5
 406 0022 042B     		cmp	r3, #4
 407 0024 02D1     		bne	.L45
 261:.\Gesture.c   **** 			}
 408              		.loc 1 261 0
 409 0026 023B     		sub	r3, r3, #2
 410 0028 9C43     		bic	r4, r3
 411              	.LVL61:
 412 002a 29E0     		b	.L43
 413              	.L45:
 263:.\Gesture.c   **** 			/* Clear Left button mask if slider sector is Right */
 414              		.loc 1 263 0
 415 002c 002B     		cmp	r3, #0
 416 002e 02D1     		bne	.L46
 266:.\Gesture.c   **** 			}
 417              		.loc 1 266 0
 418 0030 0133     		add	r3, r3, #1
 419 0032 9C43     		bic	r4, r3
 420              	.LVL62:
 421 0034 24E0     		b	.L43
 422              	.L46:
 271:.\Gesture.c   **** 				buttonStatus |= prevButtonStatus & (LEFT_BTN_MASK | RIGHT_BTN_MASK);
 423              		.loc 1 271 0
 424 0036 0323     		mov	r3, #3
 425 0038 9C43     		bic	r4, r3
ARM GAS  C:\Users\JAVIER~1\AppData\Local\Temp\ccyEBIku.s 			page 23


 426              	.LVL63:
 272:.\Gesture.c   **** 			}
 427              		.loc 1 272 0
 428 003a 2F4A     		ldr	r2, .L55
 429 003c 1268     		ldr	r2, [r2]
 430 003e 1340     		and	r3, r2
 431 0040 1C43     		orr	r4, r3
 432              	.LVL64:
 433 0042 1DE0     		b	.L43
 434              	.L44:
 278:.\Gesture.c   **** 			{
 435              		.loc 1 278 0
 436 0044 0020     		mov	r0, #0
 437 0046 FFF7FEFF 		bl	CapSense_GetDiffCountData
 438              	.LVL65:
 439 004a 061C     		mov	r6, r0
 440 004c 0120     		mov	r0, #1
 441 004e FFF7FEFF 		bl	CapSense_GetDiffCountData
 442              	.LVL66:
 443 0052 8642     		cmp	r6, r0
 444 0054 02D9     		bls	.L47
 280:.\Gesture.c   **** 			}
 445              		.loc 1 280 0
 446 0056 0223     		mov	r3, #2
 447 0058 9C43     		bic	r4, r3
 448              	.LVL67:
 449 005a 11E0     		b	.L43
 450              	.L47:
 282:.\Gesture.c   **** 			{
 451              		.loc 1 282 0
 452 005c 0020     		mov	r0, #0
 453 005e FFF7FEFF 		bl	CapSense_GetDiffCountData
 454              	.LVL68:
 455 0062 061C     		mov	r6, r0
 456 0064 0120     		mov	r0, #1
 457 0066 FFF7FEFF 		bl	CapSense_GetDiffCountData
 458              	.LVL69:
 459 006a 8642     		cmp	r6, r0
 460 006c 02D2     		bcs	.L48
 284:.\Gesture.c   **** 			}
 461              		.loc 1 284 0
 462 006e 0123     		mov	r3, #1
 463 0070 9C43     		bic	r4, r3
 464              	.LVL70:
 465 0072 05E0     		b	.L43
 466              	.L48:
 288:.\Gesture.c   **** 				buttonStatus |= prevButtonStatus & (LEFT_BTN_MASK | RIGHT_BTN_MASK);
 467              		.loc 1 288 0
 468 0074 0323     		mov	r3, #3
 469 0076 9C43     		bic	r4, r3
 470              	.LVL71:
 289:.\Gesture.c   **** 			}
 471              		.loc 1 289 0
 472 0078 1F4A     		ldr	r2, .L55
 473 007a 1268     		ldr	r2, [r2]
 474 007c 1340     		and	r3, r2
 475 007e 1C43     		orr	r4, r3
ARM GAS  C:\Users\JAVIER~1\AppData\Local\Temp\ccyEBIku.s 			page 24


 476              	.LVL72:
 477              	.L43:
 295:.\Gesture.c   **** 	{
 478              		.loc 1 295 0
 479 0080 0C23     		mov	r3, #12
 480 0082 2340     		and	r3, r4
 481 0084 0C2B     		cmp	r3, #12
 482 0086 32D1     		bne	.L49
 297:.\Gesture.c   **** 		{
 483              		.loc 1 297 0
 484 0088 A306     		lsl	r3, r4, #26
 485 008a 12D5     		bpl	.L50
 299:.\Gesture.c   **** 			{
 486              		.loc 1 299 0
 487 008c 0623     		mov	r3, #6
 488 008e 1D40     		and	r5, r3
 489              	.LVL73:
 490 0090 062D     		cmp	r5, #6
 491 0092 02D1     		bne	.L51
 301:.\Gesture.c   **** 			}
 492              		.loc 1 301 0
 493 0094 0233     		add	r3, r3, #2
 494 0096 9C43     		bic	r4, r3
 495              	.LVL74:
 496 0098 29E0     		b	.L49
 497              	.L51:
 303:.\Gesture.c   **** 			{
 498              		.loc 1 303 0
 499 009a 022D     		cmp	r5, #2
 500 009c 02D1     		bne	.L52
 305:.\Gesture.c   **** 			}
 501              		.loc 1 305 0
 502 009e 0423     		mov	r3, #4
 503 00a0 9C43     		bic	r4, r3
 504              	.LVL75:
 505 00a2 24E0     		b	.L49
 506              	.L52:
 309:.\Gesture.c   **** 				buttonStatus |= prevButtonStatus & (UP_BTN_MASK | DOWN_BTN_MASK);
 507              		.loc 1 309 0
 508 00a4 0C23     		mov	r3, #12
 509 00a6 9C43     		bic	r4, r3
 510              	.LVL76:
 310:.\Gesture.c   **** 			}
 511              		.loc 1 310 0
 512 00a8 134A     		ldr	r2, .L55
 513 00aa 1268     		ldr	r2, [r2]
 514 00ac 1340     		and	r3, r2
 515 00ae 1C43     		orr	r4, r3
 516              	.LVL77:
 517 00b0 1DE0     		b	.L49
 518              	.LVL78:
 519              	.L50:
 315:.\Gesture.c   **** 			{
 520              		.loc 1 315 0
 521 00b2 0220     		mov	r0, #2
 522 00b4 FFF7FEFF 		bl	CapSense_GetDiffCountData
 523              	.LVL79:
ARM GAS  C:\Users\JAVIER~1\AppData\Local\Temp\ccyEBIku.s 			page 25


 524 00b8 051C     		mov	r5, r0
 525              	.LVL80:
 526 00ba 0320     		mov	r0, #3
 527 00bc FFF7FEFF 		bl	CapSense_GetDiffCountData
 528              	.LVL81:
 529 00c0 8542     		cmp	r5, r0
 530 00c2 02D9     		bls	.L53
 317:.\Gesture.c   **** 			}
 531              		.loc 1 317 0
 532 00c4 0823     		mov	r3, #8
 533 00c6 9C43     		bic	r4, r3
 534              	.LVL82:
 535 00c8 11E0     		b	.L49
 536              	.L53:
 319:.\Gesture.c   **** 			{
 537              		.loc 1 319 0
 538 00ca 0220     		mov	r0, #2
 539 00cc FFF7FEFF 		bl	CapSense_GetDiffCountData
 540              	.LVL83:
 541 00d0 051C     		mov	r5, r0
 542 00d2 0320     		mov	r0, #3
 543 00d4 FFF7FEFF 		bl	CapSense_GetDiffCountData
 544              	.LVL84:
 545 00d8 8542     		cmp	r5, r0
 546 00da 02D2     		bcs	.L54
 321:.\Gesture.c   **** 			}
 547              		.loc 1 321 0
 548 00dc 0423     		mov	r3, #4
 549 00de 9C43     		bic	r4, r3
 550              	.LVL85:
 551 00e0 05E0     		b	.L49
 552              	.L54:
 325:.\Gesture.c   **** 				buttonStatus |= prevButtonStatus & (UP_BTN_MASK | DOWN_BTN_MASK);
 553              		.loc 1 325 0
 554 00e2 0C23     		mov	r3, #12
 555 00e4 9C43     		bic	r4, r3
 556              	.LVL86:
 326:.\Gesture.c   **** 			}
 557              		.loc 1 326 0
 558 00e6 044A     		ldr	r2, .L55
 559 00e8 1268     		ldr	r2, [r2]
 560 00ea 1340     		and	r3, r2
 561 00ec 1C43     		orr	r4, r3
 562              	.LVL87:
 563              	.L49:
 332:.\Gesture.c   **** 	
 564              		.loc 1 332 0
 565 00ee 024B     		ldr	r3, .L55
 566 00f0 1C60     		str	r4, [r3]
 336:.\Gesture.c   **** 
 567              		.loc 1 336 0
 568 00f2 201C     		mov	r0, r4
 569              		@ sp needed
 570              	.LVL88:
 571 00f4 70BD     		pop	{r4, r5, r6, pc}
 572              	.L56:
 573 00f6 C046     		.align	2
ARM GAS  C:\Users\JAVIER~1\AppData\Local\Temp\ccyEBIku.s 			page 26


 574              	.L55:
 575 00f8 00000000 		.word	.LANCHOR0
 576              		.cfi_endproc
 577              	.LFE37:
 578              		.size	Gestures_ValidateButtons, .-Gestures_ValidateButtons
 579              		.section	.text.GetSinTheta,"ax",%progbits
 580              		.align	2
 581              		.global	GetSinTheta
 582              		.code	16
 583              		.thumb_func
 584              		.type	GetSinTheta, %function
 585              	GetSinTheta:
 586              	.LFB40:
 509:.\Gesture.c   **** 	int32 sinTheta = INVALID_SINE;
 587              		.loc 1 509 0
 588              		.cfi_startproc
 589              	.LVL89:
 513:.\Gesture.c   **** 	{
 590              		.loc 1 513 0
 591 0000 FA28     		cmp	r0, #250
 592 0002 1BD0     		beq	.L62
 517:.\Gesture.c   **** 		{			
 593              		.loc 1 517 0
 594 0004 0028     		cmp	r0, #0
 595 0006 0DDA     		bge	.L59
 519:.\Gesture.c   **** 			
 596              		.loc 1 519 0
 597 0008 4342     		neg	r3, r0
 598              	.LVL90:
 522:.\Gesture.c   **** 			{
 599              		.loc 1 522 0
 600 000a 2D2B     		cmp	r3, #45
 601 000c 05DD     		ble	.L60
 524:.\Gesture.c   **** 			}
 602              		.loc 1 524 0
 603 000e 5A30     		add	r0, r0, #90
 604 0010 4000     		lsl	r0, r0, #1
 605 0012 0C4B     		ldr	r3, .L63
 606              	.LVL91:
 607 0014 185E     		ldrsh	r0, [r3, r0]
 608 0016 4042     		neg	r0, r0
 609              	.LVL92:
 610 0018 12E0     		b	.L58
 611              	.LVL93:
 612              	.L60:
 528:.\Gesture.c   **** 			}
 613              		.loc 1 528 0
 614 001a 5B00     		lsl	r3, r3, #1
 615              	.LVL94:
 616 001c 094A     		ldr	r2, .L63
 617 001e D05E     		ldrsh	r0, [r2, r3]
 618              	.LVL95:
 619 0020 4042     		neg	r0, r0
 620              	.LVL96:
 621 0022 0DE0     		b	.L58
 622              	.LVL97:
 623              	.L59:
ARM GAS  C:\Users\JAVIER~1\AppData\Local\Temp\ccyEBIku.s 			page 27


 534:.\Gesture.c   **** 			{
 624              		.loc 1 534 0
 625 0024 2D28     		cmp	r0, #45
 626 0026 05DD     		ble	.L61
 536:.\Gesture.c   **** 			}
 627              		.loc 1 536 0
 628 0028 5A23     		mov	r3, #90
 629 002a 181A     		sub	r0, r3, r0
 630              	.LVL98:
 631 002c 4000     		lsl	r0, r0, #1
 632 002e 054B     		ldr	r3, .L63
 633 0030 185E     		ldrsh	r0, [r3, r0]
 634              	.LVL99:
 635 0032 05E0     		b	.L58
 636              	.LVL100:
 637              	.L61:
 540:.\Gesture.c   **** 			}
 638              		.loc 1 540 0
 639 0034 4000     		lsl	r0, r0, #1
 640              	.LVL101:
 641 0036 034B     		ldr	r3, .L63
 642 0038 185E     		ldrsh	r0, [r3, r0]
 643              	.LVL102:
 644 003a 01E0     		b	.L58
 645              	.LVL103:
 646              	.L62:
 510:.\Gesture.c   **** 	
 647              		.loc 1 510 0
 648 003c FA20     		mov	r0, #250
 649              	.LVL104:
 650 003e 8000     		lsl	r0, r0, #2
 651              	.LVL105:
 652              	.L58:
 547:.\Gesture.c   **** 
 653              		.loc 1 547 0
 654              		@ sp needed
 655 0040 7047     		bx	lr
 656              	.L64:
 657 0042 C046     		.align	2
 658              	.L63:
 659 0044 4C000000 		.word	.LANCHOR1
 660              		.cfi_endproc
 661              	.LFE40:
 662              		.size	GetSinTheta, .-GetSinTheta
 663              		.section	.text.GetCosTheta,"ax",%progbits
 664              		.align	2
 665              		.global	GetCosTheta
 666              		.code	16
 667              		.thumb_func
 668              		.type	GetCosTheta, %function
 669              	GetCosTheta:
 670              	.LFB41:
 565:.\Gesture.c   **** 	int32 cosTheta = INVALID_SINE;
 671              		.loc 1 565 0
 672              		.cfi_startproc
 673              	.LVL106:
 569:.\Gesture.c   **** 	{
ARM GAS  C:\Users\JAVIER~1\AppData\Local\Temp\ccyEBIku.s 			page 28


 674              		.loc 1 569 0
 675 0000 FA28     		cmp	r0, #250
 676 0002 10D0     		beq	.L69
 575:.\Gesture.c   **** 		{
 677              		.loc 1 575 0
 678 0004 0028     		cmp	r0, #0
 679 0006 00DA     		bge	.L67
 577:.\Gesture.c   **** 		}
 680              		.loc 1 577 0
 681 0008 4042     		neg	r0, r0
 682              	.LVL107:
 683              	.L67:
 580:.\Gesture.c   **** 		{
 684              		.loc 1 580 0
 685 000a 2D28     		cmp	r0, #45
 686 000c 05DD     		ble	.L68
 582:.\Gesture.c   **** 		}
 687              		.loc 1 582 0
 688 000e 2D38     		sub	r0, r0, #45
 689              	.LVL108:
 690 0010 4000     		lsl	r0, r0, #1
 691              	.LVL109:
 692 0012 064B     		ldr	r3, .L70
 693 0014 185E     		ldrsh	r0, [r3, r0]
 694 0016 4042     		neg	r0, r0
 695              	.LVL110:
 696 0018 07E0     		b	.L66
 697              	.LVL111:
 698              	.L68:
 586:.\Gesture.c   **** 		}
 699              		.loc 1 586 0
 700 001a 2D23     		mov	r3, #45
 701 001c 181A     		sub	r0, r3, r0
 702              	.LVL112:
 703 001e 4000     		lsl	r0, r0, #1
 704 0020 024B     		ldr	r3, .L70
 705 0022 185E     		ldrsh	r0, [r3, r0]
 706              	.LVL113:
 707 0024 01E0     		b	.L66
 708              	.LVL114:
 709              	.L69:
 566:.\Gesture.c   **** 	
 710              		.loc 1 566 0
 711 0026 FA20     		mov	r0, #250
 712              	.LVL115:
 713 0028 8000     		lsl	r0, r0, #2
 714              	.LVL116:
 715              	.L66:
 591:.\Gesture.c   **** 
 716              		.loc 1 591 0
 717              		@ sp needed
 718 002a 7047     		bx	lr
 719              	.L71:
 720              		.align	2
 721              	.L70:
 722 002c 4C000000 		.word	.LANCHOR1
 723              		.cfi_endproc
ARM GAS  C:\Users\JAVIER~1\AppData\Local\Temp\ccyEBIku.s 			page 29


 724              	.LFE41:
 725              		.size	GetCosTheta, .-GetCosTheta
 726              		.section	.text.Gestures_CalculateX,"ax",%progbits
 727              		.align	2
 728              		.global	Gestures_CalculateX
 729              		.code	16
 730              		.thumb_func
 731              		.type	Gestures_CalculateX, %function
 732              	Gestures_CalculateX:
 733              	.LFB42:
 610:.\Gesture.c   **** 	int32 x;
 734              		.loc 1 610 0
 735              		.cfi_startproc
 736              	.LVL117:
 737 0000 10B5     		push	{r4, lr}
 738              		.cfi_def_cfa_offset 8
 739              		.cfi_offset 4, -8
 740              		.cfi_offset 14, -4
 741 0002 041C     		mov	r4, r0
 614:.\Gesture.c   **** 	
 742              		.loc 1 614 0
 743 0004 081C     		mov	r0, r1
 744              	.LVL118:
 745 0006 1630     		add	r0, r0, #22
 746              	.LVL119:
 617:.\Gesture.c   **** 	{
 747              		.loc 1 617 0
 748 0008 5A28     		cmp	r0, #90
 749 000a 01DD     		ble	.L73
 620:.\Gesture.c   **** 	}
 750              		.loc 1 620 0
 751 000c 9E39     		sub	r1, r1, #158
 752 000e 081C     		mov	r0, r1
 753              	.LVL120:
 754              	.L73:
 626:.\Gesture.c   **** 
 755              		.loc 1 626 0
 756 0010 FFF7FEFF 		bl	GetCosTheta
 757              	.LVL121:
 758 0014 6043     		mul	r0, r4
 759 0016 8000     		lsl	r0, r0, #2
 760 0018 0012     		asr	r0, r0, #8
 761              	.LVL122:
 630:.\Gesture.c   **** 
 762              		.loc 1 630 0
 763              		@ sp needed
 764              	.LVL123:
 765 001a 10BD     		pop	{r4, pc}
 766              		.cfi_endproc
 767              	.LFE42:
 768              		.size	Gestures_CalculateX, .-Gestures_CalculateX
 769              		.section	.text.Gestures_CalculateY,"ax",%progbits
 770              		.align	2
 771              		.global	Gestures_CalculateY
 772              		.code	16
 773              		.thumb_func
 774              		.type	Gestures_CalculateY, %function
ARM GAS  C:\Users\JAVIER~1\AppData\Local\Temp\ccyEBIku.s 			page 30


 775              	Gestures_CalculateY:
 776              	.LFB43:
 649:.\Gesture.c   **** 	int32 y;
 777              		.loc 1 649 0
 778              		.cfi_startproc
 779              	.LVL124:
 780 0000 10B5     		push	{r4, lr}
 781              		.cfi_def_cfa_offset 8
 782              		.cfi_offset 4, -8
 783              		.cfi_offset 14, -4
 784 0002 041C     		mov	r4, r0
 652:.\Gesture.c   **** 	
 785              		.loc 1 652 0
 786 0004 081C     		mov	r0, r1
 787              	.LVL125:
 788 0006 1630     		add	r0, r0, #22
 789              	.LVL126:
 654:.\Gesture.c   **** 	{
 790              		.loc 1 654 0
 791 0008 5A28     		cmp	r0, #90
 792 000a 01DD     		ble	.L75
 656:.\Gesture.c   **** 	}
 793              		.loc 1 656 0
 794 000c 9E39     		sub	r1, r1, #158
 795 000e 081C     		mov	r0, r1
 796              	.LVL127:
 797              	.L75:
 662:.\Gesture.c   **** 	
 798              		.loc 1 662 0
 799 0010 FFF7FEFF 		bl	GetSinTheta
 800              	.LVL128:
 801 0014 6043     		mul	r0, r4
 802 0016 8000     		lsl	r0, r0, #2
 803 0018 0012     		asr	r0, r0, #8
 804              	.LVL129:
 665:.\Gesture.c   **** 
 805              		.loc 1 665 0
 806              		@ sp needed
 807              	.LVL130:
 808 001a 10BD     		pop	{r4, pc}
 809              		.cfi_endproc
 810              	.LFE43:
 811              		.size	Gestures_CalculateY, .-Gestures_CalculateY
 812              		.global	__aeabi_idiv
 813              		.section	.text.Gestures_GetSector,"ax",%progbits
 814              		.align	2
 815              		.global	Gestures_GetSector
 816              		.code	16
 817              		.thumb_func
 818              		.type	Gestures_GetSector, %function
 819              	Gestures_GetSector:
 820              	.LFB44:
 690:.\Gesture.c   **** 	uint32 sector = INVALID_SECTOR;
 821              		.loc 1 690 0
 822              		.cfi_startproc
 823              	.LVL131:
 824 0000 08B5     		push	{r3, lr}
ARM GAS  C:\Users\JAVIER~1\AppData\Local\Temp\ccyEBIku.s 			page 31


 825              		.cfi_def_cfa_offset 8
 826              		.cfi_offset 3, -8
 827              		.cfi_offset 14, -4
 828              	.LVL132:
 694:.\Gesture.c   **** 	{
 829              		.loc 1 694 0
 830 0002 FA29     		cmp	r1, #250
 831 0004 0DD0     		beq	.L79
 697:.\Gesture.c   **** 		{
 832              		.loc 1 697 0
 833 0006 0028     		cmp	r0, #0
 834 0008 0DD0     		beq	.L80
 835 000a 081E     		sub	r0, r1, #0
 836              	.LVL133:
 704:.\Gesture.c   **** 			{
 837              		.loc 1 704 0
 838 000c 04DB     		blt	.L78
 706:.\Gesture.c   **** 			}
 839              		.loc 1 706 0
 840 000e 2D21     		mov	r1, #45
 841              	.LVL134:
 842 0010 FFF7FEFF 		bl	__aeabi_idiv
 843              	.LVL135:
 844 0014 0130     		add	r0, r0, #1
 845              	.LVL136:
 846 0016 07E0     		b	.L77
 847              	.LVL137:
 848              	.L78:
 710:.\Gesture.c   **** 			}			
 849              		.loc 1 710 0
 850 0018 2D21     		mov	r1, #45
 851 001a FFF7FEFF 		bl	__aeabi_idiv
 852              	.LVL138:
 853 001e 0430     		add	r0, r0, #4
 854              	.LVL139:
 855 0020 02E0     		b	.L77
 856              	.LVL140:
 857              	.L79:
 691:.\Gesture.c   **** 	
 858              		.loc 1 691 0
 859 0022 FF20     		mov	r0, #255
 860              	.LVL141:
 861 0024 00E0     		b	.L77
 862              	.LVL142:
 863              	.L80:
 699:.\Gesture.c   **** 		}
 864              		.loc 1 699 0
 865 0026 0020     		mov	r0, #0
 866              	.LVL143:
 867              	.L77:
 716:.\Gesture.c   **** 
 868              		.loc 1 716 0
 869              		@ sp needed
 870 0028 08BD     		pop	{r3, pc}
 871              		.cfi_endproc
 872              	.LFE44:
 873              		.size	Gestures_GetSector, .-Gestures_GetSector
ARM GAS  C:\Users\JAVIER~1\AppData\Local\Temp\ccyEBIku.s 			page 32


 874 002a C046     		.section	.text.Gestures_Process,"ax",%progbits
 875              		.align	2
 876              		.code	16
 877              		.thumb_func
 878              		.type	Gestures_Process, %function
 879              	Gestures_Process:
 880              	.LFB46:
 810:.\Gesture.c   **** 
 811:.\Gesture.c   **** /*******************************************************************************
 812:.\Gesture.c   **** * Function Name: Gestures_Process
 813:.\Gesture.c   **** ********************************************************************************
 814:.\Gesture.c   **** *
 815:.\Gesture.c   **** * Summary:
 816:.\Gesture.c   **** * This function processes the current activity on Gesture Pad and returns the
 817:.\Gesture.c   **** *	gesture detected
 818:.\Gesture.c   **** *
 819:.\Gesture.c   **** * Parameters:
 820:.\Gesture.c   **** * radius - Polar coordinate radius  (0 to 4)
 821:.\Gesture.c   **** * theta - Polar coordinate theta (-90 to 90);
 822:.\Gesture.c   **** *			1 count = 2 degrees;
 823:.\Gesture.c   **** *
 824:.\Gesture.c   **** * Return:
 825:.\Gesture.c   **** * tGestureId - gesture ID (refer to Gestures.h for details)
 826:.\Gesture.c   **** *
 827:.\Gesture.c   **** *******************************************************************************/
 828:.\Gesture.c   **** tGestureId Gestures_Process(uint32 radius, int32 theta)
 829:.\Gesture.c   **** {
 881              		.loc 1 829 0
 882              		.cfi_startproc
 883              	.LVL144:
 884 0000 F8B5     		push	{r3, r4, r5, r6, r7, lr}
 885              		.cfi_def_cfa_offset 24
 886              		.cfi_offset 3, -24
 887              		.cfi_offset 4, -20
 888              		.cfi_offset 5, -16
 889              		.cfi_offset 6, -12
 890              		.cfi_offset 7, -8
 891              		.cfi_offset 14, -4
 892 0002 051C     		mov	r5, r0
 893 0004 0C1C     		mov	r4, r1
 894              	.LVL145:
 830:.\Gesture.c   **** 	tGestureId gesture = GESTURE_NONE;
 831:.\Gesture.c   **** 	static tGestureId stickyGesture = GESTURE_NONE;
 832:.\Gesture.c   **** 	static uint32 tapCounter, firstRadius, prevRadius;
 833:.\Gesture.c   **** 	static int32 firstTheta, prevTheta;
 834:.\Gesture.c   **** 	static uint32 processState = GESTURE_STATE_IDLE, debounceCounter;
 835:.\Gesture.c   **** 	static uint32 Gesture_sectorHistory[3] = {INVALID_SECTOR, INVALID_SECTOR, INVALID_SECTOR};
 836:.\Gesture.c   **** 	
 837:.\Gesture.c   **** 	int32 radiusChange, thetaChange;
 838:.\Gesture.c   **** 	uint32 sector, sectorHistorySum;
 839:.\Gesture.c   **** 	
 840:.\Gesture.c   **** 	/* Run the gesture recognition */
 841:.\Gesture.c   **** 	switch(processState)
 895              		.loc 1 841 0
 896 0006 C84B     		ldr	r3, .L126
 897 0008 1A68     		ldr	r2, [r3]
 898 000a 072A     		cmp	r2, #7
ARM GAS  C:\Users\JAVIER~1\AppData\Local\Temp\ccyEBIku.s 			page 33


 899 000c 00D9     		bls	.LCB955
 900 000e 83E1     		b	.L120	@long jump
 901              	.LCB955:
 902 0010 9300     		lsl	r3, r2, #2
 903 0012 C64A     		ldr	r2, .L126+4
 904 0014 D358     		ldr	r3, [r2, r3]
 905 0016 9F46     		mov	pc, r3
 906              		.section	.rodata
 907              		.align	2
 908              	.L84:
 909 002c 18030000 		.word	.L120
 910 0030 18000000 		.word	.L83
 911 0034 34000000 		.word	.L85
 912 0038 B6000000 		.word	.L86
 913 003c 3C010000 		.word	.L87
 914 0040 F6010000 		.word	.L88
 915 0044 B8020000 		.word	.L89
 916 0048 EA020000 		.word	.L90
 917              		.section	.text.Gestures_Process
 918              	.L83:
 842:.\Gesture.c   **** 	{
 843:.\Gesture.c   **** 		/* Stay in IDLE state if no finger is present or theta is invalid */
 844:.\Gesture.c   **** 		case GESTURE_STATE_IDLE:
 845:.\Gesture.c   **** 			if(theta != INVALID_ANGLE)
 919              		.loc 1 845 0
 920 0018 FA29     		cmp	r1, #250
 921 001a 00D1     		bne	.LCB968
 922 001c 7EE1     		b	.L121	@long jump
 923              	.LCB968:
 846:.\Gesture.c   **** 			{
 847:.\Gesture.c   **** 				/* Store the first radius, theta and sector details, when first valid theta is detected ==> fin
 848:.\Gesture.c   **** 				firstRadius = radius;
 924              		.loc 1 848 0
 925 001e C44B     		ldr	r3, .L126+8
 926 0020 5860     		str	r0, [r3, #4]
 849:.\Gesture.c   **** 				firstTheta = theta;				
 927              		.loc 1 849 0
 928 0022 9960     		str	r1, [r3, #8]
 850:.\Gesture.c   **** 				Gesture_sectorHistory[FIRST_SECTOR_INDEX] = Gestures_GetSector(radius, theta);
 929              		.loc 1 850 0
 930 0024 FFF7FEFF 		bl	Gestures_GetSector
 931              	.LVL146:
 932 0028 BF4B     		ldr	r3, .L126
 933 002a 5860     		str	r0, [r3, #4]
 851:.\Gesture.c   **** 				
 852:.\Gesture.c   **** 				/* Move the state to 1st sector process */
 853:.\Gesture.c   **** 				processState = GESTURE_STATE_1ST_SECTOR;
 934              		.loc 1 853 0
 935 002c 0222     		mov	r2, #2
 936 002e 1A60     		str	r2, [r3]
 830:.\Gesture.c   **** 	static tGestureId stickyGesture = GESTURE_NONE;
 937              		.loc 1 830 0
 938 0030 0020     		mov	r0, #0
 939 0032 88E1     		b	.L82
 940              	.LVL147:
 941              	.L85:
 854:.\Gesture.c   **** 			}
ARM GAS  C:\Users\JAVIER~1\AppData\Local\Temp\ccyEBIku.s 			page 34


 855:.\Gesture.c   **** 		break;
 856:.\Gesture.c   **** 		
 857:.\Gesture.c   **** 			/* 1st sector process - Buttons are processed in this state */
 858:.\Gesture.c   **** 		case GESTURE_STATE_1ST_SECTOR:
 859:.\Gesture.c   **** 			/* Check for valid theta */			
 860:.\Gesture.c   **** 			if(theta != INVALID_ANGLE)
 942              		.loc 1 860 0
 943 0034 FA29     		cmp	r1, #250
 944 0036 2ED0     		beq	.L91
 861:.\Gesture.c   **** 			{
 862:.\Gesture.c   **** 				/* If tap counter has crossed the long press time, report the button active status */
 863:.\Gesture.c   **** 				if(tapCounter > (TAP_TIME_1_SEC*10))
 945              		.loc 1 863 0
 946 0038 BD4B     		ldr	r3, .L126+8
 947 003a DB68     		ldr	r3, [r3, #12]
 948 003c FA22     		mov	r2, #250
 949 003e 9200     		lsl	r2, r2, #2
 950 0040 9342     		cmp	r3, r2
 951 0042 07D9     		bls	.L92
 864:.\Gesture.c   **** 				{
 865:.\Gesture.c   **** 					capsenseButtonStatus = sectorToButtonLookup[Gesture_sectorHistory[FIRST_SECTOR_INDEX]];
 952              		.loc 1 865 0
 953 0044 B84B     		ldr	r3, .L126
 954 0046 5B68     		ldr	r3, [r3, #4]
 955 0048 9B00     		lsl	r3, r3, #2
 956 004a BA4A     		ldr	r2, .L126+12
 957 004c 9A58     		ldr	r2, [r3, r2]
 958 004e BA4B     		ldr	r3, .L126+16
 959 0050 1A60     		str	r2, [r3]
 960 0052 02E0     		b	.L93
 961              	.L92:
 866:.\Gesture.c   **** 				}
 867:.\Gesture.c   **** 				else
 868:.\Gesture.c   **** 				{
 869:.\Gesture.c   **** 					tapCounter++;
 962              		.loc 1 869 0
 963 0054 0133     		add	r3, r3, #1
 964 0056 B64A     		ldr	r2, .L126+8
 965 0058 D360     		str	r3, [r2, #12]
 966              	.L93:
 870:.\Gesture.c   **** 				}
 871:.\Gesture.c   **** 				
 872:.\Gesture.c   **** 				/* Monitor the radius and theta change from first touch, if either of them change by a predefin
 873:.\Gesture.c   **** 					Move to 1st sector moved state as this state processes buttons */
 874:.\Gesture.c   **** 				radiusChange = firstRadius - radius;
 967              		.loc 1 874 0
 968 005a B54B     		ldr	r3, .L126+8
 969 005c 5A68     		ldr	r2, [r3, #4]
 970 005e 521B     		sub	r2, r2, r5
 971              	.LVL148:
 875:.\Gesture.c   **** 				if(radiusChange < 0)
 972              		.loc 1 875 0
 973 0060 00D5     		bpl	.L94
 876:.\Gesture.c   **** 				{
 877:.\Gesture.c   **** 					radiusChange = -radiusChange;
 974              		.loc 1 877 0
 975 0062 5242     		neg	r2, r2
ARM GAS  C:\Users\JAVIER~1\AppData\Local\Temp\ccyEBIku.s 			page 35


 976              	.LVL149:
 977              	.L94:
 878:.\Gesture.c   **** 				}
 879:.\Gesture.c   **** 				
 880:.\Gesture.c   **** 				thetaChange = firstTheta - theta;
 978              		.loc 1 880 0
 979 0064 B24B     		ldr	r3, .L126+8
 980 0066 9B68     		ldr	r3, [r3, #8]
 981 0068 1B1B     		sub	r3, r3, r4
 982              	.LVL150:
 881:.\Gesture.c   **** 				if(thetaChange < 0)
 983              		.loc 1 881 0
 984 006a 00D5     		bpl	.L95
 882:.\Gesture.c   **** 				{
 883:.\Gesture.c   **** 					thetaChange = -thetaChange;
 985              		.loc 1 883 0
 986 006c 5B42     		neg	r3, r3
 987              	.LVL151:
 988              	.L95:
 884:.\Gesture.c   **** 				}
 885:.\Gesture.c   **** 				
 886:.\Gesture.c   **** 				if((thetaChange >= THETA_CHANGE_THRESHOLD) || (radiusChange >= RADIUS_CHANGE_THRESHOLD))
 989              		.loc 1 886 0
 990 006e 152B     		cmp	r3, #21
 991 0070 01DC     		bgt	.L96
 992              		.loc 1 886 0 is_stmt 0 discriminator 1
 993 0072 012A     		cmp	r2, #1
 994 0074 05DD     		ble	.L97
 995              	.L96:
 887:.\Gesture.c   **** 				{
 888:.\Gesture.c   **** 					processState = GESTURE_STATE_1ST_SECTOR_MOVED;
 996              		.loc 1 888 0 is_stmt 1
 997 0076 0322     		mov	r2, #3
 998              	.LVL152:
 999 0078 AB4B     		ldr	r3, .L126
 1000              	.LVL153:
 1001 007a 1A60     		str	r2, [r3]
 889:.\Gesture.c   **** 					tapCounter = 0;
 1002              		.loc 1 889 0
 1003 007c 0022     		mov	r2, #0
 1004 007e AC4B     		ldr	r3, .L126+8
 1005 0080 DA60     		str	r2, [r3, #12]
 1006              	.L97:
 890:.\Gesture.c   **** 				}
 891:.\Gesture.c   **** 				
 892:.\Gesture.c   **** 				/* Accumulate radius change */				
 893:.\Gesture.c   **** 				radiusChange = radius - prevRadius;
 1007              		.loc 1 893 0
 1008 0082 AB4B     		ldr	r3, .L126+8
 1009 0084 1B69     		ldr	r3, [r3, #16]
 1010 0086 EB1A     		sub	r3, r5, r3
 1011              	.LVL154:
 894:.\Gesture.c   **** 				accRadius += radiusChange;
 1012              		.loc 1 894 0
 1013 0088 AC4A     		ldr	r2, .L126+20
 1014 008a 1168     		ldr	r1, [r2]
 1015              	.LVL155:
ARM GAS  C:\Users\JAVIER~1\AppData\Local\Temp\ccyEBIku.s 			page 36


 1016 008c 8C46     		mov	ip, r1
 1017 008e 6344     		add	r3, r3, ip
 1018              	.LVL156:
 1019 0090 1360     		str	r3, [r2]
 830:.\Gesture.c   **** 	static tGestureId stickyGesture = GESTURE_NONE;
 1020              		.loc 1 830 0
 1021 0092 0020     		mov	r0, #0
 1022              	.LVL157:
 1023 0094 57E1     		b	.L82
 1024              	.LVL158:
 1025              	.L91:
 895:.\Gesture.c   **** 			}
 896:.\Gesture.c   **** 			/* If theta becomes invalid i.e. touch is released, report tap on the particular sector/button *
 897:.\Gesture.c   **** 			else
 898:.\Gesture.c   **** 			{
 899:.\Gesture.c   **** 				if(tapCounter < TAP_TIME_1_SEC)
 1026              		.loc 1 899 0
 1027 0096 A64B     		ldr	r3, .L126+8
 1028 0098 DB68     		ldr	r3, [r3, #12]
 1029 009a 632B     		cmp	r3, #99
 1030 009c 06D8     		bhi	.L98
 900:.\Gesture.c   **** 				{
 901:.\Gesture.c   **** 					capsenseButtonStatus = sectorToButtonLookup[Gesture_sectorHistory[FIRST_SECTOR_INDEX]];
 1031              		.loc 1 901 0
 1032 009e A24B     		ldr	r3, .L126
 1033 00a0 5B68     		ldr	r3, [r3, #4]
 1034 00a2 9B00     		lsl	r3, r3, #2
 1035 00a4 A34A     		ldr	r2, .L126+12
 1036 00a6 9A58     		ldr	r2, [r3, r2]
 1037 00a8 A34B     		ldr	r3, .L126+16
 1038 00aa 1A60     		str	r2, [r3]
 1039              	.L98:
 902:.\Gesture.c   **** 				}
 903:.\Gesture.c   **** 				
 904:.\Gesture.c   **** 				/* Move to the gesture release state to clear the state machine variables for next cycle */
 905:.\Gesture.c   **** 				processState = GESTURE_STATE_SECTOR_RELEASE;
 1040              		.loc 1 905 0
 1041 00ac 0722     		mov	r2, #7
 1042 00ae 9E4B     		ldr	r3, .L126
 1043 00b0 1A60     		str	r2, [r3]
 830:.\Gesture.c   **** 	static tGestureId stickyGesture = GESTURE_NONE;
 1044              		.loc 1 830 0
 1045 00b2 0020     		mov	r0, #0
 1046              	.LVL159:
 1047 00b4 47E1     		b	.L82
 1048              	.LVL160:
 1049              	.L86:
 906:.\Gesture.c   **** 			}
 907:.\Gesture.c   **** 		break;
 908:.\Gesture.c   **** 		
 909:.\Gesture.c   **** 		/* 1st sector moved state - monitors sector change */
 910:.\Gesture.c   **** 		case GESTURE_STATE_1ST_SECTOR_MOVED:
 911:.\Gesture.c   **** 			if(theta != INVALID_ANGLE)
 1050              		.loc 1 911 0
 1051 00b6 FA29     		cmp	r1, #250
 1052 00b8 3BD0     		beq	.L99
 912:.\Gesture.c   **** 			{
ARM GAS  C:\Users\JAVIER~1\AppData\Local\Temp\ccyEBIku.s 			page 37


 913:.\Gesture.c   **** 				/* accumulate radius and theta for calculations */
 914:.\Gesture.c   **** 				thetaChange = theta - prevTheta;
 1053              		.loc 1 914 0
 1054 00ba 9D4B     		ldr	r3, .L126+8
 1055 00bc 5B69     		ldr	r3, [r3, #20]
 1056 00be CB1A     		sub	r3, r1, r3
 1057              	.LVL161:
 915:.\Gesture.c   **** 				
 916:.\Gesture.c   **** 				/* Logic to avoid theta change overflows at theta cross over junctions (180 and 0 degrees) */
 917:.\Gesture.c   **** 				if(thetaChange > ANGLE_90)
 1058              		.loc 1 917 0
 1059 00c0 2D2B     		cmp	r3, #45
 1060 00c2 01DD     		ble	.L100
 918:.\Gesture.c   **** 				{
 919:.\Gesture.c   **** 					thetaChange = thetaChange - 2*ANGLE_180;
 1061              		.loc 1 919 0
 1062 00c4 B43B     		sub	r3, r3, #180
 1063              	.LVL162:
 1064 00c6 03E0     		b	.L101
 1065              	.L100:
 920:.\Gesture.c   **** 				}
 921:.\Gesture.c   **** 				else if(thetaChange < -ANGLE_90)
 1066              		.loc 1 921 0
 1067 00c8 1A1C     		mov	r2, r3
 1068 00ca 2D32     		add	r2, r2, #45
 1069 00cc 00DA     		bge	.L101
 922:.\Gesture.c   **** 				{
 923:.\Gesture.c   **** 					thetaChange = 2*ANGLE_180 + thetaChange;
 1070              		.loc 1 923 0
 1071 00ce B433     		add	r3, r3, #180
 1072              	.LVL163:
 1073              	.L101:
 924:.\Gesture.c   **** 				}
 925:.\Gesture.c   **** 				
 926:.\Gesture.c   **** 				accTheta += thetaChange;
 1074              		.loc 1 926 0
 1075 00d0 9B4A     		ldr	r2, .L126+24
 1076 00d2 1168     		ldr	r1, [r2]
 1077              	.LVL164:
 1078 00d4 8C46     		mov	ip, r1
 1079 00d6 6344     		add	r3, r3, ip
 1080              	.LVL165:
 1081 00d8 1360     		str	r3, [r2]
 927:.\Gesture.c   **** 				
 928:.\Gesture.c   **** 				radiusChange = radius - prevRadius;
 1082              		.loc 1 928 0
 1083 00da 954B     		ldr	r3, .L126+8
 1084 00dc 1B69     		ldr	r3, [r3, #16]
 1085 00de EB1A     		sub	r3, r5, r3
 1086              	.LVL166:
 929:.\Gesture.c   **** 				accRadius += radiusChange;
 1087              		.loc 1 929 0
 1088 00e0 964A     		ldr	r2, .L126+20
 1089 00e2 1168     		ldr	r1, [r2]
 1090 00e4 8C46     		mov	ip, r1
 1091 00e6 6344     		add	r3, r3, ip
 1092              	.LVL167:
ARM GAS  C:\Users\JAVIER~1\AppData\Local\Temp\ccyEBIku.s 			page 38


 1093 00e8 1360     		str	r3, [r2]
 930:.\Gesture.c   **** 				
 931:.\Gesture.c   **** 				/* Monitor the sector */
 932:.\Gesture.c   **** 				sector = Gestures_GetSector(radius, theta);
 1094              		.loc 1 932 0
 1095 00ea 281C     		mov	r0, r5
 1096              	.LVL168:
 1097 00ec 211C     		mov	r1, r4
 1098 00ee FFF7FEFF 		bl	Gestures_GetSector
 1099              	.LVL169:
 933:.\Gesture.c   **** 				
 934:.\Gesture.c   **** 				/* If there is a change in sector, move to 2nd sector state or outward swipe state depending on
 935:.\Gesture.c   **** 					first active sector */
 936:.\Gesture.c   **** 				if(sector != Gesture_sectorHistory[FIRST_SECTOR_INDEX])
 1100              		.loc 1 936 0
 1101 00f2 8D4B     		ldr	r3, .L126
 1102 00f4 5A68     		ldr	r2, [r3, #4]
 1103 00f6 8242     		cmp	r2, r0
 1104 00f8 16D0     		beq	.L102
 937:.\Gesture.c   **** 				{
 938:.\Gesture.c   **** 					/* Sector change is accepted only after a debounce */
 939:.\Gesture.c   **** 					debounceCounter++;
 1105              		.loc 1 939 0
 1106 00fa 8D49     		ldr	r1, .L126+8
 1107 00fc 8B69     		ldr	r3, [r1, #24]
 1108 00fe 0133     		add	r3, r3, #1
 1109 0100 8B61     		str	r3, [r1, #24]
 940:.\Gesture.c   **** 					if(debounceCounter > SECTOR_DEBOUNCE)
 1110              		.loc 1 940 0
 1111 0102 032B     		cmp	r3, #3
 1112 0104 00D8     		bhi	.LCB1163
 1113 0106 0BE1     		b	.L122	@long jump
 1114              	.LCB1163:
 941:.\Gesture.c   **** 					{
 942:.\Gesture.c   **** 						/* If first sector was 0 and there is a sector change, report outward swipe */
 943:.\Gesture.c   **** 						if(Gesture_sectorHistory[FIRST_SECTOR_INDEX] == SECTOR_0)
 1115              		.loc 1 943 0
 1116 0108 002A     		cmp	r2, #0
 1117 010a 03D1     		bne	.L103
 944:.\Gesture.c   **** 						{
 945:.\Gesture.c   **** 							processState = GESTURE_STATE_OUTWARD_SWIPE;
 1118              		.loc 1 945 0
 1119 010c 0632     		add	r2, r2, #6
 1120 010e 864B     		ldr	r3, .L126
 1121 0110 1A60     		str	r2, [r3]
 1122 0112 02E0     		b	.L104
 1123              	.L103:
 946:.\Gesture.c   **** 						}
 947:.\Gesture.c   **** 						else
 948:.\Gesture.c   **** 						{
 949:.\Gesture.c   **** 							processState = GESTURE_STATE_2ND_SECTOR;
 1124              		.loc 1 949 0
 1125 0114 0422     		mov	r2, #4
 1126 0116 844B     		ldr	r3, .L126
 1127 0118 1A60     		str	r2, [r3]
 1128              	.L104:
 950:.\Gesture.c   **** 						}
ARM GAS  C:\Users\JAVIER~1\AppData\Local\Temp\ccyEBIku.s 			page 39


 951:.\Gesture.c   **** 						
 952:.\Gesture.c   **** 						/* Store the new sector */
 953:.\Gesture.c   **** 						Gesture_sectorHistory[SECOND_SECTOR_INDEX] = sector;
 1129              		.loc 1 953 0
 1130 011a 834B     		ldr	r3, .L126
 1131 011c 9860     		str	r0, [r3, #8]
 954:.\Gesture.c   **** 						debounceCounter = 0;
 1132              		.loc 1 954 0
 1133 011e 0022     		mov	r2, #0
 1134 0120 834B     		ldr	r3, .L126+8
 1135 0122 9A61     		str	r2, [r3, #24]
 830:.\Gesture.c   **** 	static tGestureId stickyGesture = GESTURE_NONE;
 1136              		.loc 1 830 0
 1137 0124 0020     		mov	r0, #0
 1138              	.LVL170:
 1139 0126 0EE1     		b	.L82
 1140              	.LVL171:
 1141              	.L102:
 955:.\Gesture.c   **** 					}
 956:.\Gesture.c   **** 				}
 957:.\Gesture.c   **** 				else
 958:.\Gesture.c   **** 				{
 959:.\Gesture.c   **** 					debounceCounter = 0;
 1142              		.loc 1 959 0
 1143 0128 0022     		mov	r2, #0
 1144 012a 814B     		ldr	r3, .L126+8
 1145 012c 9A61     		str	r2, [r3, #24]
 830:.\Gesture.c   **** 	static tGestureId stickyGesture = GESTURE_NONE;
 1146              		.loc 1 830 0
 1147 012e 0020     		mov	r0, #0
 1148              	.LVL172:
 1149 0130 09E1     		b	.L82
 1150              	.LVL173:
 1151              	.L99:
 960:.\Gesture.c   **** 				}
 961:.\Gesture.c   **** 			}
 962:.\Gesture.c   **** 			else
 963:.\Gesture.c   **** 			{
 964:.\Gesture.c   **** 				/* If the finger is released (theta invalid), move to gesture release state */
 965:.\Gesture.c   **** 				processState = GESTURE_STATE_SECTOR_RELEASE;
 1152              		.loc 1 965 0
 1153 0132 0722     		mov	r2, #7
 1154 0134 7C4B     		ldr	r3, .L126
 1155 0136 1A60     		str	r2, [r3]
 830:.\Gesture.c   **** 	static tGestureId stickyGesture = GESTURE_NONE;
 1156              		.loc 1 830 0
 1157 0138 0020     		mov	r0, #0
 1158              	.LVL174:
 1159 013a 04E1     		b	.L82
 1160              	.LVL175:
 1161              	.L87:
 966:.\Gesture.c   **** 			}
 967:.\Gesture.c   **** 		break;
 968:.\Gesture.c   **** 		
 969:.\Gesture.c   **** 		/* 2nd sector state, the state machine will remain in this state as long as finger is present and
 970:.\Gesture.c   **** 		case GESTURE_STATE_2ND_SECTOR:
 971:.\Gesture.c   **** 			/* Stay in state till a valid theta is present */
ARM GAS  C:\Users\JAVIER~1\AppData\Local\Temp\ccyEBIku.s 			page 40


 972:.\Gesture.c   **** 			if(theta != INVALID_ANGLE)
 1162              		.loc 1 972 0
 1163 013c FA29     		cmp	r1, #250
 1164 013e 55D0     		beq	.L105
 973:.\Gesture.c   **** 			{				
 974:.\Gesture.c   **** 				/* Accumulate theta and radius changes */
 975:.\Gesture.c   **** 				thetaChange = theta - prevTheta;
 1165              		.loc 1 975 0
 1166 0140 7B4B     		ldr	r3, .L126+8
 1167 0142 5B69     		ldr	r3, [r3, #20]
 1168 0144 CB1A     		sub	r3, r1, r3
 1169              	.LVL176:
 976:.\Gesture.c   **** 				
 977:.\Gesture.c   **** 				/* Theta overflow/underflow correction */
 978:.\Gesture.c   **** 				if(thetaChange > ANGLE_90)
 1170              		.loc 1 978 0
 1171 0146 2D2B     		cmp	r3, #45
 1172 0148 01DD     		ble	.L106
 979:.\Gesture.c   **** 				{
 980:.\Gesture.c   **** 					thetaChange = thetaChange - 2*ANGLE_180;
 1173              		.loc 1 980 0
 1174 014a B43B     		sub	r3, r3, #180
 1175              	.LVL177:
 1176 014c 03E0     		b	.L107
 1177              	.L106:
 981:.\Gesture.c   **** 				}
 982:.\Gesture.c   **** 				else if(thetaChange < -ANGLE_90)
 1178              		.loc 1 982 0
 1179 014e 1A1C     		mov	r2, r3
 1180 0150 2D32     		add	r2, r2, #45
 1181 0152 00DA     		bge	.L107
 983:.\Gesture.c   **** 				{
 984:.\Gesture.c   **** 					thetaChange = 2*ANGLE_180 + thetaChange;
 1182              		.loc 1 984 0
 1183 0154 B433     		add	r3, r3, #180
 1184              	.LVL178:
 1185              	.L107:
 985:.\Gesture.c   **** 				}
 986:.\Gesture.c   **** 				
 987:.\Gesture.c   **** 				accTheta += thetaChange;
 1186              		.loc 1 987 0
 1187 0156 7A4A     		ldr	r2, .L126+24
 1188 0158 1168     		ldr	r1, [r2]
 1189              	.LVL179:
 1190 015a 8C46     		mov	ip, r1
 1191 015c 6344     		add	r3, r3, ip
 1192              	.LVL180:
 1193 015e 1360     		str	r3, [r2]
 988:.\Gesture.c   **** 				
 989:.\Gesture.c   **** 				radiusChange = radius - prevRadius;
 1194              		.loc 1 989 0
 1195 0160 734B     		ldr	r3, .L126+8
 1196 0162 1B69     		ldr	r3, [r3, #16]
 1197 0164 EB1A     		sub	r3, r5, r3
 1198              	.LVL181:
 990:.\Gesture.c   **** 				accRadius += radiusChange;
 1199              		.loc 1 990 0
ARM GAS  C:\Users\JAVIER~1\AppData\Local\Temp\ccyEBIku.s 			page 41


 1200 0166 754A     		ldr	r2, .L126+20
 1201 0168 1168     		ldr	r1, [r2]
 1202 016a 8C46     		mov	ip, r1
 1203 016c 6344     		add	r3, r3, ip
 1204              	.LVL182:
 1205 016e 1360     		str	r3, [r2]
 991:.\Gesture.c   **** 				
 992:.\Gesture.c   **** 				/* Read the current sector */
 993:.\Gesture.c   **** 				sector = Gestures_GetSector(radius, theta);
 1206              		.loc 1 993 0
 1207 0170 281C     		mov	r0, r5
 1208              	.LVL183:
 1209 0172 211C     		mov	r1, r4
 1210 0174 FFF7FEFF 		bl	Gestures_GetSector
 1211              	.LVL184:
 994:.\Gesture.c   **** 				
 995:.\Gesture.c   **** 				/* Check if the sector has changed */
 996:.\Gesture.c   **** 				if(sector != Gesture_sectorHistory[SECOND_SECTOR_INDEX])
 1212              		.loc 1 996 0
 1213 0178 6B4B     		ldr	r3, .L126
 1214 017a 9B68     		ldr	r3, [r3, #8]
 1215 017c 8342     		cmp	r3, r0
 1216 017e 30D0     		beq	.L108
 997:.\Gesture.c   **** 				{
 998:.\Gesture.c   **** 					debounceCounter++;
 1217              		.loc 1 998 0
 1218 0180 6B49     		ldr	r1, .L126+8
 1219 0182 8A69     		ldr	r2, [r1, #24]
 1220 0184 0132     		add	r2, r2, #1
 1221 0186 8A61     		str	r2, [r1, #24]
 999:.\Gesture.c   **** 					
1000:.\Gesture.c   **** 					/* Debounce the sector change before processing the sector change related activities */
1001:.\Gesture.c   **** 					if(debounceCounter > SECTOR_DEBOUNCE)
 1222              		.loc 1 1001 0
 1223 0188 032A     		cmp	r2, #3
 1224 018a 00D8     		bhi	.LCB1277
 1225 018c CAE0     		b	.L123	@long jump
 1226              	.LCB1277:
1002:.\Gesture.c   **** 					{
1003:.\Gesture.c   **** 						/* If a sector change occurs, then this would be the third sector change.
1004:.\Gesture.c   **** 							Hence update the sector history and process gestures (we require a minimum 
1005:.\Gesture.c   **** 							three sectors to process a gesture). */
1006:.\Gesture.c   **** 						processState = GESTURE_STATE_3RD_SECTOR;
 1227              		.loc 1 1006 0
 1228 018e 664E     		ldr	r6, .L126
 1229 0190 0522     		mov	r2, #5
 1230 0192 3260     		str	r2, [r6]
1007:.\Gesture.c   **** 						Gesture_sectorHistory[THIRD_SECTOR_INDEX] = sector;
 1231              		.loc 1 1007 0
 1232 0194 F060     		str	r0, [r6, #12]
1008:.\Gesture.c   **** 						
1009:.\Gesture.c   **** 						/* Calculate the unique sector sum gesture detection */
1010:.\Gesture.c   **** 						sectorHistorySum = sectorLookup[Gesture_sectorHistory[THIRD_SECTOR_INDEX]] * THIRD_SECTOR_WEI
 1233              		.loc 1 1010 0
 1234 0196 6749     		ldr	r1, .L126+12
 1235 0198 8000     		lsl	r0, r0, #2
 1236              	.LVL185:
ARM GAS  C:\Users\JAVIER~1\AppData\Local\Temp\ccyEBIku.s 			page 42


 1237 019a 0818     		add	r0, r1, r0
 1238 019c 4769     		ldr	r7, [r0, #20]
 1239 019e F800     		lsl	r0, r7, #3
 1240 01a0 C019     		add	r0, r0, r7
 1241 01a2 4000     		lsl	r0, r0, #1
 1242 01a4 C019     		add	r0, r0, r7
1011:.\Gesture.c   **** 									+ sectorLookup[Gesture_sectorHistory[SECOND_SECTOR_INDEX]] * SECOND_SECTOR_WEIGHT
 1243              		.loc 1 1011 0
 1244 01a6 9B00     		lsl	r3, r3, #2
 1245 01a8 CB18     		add	r3, r1, r3
 1246 01aa 5A69     		ldr	r2, [r3, #20]
 1247 01ac 1301     		lsl	r3, r2, #4
 1248 01ae 9A18     		add	r2, r3, r2
 1249 01b0 8218     		add	r2, r0, r2
1012:.\Gesture.c   **** 									+ sectorLookup[Gesture_sectorHistory[FIRST_SECTOR_INDEX]] * FIRST_SECTOR_WEIGHT;
 1250              		.loc 1 1012 0
 1251 01b2 7368     		ldr	r3, [r6, #4]
 1252 01b4 9B00     		lsl	r3, r3, #2
 1253 01b6 CB18     		add	r3, r1, r3
 1254 01b8 5B69     		ldr	r3, [r3, #20]
 1255 01ba 5800     		lsl	r0, r3, #1
 1256 01bc C018     		add	r0, r0, r3
 1257 01be 8000     		lsl	r0, r0, #2
 1258 01c0 C318     		add	r3, r0, r3
1010:.\Gesture.c   **** 									+ sectorLookup[Gesture_sectorHistory[SECOND_SECTOR_INDEX]] * SECOND_SECTOR_WEIGHT
 1259              		.loc 1 1010 0
 1260 01c2 D018     		add	r0, r2, r3
 1261              	.LVL186:
1013:.\Gesture.c   **** 						
1014:.\Gesture.c   **** 						gesture = Gestures_LookUpGesture(sectorHistorySum, firstRadius);
 1262              		.loc 1 1014 0
 1263 01c4 5A4B     		ldr	r3, .L126+8
 1264 01c6 5968     		ldr	r1, [r3, #4]
 1265 01c8 FFF7FEFF 		bl	Gestures_LookUpGesture
 1266              	.LVL187:
 1267 01cc 021C     		mov	r2, r0
 1268              	.LVL188:
1015:.\Gesture.c   **** 						
1016:.\Gesture.c   **** 						/* Make the gesture as sticky for UP/DOWN swipe
1017:.\Gesture.c   **** 							sticky means the gesture will be reported as long as the finger is held in the sector */
1018:.\Gesture.c   ****                         #if (NO_OF_STICKY_GESTURES == 0)
1019:.\Gesture.c   ****                             if(STICKY_GESTURE_CONDITION)
1020:.\Gesture.c   ****                         #elif (NO_OF_STICKY_GESTURES == 1)
1021:.\Gesture.c   ****                             if(STICKY_GESTURE_CONDITION(gesture,STICKY_GESTURE_1))     
1022:.\Gesture.c   ****                         #elif (NO_OF_STICKY_GESTURES == 2)
1023:.\Gesture.c   ****                             if(STICKY_GESTURE_CONDITION(gesture,STICKY_GESTURE_1,STICKY_GESTURE_2))
 1269              		.loc 1 1023 0
 1270 01ce D31F     		sub	r3, r2, #7
 1271 01d0 DBB2     		uxtb	r3, r3
 1272 01d2 012B     		cmp	r3, #1
 1273 01d4 01D8     		bhi	.L109
1024:.\Gesture.c   ****                         #elif (NO_OF_STICKY_GESTURES == 3)
1025:.\Gesture.c   ****                             if(STICKY_GESTURE_CONDITION(gesture,STICKY_GESTURE_1,STICKY_GESTURE_2,S
1026:.\Gesture.c   ****                         #else        
1027:.\Gesture.c   ****                             if(STICKY_GESTURE_CONDITION(gesture,STICKY_GESTURE_1,STICKY_GESTURE_2,S
1028:.\Gesture.c   ****                         #endif						
1029:.\Gesture.c   **** 						{
ARM GAS  C:\Users\JAVIER~1\AppData\Local\Temp\ccyEBIku.s 			page 43


1030:.\Gesture.c   **** 							stickyGesture = gesture;
 1274              		.loc 1 1030 0
 1275 01d6 564B     		ldr	r3, .L126+8
 1276 01d8 1A77     		strb	r2, [r3, #28]
 1277              	.L109:
1031:.\Gesture.c   **** 						}
1032:.\Gesture.c   **** 						
1033:.\Gesture.c   **** 						debounceCounter = 0;
 1278              		.loc 1 1033 0
 1279 01da 0022     		mov	r2, #0
 1280              	.LVL189:
 1281 01dc 544B     		ldr	r3, .L126+8
 1282 01de 9A61     		str	r2, [r3, #24]
 1283 01e0 B1E0     		b	.L82
 1284              	.LVL190:
 1285              	.L108:
1034:.\Gesture.c   **** 					}
1035:.\Gesture.c   **** 				}
1036:.\Gesture.c   **** 				else
1037:.\Gesture.c   **** 				{
1038:.\Gesture.c   **** 					debounceCounter = 0;
 1286              		.loc 1 1038 0
 1287 01e2 0022     		mov	r2, #0
 1288 01e4 524B     		ldr	r3, .L126+8
 1289 01e6 9A61     		str	r2, [r3, #24]
 830:.\Gesture.c   **** 	static tGestureId stickyGesture = GESTURE_NONE;
 1290              		.loc 1 830 0
 1291 01e8 0020     		mov	r0, #0
 1292              	.LVL191:
 1293 01ea ACE0     		b	.L82
 1294              	.LVL192:
 1295              	.L105:
1039:.\Gesture.c   **** 				}
1040:.\Gesture.c   **** 			}
1041:.\Gesture.c   **** 			else
1042:.\Gesture.c   **** 			{
1043:.\Gesture.c   **** 				processState = GESTURE_STATE_SECTOR_RELEASE;
 1296              		.loc 1 1043 0
 1297 01ec 0722     		mov	r2, #7
 1298 01ee 4E4B     		ldr	r3, .L126
 1299 01f0 1A60     		str	r2, [r3]
 830:.\Gesture.c   **** 	static tGestureId stickyGesture = GESTURE_NONE;
 1300              		.loc 1 830 0
 1301 01f2 0020     		mov	r0, #0
 1302              	.LVL193:
 1303 01f4 A7E0     		b	.L82
 1304              	.LVL194:
 1305              	.L88:
1044:.\Gesture.c   **** 			}
1045:.\Gesture.c   **** 		break;
1046:.\Gesture.c   **** 		
1047:.\Gesture.c   **** 		/* 3rd sector state - This state is similar to 2nd sector state
1048:.\Gesture.c   **** 			Gesture will processed every time a sector change occurs */
1049:.\Gesture.c   **** 		case GESTURE_STATE_3RD_SECTOR:
1050:.\Gesture.c   **** 			if(theta != INVALID_ANGLE)
 1306              		.loc 1 1050 0
 1307 01f6 FA29     		cmp	r1, #250
ARM GAS  C:\Users\JAVIER~1\AppData\Local\Temp\ccyEBIku.s 			page 44


 1308 01f8 59D0     		beq	.L110
1051:.\Gesture.c   **** 			{
1052:.\Gesture.c   **** 				thetaChange = theta - prevTheta;
 1309              		.loc 1 1052 0
 1310 01fa 4D4B     		ldr	r3, .L126+8
 1311 01fc 5B69     		ldr	r3, [r3, #20]
 1312 01fe CB1A     		sub	r3, r1, r3
 1313              	.LVL195:
1053:.\Gesture.c   **** 				
1054:.\Gesture.c   **** 				if(thetaChange > ANGLE_90)
 1314              		.loc 1 1054 0
 1315 0200 2D2B     		cmp	r3, #45
 1316 0202 01DD     		ble	.L111
1055:.\Gesture.c   **** 				{
1056:.\Gesture.c   **** 					thetaChange = thetaChange - 2*ANGLE_180;
 1317              		.loc 1 1056 0
 1318 0204 B43B     		sub	r3, r3, #180
 1319              	.LVL196:
 1320 0206 03E0     		b	.L112
 1321              	.L111:
1057:.\Gesture.c   **** 				}
1058:.\Gesture.c   **** 				else if(thetaChange < -ANGLE_90)
 1322              		.loc 1 1058 0
 1323 0208 1A1C     		mov	r2, r3
 1324 020a 2D32     		add	r2, r2, #45
 1325 020c 00DA     		bge	.L112
1059:.\Gesture.c   **** 				{
1060:.\Gesture.c   **** 					thetaChange = 2*ANGLE_180 + thetaChange;
 1326              		.loc 1 1060 0
 1327 020e B433     		add	r3, r3, #180
 1328              	.LVL197:
 1329              	.L112:
1061:.\Gesture.c   **** 				}
1062:.\Gesture.c   **** 				
1063:.\Gesture.c   **** 				accTheta += thetaChange;
 1330              		.loc 1 1063 0
 1331 0210 4B4A     		ldr	r2, .L126+24
 1332 0212 1168     		ldr	r1, [r2]
 1333              	.LVL198:
 1334 0214 8C46     		mov	ip, r1
 1335 0216 6344     		add	r3, r3, ip
 1336              	.LVL199:
 1337 0218 1360     		str	r3, [r2]
1064:.\Gesture.c   **** 				
1065:.\Gesture.c   **** 				radiusChange = radius - prevRadius;
 1338              		.loc 1 1065 0
 1339 021a 454B     		ldr	r3, .L126+8
 1340 021c 1B69     		ldr	r3, [r3, #16]
 1341 021e EB1A     		sub	r3, r5, r3
 1342              	.LVL200:
1066:.\Gesture.c   **** 				accRadius += radiusChange;
 1343              		.loc 1 1066 0
 1344 0220 464A     		ldr	r2, .L126+20
 1345 0222 1168     		ldr	r1, [r2]
 1346 0224 8C46     		mov	ip, r1
 1347 0226 6344     		add	r3, r3, ip
 1348              	.LVL201:
ARM GAS  C:\Users\JAVIER~1\AppData\Local\Temp\ccyEBIku.s 			page 45


 1349 0228 1360     		str	r3, [r2]
1067:.\Gesture.c   **** 				
1068:.\Gesture.c   **** 				sector = Gestures_GetSector(radius, theta);
 1350              		.loc 1 1068 0
 1351 022a 281C     		mov	r0, r5
 1352              	.LVL202:
 1353 022c 211C     		mov	r1, r4
 1354 022e FFF7FEFF 		bl	Gestures_GetSector
 1355              	.LVL203:
1069:.\Gesture.c   **** 				
1070:.\Gesture.c   **** 				if(sector != Gesture_sectorHistory[THIRD_SECTOR_INDEX])
 1356              		.loc 1 1070 0
 1357 0232 3D4B     		ldr	r3, .L126
 1358 0234 DB68     		ldr	r3, [r3, #12]
 1359 0236 8342     		cmp	r3, r0
 1360 0238 34D0     		beq	.L113
1071:.\Gesture.c   **** 				{
1072:.\Gesture.c   **** 					debounceCounter++;
 1361              		.loc 1 1072 0
 1362 023a 3D49     		ldr	r1, .L126+8
 1363 023c 8A69     		ldr	r2, [r1, #24]
 1364 023e 0132     		add	r2, r2, #1
 1365 0240 8A61     		str	r2, [r1, #24]
1073:.\Gesture.c   **** 					if(debounceCounter > SECTOR_DEBOUNCE)
 1366              		.loc 1 1073 0
 1367 0242 032A     		cmp	r2, #3
 1368 0244 00D8     		bhi	.LCB1422
 1369 0246 7DE0     		b	.L124	@long jump
 1370              	.LCB1422:
1074:.\Gesture.c   **** 					{
1075:.\Gesture.c   **** 						Gesture_sectorHistory[FIRST_SECTOR_INDEX] = Gesture_sectorHistory[SECOND_SECTOR_INDEX];
 1371              		.loc 1 1075 0
 1372 0248 374A     		ldr	r2, .L126
 1373 024a 9168     		ldr	r1, [r2, #8]
 1374 024c 5160     		str	r1, [r2, #4]
1076:.\Gesture.c   **** 						Gesture_sectorHistory[SECOND_SECTOR_INDEX] = Gesture_sectorHistory[THIRD_SECTOR_INDEX];						
 1375              		.loc 1 1076 0
 1376 024e 9360     		str	r3, [r2, #8]
1077:.\Gesture.c   **** 						Gesture_sectorHistory[THIRD_SECTOR_INDEX] = sector;
 1377              		.loc 1 1077 0
 1378 0250 D060     		str	r0, [r2, #12]
1078:.\Gesture.c   **** 						
1079:.\Gesture.c   **** 						sectorHistorySum = sectorLookup[Gesture_sectorHistory[THIRD_SECTOR_INDEX]] * THIRD_SECTOR_WEI
 1379              		.loc 1 1079 0
 1380 0252 384E     		ldr	r6, .L126+12
 1381 0254 8000     		lsl	r0, r0, #2
 1382              	.LVL204:
 1383 0256 3018     		add	r0, r6, r0
 1384 0258 4769     		ldr	r7, [r0, #20]
 1385 025a F800     		lsl	r0, r7, #3
 1386 025c C019     		add	r0, r0, r7
 1387 025e 4000     		lsl	r0, r0, #1
 1388 0260 C019     		add	r0, r0, r7
1080:.\Gesture.c   **** 									+ sectorLookup[Gesture_sectorHistory[SECOND_SECTOR_INDEX]] * SECOND_SECTOR_WEIGHT
 1389              		.loc 1 1080 0
 1390 0262 9B00     		lsl	r3, r3, #2
 1391 0264 F318     		add	r3, r6, r3
ARM GAS  C:\Users\JAVIER~1\AppData\Local\Temp\ccyEBIku.s 			page 46


 1392 0266 5A69     		ldr	r2, [r3, #20]
 1393 0268 1301     		lsl	r3, r2, #4
 1394 026a 9A18     		add	r2, r3, r2
 1395 026c 8218     		add	r2, r0, r2
1081:.\Gesture.c   **** 									+ sectorLookup[Gesture_sectorHistory[FIRST_SECTOR_INDEX]] * FIRST_SECTOR_WEIGHT;
 1396              		.loc 1 1081 0
 1397 026e 8900     		lsl	r1, r1, #2
 1398 0270 7118     		add	r1, r6, r1
 1399 0272 4B69     		ldr	r3, [r1, #20]
 1400 0274 5800     		lsl	r0, r3, #1
 1401 0276 C018     		add	r0, r0, r3
 1402 0278 8000     		lsl	r0, r0, #2
 1403 027a C318     		add	r3, r0, r3
1079:.\Gesture.c   **** 									+ sectorLookup[Gesture_sectorHistory[SECOND_SECTOR_INDEX]] * SECOND_SECTOR_WEIGHT
 1404              		.loc 1 1079 0
 1405 027c D018     		add	r0, r2, r3
 1406              	.LVL205:
1082:.\Gesture.c   **** 						
1083:.\Gesture.c   **** 						gesture = Gestures_LookUpGesture(sectorHistorySum, firstRadius);
 1407              		.loc 1 1083 0
 1408 027e 2C4B     		ldr	r3, .L126+8
 1409 0280 5968     		ldr	r1, [r3, #4]
 1410 0282 FFF7FEFF 		bl	Gestures_LookUpGesture
 1411              	.LVL206:
 1412 0286 021C     		mov	r2, r0
 1413              	.LVL207:
1084:.\Gesture.c   **** 						
1085:.\Gesture.c   **** 						if((gesture == GESTURE_DOWN_SWIPE) || (gesture == GESTURE_UP_SWIPE))
 1414              		.loc 1 1085 0
 1415 0288 D31F     		sub	r3, r2, #7
 1416 028a DBB2     		uxtb	r3, r3
 1417 028c 012B     		cmp	r3, #1
 1418 028e 02D8     		bhi	.L114
1086:.\Gesture.c   **** 						{
1087:.\Gesture.c   **** 							stickyGesture = gesture;
 1419              		.loc 1 1087 0
 1420 0290 274B     		ldr	r3, .L126+8
 1421 0292 1A77     		strb	r2, [r3, #28]
 1422 0294 02E0     		b	.L115
 1423              	.L114:
1088:.\Gesture.c   **** 						}
1089:.\Gesture.c   **** 						else
1090:.\Gesture.c   **** 						{
1091:.\Gesture.c   **** 							stickyGesture = GESTURE_NONE;
 1424              		.loc 1 1091 0
 1425 0296 0022     		mov	r2, #0
 1426              	.LVL208:
 1427 0298 254B     		ldr	r3, .L126+8
 1428 029a 1A77     		strb	r2, [r3, #28]
 1429              	.L115:
1092:.\Gesture.c   **** 						}
1093:.\Gesture.c   **** 						
1094:.\Gesture.c   **** 						debounceCounter = 0;
 1430              		.loc 1 1094 0
 1431 029c 0022     		mov	r2, #0
 1432 029e 244B     		ldr	r3, .L126+8
 1433 02a0 9A61     		str	r2, [r3, #24]
ARM GAS  C:\Users\JAVIER~1\AppData\Local\Temp\ccyEBIku.s 			page 47


 1434 02a2 50E0     		b	.L82
 1435              	.LVL209:
 1436              	.L113:
1095:.\Gesture.c   **** 					}
1096:.\Gesture.c   **** 				}
1097:.\Gesture.c   **** 				else
1098:.\Gesture.c   **** 				{
1099:.\Gesture.c   **** 					debounceCounter = 0;
 1437              		.loc 1 1099 0
 1438 02a4 224B     		ldr	r3, .L126+8
 1439 02a6 0022     		mov	r2, #0
 1440 02a8 9A61     		str	r2, [r3, #24]
1100:.\Gesture.c   **** 					
1101:.\Gesture.c   **** 					if(stickyGesture != GESTURE_NONE)
 1441              		.loc 1 1101 0
 1442 02aa 187F     		ldrb	r0, [r3, #28]
 1443              	.LVL210:
 1444 02ac 4BE0     		b	.L82
 1445              	.LVL211:
 1446              	.L110:
1102:.\Gesture.c   **** 					{
1103:.\Gesture.c   **** 						gesture = stickyGesture;
1104:.\Gesture.c   **** 					}
1105:.\Gesture.c   **** 				}
1106:.\Gesture.c   **** 			}
1107:.\Gesture.c   **** 			else
1108:.\Gesture.c   **** 			{				
1109:.\Gesture.c   **** 				processState = GESTURE_STATE_SECTOR_RELEASE;
 1447              		.loc 1 1109 0
 1448 02ae 0722     		mov	r2, #7
 1449 02b0 1D4B     		ldr	r3, .L126
 1450 02b2 1A60     		str	r2, [r3]
 830:.\Gesture.c   **** 	static tGestureId stickyGesture = GESTURE_NONE;
 1451              		.loc 1 830 0
 1452 02b4 0020     		mov	r0, #0
 1453              	.LVL212:
 1454 02b6 46E0     		b	.L82
 1455              	.LVL213:
 1456              	.L89:
1110:.\Gesture.c   **** 			}
1111:.\Gesture.c   **** 		break;
1112:.\Gesture.c   **** 		
1113:.\Gesture.c   **** 		/* Outward swipe state, this state is triggered when first sector is 0
1114:.\Gesture.c   **** 			In this state, outward swipe gesture is reported till finger is removed */
1115:.\Gesture.c   **** 		case GESTURE_STATE_OUTWARD_SWIPE:
1116:.\Gesture.c   **** 			if(theta != INVALID_ANGLE)
 1457              		.loc 1 1116 0
 1458 02b8 FA29     		cmp	r1, #250
 1459 02ba 11D0     		beq	.L116
 1460              	.LVL214:
1117:.\Gesture.c   **** 			{
1118:.\Gesture.c   **** 				gesture = GESTURE_OUTWARD_SWIPE;
1119:.\Gesture.c   **** 				
1120:.\Gesture.c   **** 				thetaChange = theta - prevTheta;
 1461              		.loc 1 1120 0
 1462 02bc 1C4B     		ldr	r3, .L126+8
 1463 02be 5B69     		ldr	r3, [r3, #20]
ARM GAS  C:\Users\JAVIER~1\AppData\Local\Temp\ccyEBIku.s 			page 48


 1464 02c0 CB1A     		sub	r3, r1, r3
 1465              	.LVL215:
1121:.\Gesture.c   **** 				
1122:.\Gesture.c   **** 				if(thetaChange > ANGLE_90)
 1466              		.loc 1 1122 0
 1467 02c2 2D2B     		cmp	r3, #45
 1468 02c4 01DD     		ble	.L117
1123:.\Gesture.c   **** 				{
1124:.\Gesture.c   **** 					thetaChange = thetaChange - 2*ANGLE_180;
 1469              		.loc 1 1124 0
 1470 02c6 B43B     		sub	r3, r3, #180
 1471              	.LVL216:
 1472 02c8 03E0     		b	.L118
 1473              	.L117:
1125:.\Gesture.c   **** 				}
1126:.\Gesture.c   **** 				else if(thetaChange < -ANGLE_90)
 1474              		.loc 1 1126 0
 1475 02ca 1A1C     		mov	r2, r3
 1476 02cc 2D32     		add	r2, r2, #45
 1477 02ce 00DA     		bge	.L118
1127:.\Gesture.c   **** 				{
1128:.\Gesture.c   **** 					thetaChange = 2*ANGLE_180 + thetaChange;
 1478              		.loc 1 1128 0
 1479 02d0 B433     		add	r3, r3, #180
 1480              	.LVL217:
 1481              	.L118:
1129:.\Gesture.c   **** 				}
1130:.\Gesture.c   **** 				
1131:.\Gesture.c   **** 				accTheta += thetaChange;
 1482              		.loc 1 1131 0
 1483 02d2 1B4A     		ldr	r2, .L126+24
 1484 02d4 1168     		ldr	r1, [r2]
 1485              	.LVL218:
 1486 02d6 8C46     		mov	ip, r1
 1487 02d8 6344     		add	r3, r3, ip
 1488              	.LVL219:
 1489 02da 1360     		str	r3, [r2]
1118:.\Gesture.c   **** 				
 1490              		.loc 1 1118 0
 1491 02dc 0920     		mov	r0, #9
 1492              	.LVL220:
 1493 02de 32E0     		b	.L82
 1494              	.LVL221:
 1495              	.L116:
1132:.\Gesture.c   **** 			}
1133:.\Gesture.c   **** 			else
1134:.\Gesture.c   **** 			{
1135:.\Gesture.c   **** 				processState = GESTURE_STATE_SECTOR_RELEASE;
 1496              		.loc 1 1135 0
 1497 02e0 0722     		mov	r2, #7
 1498 02e2 114B     		ldr	r3, .L126
 1499 02e4 1A60     		str	r2, [r3]
 830:.\Gesture.c   **** 	static tGestureId stickyGesture = GESTURE_NONE;
 1500              		.loc 1 830 0
 1501 02e6 0020     		mov	r0, #0
 1502              	.LVL222:
 1503 02e8 2DE0     		b	.L82
ARM GAS  C:\Users\JAVIER~1\AppData\Local\Temp\ccyEBIku.s 			page 49


 1504              	.LVL223:
 1505              	.L90:
1136:.\Gesture.c   **** 			}
1137:.\Gesture.c   **** 		break;
1138:.\Gesture.c   **** 		
1139:.\Gesture.c   **** 		/* Gesture release state - this state clears all state machine variables for the next activation 
1140:.\Gesture.c   **** 		case GESTURE_STATE_SECTOR_RELEASE:			
1141:.\Gesture.c   **** 			debounceCounter = 0;
 1506              		.loc 1 1141 0
 1507 02ea 114A     		ldr	r2, .L126+8
 1508 02ec 0023     		mov	r3, #0
 1509 02ee 9361     		str	r3, [r2, #24]
1142:.\Gesture.c   **** 			tapCounter = 0;
 1510              		.loc 1 1142 0
 1511 02f0 D360     		str	r3, [r2, #12]
1143:.\Gesture.c   **** 			
1144:.\Gesture.c   **** 			Gesture_sectorHistory[SECOND_SECTOR_INDEX] = INVALID_SECTOR;
 1512              		.loc 1 1144 0
 1513 02f2 0D49     		ldr	r1, .L126
 1514              	.LVL224:
 1515 02f4 FF20     		mov	r0, #255
 1516              	.LVL225:
 1517 02f6 8860     		str	r0, [r1, #8]
1145:.\Gesture.c   **** 			Gesture_sectorHistory[FIRST_SECTOR_INDEX] = INVALID_SECTOR;
 1518              		.loc 1 1145 0
 1519 02f8 4860     		str	r0, [r1, #4]
1146:.\Gesture.c   **** 			Gesture_sectorHistory[THIRD_SECTOR_INDEX] = INVALID_SECTOR;
 1520              		.loc 1 1146 0
 1521 02fa C860     		str	r0, [r1, #12]
1147:.\Gesture.c   **** 			
1148:.\Gesture.c   **** 			firstRadius = INVALID_RADIUS;
 1522              		.loc 1 1148 0
 1523 02fc 5060     		str	r0, [r2, #4]
1149:.\Gesture.c   **** 			firstTheta = INVALID_ANGLE;
 1524              		.loc 1 1149 0
 1525 02fe 0538     		sub	r0, r0, #5
 1526 0300 9060     		str	r0, [r2, #8]
1150:.\Gesture.c   **** 			
1151:.\Gesture.c   **** 			accRadius = 0;
 1527              		.loc 1 1151 0
 1528 0302 0E48     		ldr	r0, .L126+20
 1529 0304 0360     		str	r3, [r0]
1152:.\Gesture.c   **** 			accTheta = 0;
 1530              		.loc 1 1152 0
 1531 0306 0E48     		ldr	r0, .L126+24
 1532 0308 0360     		str	r3, [r0]
1153:.\Gesture.c   **** 			
1154:.\Gesture.c   **** 			capsenseButtonStatus = 0;
 1533              		.loc 1 1154 0
 1534 030a 0B48     		ldr	r0, .L126+16
 1535 030c 0360     		str	r3, [r0]
1155:.\Gesture.c   **** 			
1156:.\Gesture.c   **** 			stickyGesture = GESTURE_NONE;
 1536              		.loc 1 1156 0
 1537 030e 1377     		strb	r3, [r2, #28]
1157:.\Gesture.c   **** 			
1158:.\Gesture.c   **** 			processState = GESTURE_STATE_IDLE;			
ARM GAS  C:\Users\JAVIER~1\AppData\Local\Temp\ccyEBIku.s 			page 50


 1538              		.loc 1 1158 0
 1539 0310 0133     		add	r3, r3, #1
 1540 0312 0B60     		str	r3, [r1]
 830:.\Gesture.c   **** 	static tGestureId stickyGesture = GESTURE_NONE;
 1541              		.loc 1 830 0
 1542 0314 0020     		mov	r0, #0
1159:.\Gesture.c   **** 		break;
 1543              		.loc 1 1159 0
 1544 0316 16E0     		b	.L82
 1545              	.LVL226:
 1546              	.L120:
 830:.\Gesture.c   **** 	static tGestureId stickyGesture = GESTURE_NONE;
 1547              		.loc 1 830 0
 1548 0318 0020     		mov	r0, #0
 1549              	.LVL227:
 1550 031a 14E0     		b	.L82
 1551              	.LVL228:
 1552              	.L121:
 1553 031c 0020     		mov	r0, #0
 1554              	.LVL229:
 1555 031e 12E0     		b	.L82
 1556              	.LVL230:
 1557              	.L122:
 1558 0320 0020     		mov	r0, #0
 1559              	.LVL231:
 1560 0322 10E0     		b	.L82
 1561              	.LVL232:
 1562              	.L123:
 1563 0324 0020     		mov	r0, #0
 1564              	.LVL233:
 1565 0326 0EE0     		b	.L82
 1566              	.L127:
 1567              		.align	2
 1568              	.L126:
 1569 0328 00000000 		.word	.LANCHOR2
 1570 032c 2C000000 		.word	.L84
 1571 0330 00000000 		.word	.LANCHOR0
 1572 0334 A8000000 		.word	.LANCHOR3
 1573 0338 00000000 		.word	capsenseButtonStatus
 1574 033c 00000000 		.word	accRadius
 1575 0340 00000000 		.word	accTheta
 1576              	.LVL234:
 1577              	.L124:
 1578 0344 0020     		mov	r0, #0
 1579              	.LVL235:
 1580              	.L82:
1160:.\Gesture.c   **** 					
1161:.\Gesture.c   **** 		default:
1162:.\Gesture.c   **** 		break;
1163:.\Gesture.c   **** 	}
1164:.\Gesture.c   **** 	
1165:.\Gesture.c   **** 	/* Invalidate first radius if there is significant variation in accumulated radius
1166:.\Gesture.c   **** 		This is done for invalidating circular gestures which uses first touch radius as the base for det
1167:.\Gesture.c   **** 	if(((accRadius > 1) || (accRadius < -1)))
 1581              		.loc 1 1167 0
 1582 0346 064B     		ldr	r3, .L128
 1583 0348 1B68     		ldr	r3, [r3]
ARM GAS  C:\Users\JAVIER~1\AppData\Local\Temp\ccyEBIku.s 			page 51


 1584 034a 0133     		add	r3, r3, #1
 1585 034c 022B     		cmp	r3, #2
 1586 034e 02D9     		bls	.L119
1168:.\Gesture.c   **** 	{
1169:.\Gesture.c   **** 		firstRadius = INVALID_RADIUS;						
 1587              		.loc 1 1169 0
 1588 0350 FF22     		mov	r2, #255
 1589 0352 044B     		ldr	r3, .L128+4
 1590 0354 5A60     		str	r2, [r3, #4]
 1591              	.L119:
1170:.\Gesture.c   **** 	}
1171:.\Gesture.c   **** 	
1172:.\Gesture.c   **** 	prevRadius = radius;
 1592              		.loc 1 1172 0
 1593 0356 034B     		ldr	r3, .L128+4
 1594 0358 1D61     		str	r5, [r3, #16]
1173:.\Gesture.c   **** 	prevTheta = theta;
 1595              		.loc 1 1173 0
 1596 035a 5C61     		str	r4, [r3, #20]
1174:.\Gesture.c   **** 	
1175:.\Gesture.c   **** 	return gesture;
1176:.\Gesture.c   **** }
 1597              		.loc 1 1176 0
 1598              		@ sp needed
 1599              	.LVL236:
 1600              	.LVL237:
 1601 035c F8BD     		pop	{r3, r4, r5, r6, r7, pc}
 1602              	.L129:
 1603 035e C046     		.align	2
 1604              	.L128:
 1605 0360 00000000 		.word	accRadius
 1606 0364 00000000 		.word	.LANCHOR0
 1607              		.cfi_endproc
 1608              	.LFE46:
 1609              		.size	Gestures_Process, .-Gestures_Process
 1610              		.global	__aeabi_uidiv
 1611              		.section	.text.DetectGesture,"ax",%progbits
 1612              		.align	2
 1613              		.global	DetectGesture
 1614              		.code	16
 1615              		.thumb_func
 1616              		.type	DetectGesture, %function
 1617              	DetectGesture:
 1618              	.LFB36:
 159:.\Gesture.c   **** 	tGestureId gestureId;
 1619              		.loc 1 159 0
 1620              		.cfi_startproc
 1621              	.LVL238:
 1622 0000 70B5     		push	{r4, r5, r6, lr}
 1623              		.cfi_def_cfa_offset 16
 1624              		.cfi_offset 4, -16
 1625              		.cfi_offset 5, -12
 1626              		.cfi_offset 6, -8
 1627              		.cfi_offset 14, -4
 1628              	.LVL239:
 164:.\Gesture.c   **** 	{
 1629              		.loc 1 164 0
ARM GAS  C:\Users\JAVIER~1\AppData\Local\Temp\ccyEBIku.s 			page 52


 1630 0002 0028     		cmp	r0, #0
 1631 0004 04D0     		beq	.L136
 167:.\Gesture.c   **** 	}
 1632              		.loc 1 167 0
 1633 0006 234B     		ldr	r3, .L137
 1634 0008 1B78     		ldrb	r3, [r3]
 1635 000a 1F25     		mov	r5, #31
 1636 000c 1D40     		and	r5, r3
 1637              	.LVL240:
 1638 000e 00E0     		b	.L131
 1639              	.LVL241:
 1640              	.L136:
 161:.\Gesture.c   **** 	
 1641              		.loc 1 161 0
 1642 0010 0025     		mov	r5, #0
 1643              	.LVL242:
 1644              	.L131:
 171:.\Gesture.c   **** 	
 1645              		.loc 1 171 0
 1646 0012 0020     		mov	r0, #0
 1647              	.LVL243:
 1648 0014 FFF7FEFF 		bl	CapSense_GetRadialCentroidPos
 1649              	.LVL244:
 1650 0018 061C     		mov	r6, r0
 1651 001a 041E     		sub	r4, r0, #0
 1652              	.LVL245:
 174:.\Gesture.c   **** 	{
 1653              		.loc 1 174 0
 1654 001c 1E4B     		ldr	r3, .L137+4
 1655 001e 9C42     		cmp	r4, r3
 1656 0020 09D0     		beq	.L132
 177:.\Gesture.c   **** 		
 1657              		.loc 1 177 0
 1658 0022 2023     		mov	r3, #32
 1659 0024 1D43     		orr	r5, r3
 1660              	.LVL246:
 180:.\Gesture.c   **** 		
 1661              		.loc 1 180 0
 1662 0026 1621     		mov	r1, #22
 1663 0028 FFF7FEFF 		bl	__aeabi_uidiv
 1664              	.LVL247:
 1665 002c 011C     		mov	r1, r0
 1666              	.LVL248:
 183:.\Gesture.c   **** 		{
 1667              		.loc 1 183 0
 1668 002e 2C2E     		cmp	r6, #44
 1669 0030 02D8     		bhi	.L133
 185:.\Gesture.c   **** 		}
 1670              		.loc 1 185 0
 1671 0032 0A34     		add	r4, r4, #10
 1672              	.LVL249:
 1673 0034 00E0     		b	.L133
 1674              	.LVL250:
 1675              	.L132:
 161:.\Gesture.c   **** 	
 1676              		.loc 1 161 0
 1677 0036 0021     		mov	r1, #0
ARM GAS  C:\Users\JAVIER~1\AppData\Local\Temp\ccyEBIku.s 			page 53


 1678              	.LVL251:
 1679              	.L133:
 195:.\Gesture.c   **** 	
 1680              		.loc 1 195 0
 1681 0038 281C     		mov	r0, r5
 1682 003a FFF7FEFF 		bl	Gestures_ValidateButtons
 1683              	.LVL252:
 1684 003e 061C     		mov	r6, r0
 1685              	.LVL253:
 198:.\Gesture.c   **** 	theta = Gestures_CalculateTheta(buttonStatus, sliderPos);
 1686              		.loc 1 198 0
 1687 0040 FFF7FEFF 		bl	Gestures_CalculateRadius
 1688              	.LVL254:
 1689 0044 051C     		mov	r5, r0
 1690 0046 154B     		ldr	r3, .L137+8
 1691 0048 1860     		str	r0, [r3]
 199:.\Gesture.c   **** 	
 1692              		.loc 1 199 0
 1693 004a 301C     		mov	r0, r6
 1694 004c 211C     		mov	r1, r4
 1695 004e FFF7FEFF 		bl	Gestures_CalculateTheta
 1696              	.LVL255:
 1697 0052 011C     		mov	r1, r0
 1698 0054 124C     		ldr	r4, .L137+12
 1699              	.LVL256:
 1700 0056 2060     		str	r0, [r4]
 202:.\Gesture.c   **** 	
 1701              		.loc 1 202 0
 1702 0058 281C     		mov	r0, r5
 1703 005a FFF7FEFF 		bl	Gestures_Process
 1704              	.LVL257:
 1705 005e 051C     		mov	r5, r0
 1706              	.LVL258:
 206:.\Gesture.c   **** 		{
 1707              		.loc 1 206 0
 1708 0060 2468     		ldr	r4, [r4]
 1709 0062 FA2C     		cmp	r4, #250
 1710 0064 0ED0     		beq	.L134
 208:.\Gesture.c   **** 			yPos = Gestures_CalculateY(radius, theta);
 1711              		.loc 1 208 0
 1712 0066 0D4B     		ldr	r3, .L137+8
 1713 0068 1E68     		ldr	r6, [r3]
 1714              	.LVL259:
 1715 006a 301C     		mov	r0, r6
 1716 006c 211C     		mov	r1, r4
 1717 006e FFF7FEFF 		bl	Gestures_CalculateX
 1718              	.LVL260:
 1719 0072 0C4B     		ldr	r3, .L137+16
 1720 0074 1860     		str	r0, [r3]
 209:.\Gesture.c   **** 		}
 1721              		.loc 1 209 0
 1722 0076 301C     		mov	r0, r6
 1723 0078 211C     		mov	r1, r4
 1724 007a FFF7FEFF 		bl	Gestures_CalculateY
 1725              	.LVL261:
 1726 007e 0A4B     		ldr	r3, .L137+20
 1727 0080 1860     		str	r0, [r3]
ARM GAS  C:\Users\JAVIER~1\AppData\Local\Temp\ccyEBIku.s 			page 54


 1728 0082 04E0     		b	.L135
 1729              	.LVL262:
 1730              	.L134:
 213:.\Gesture.c   **** 			yPos = 0;
 1731              		.loc 1 213 0
 1732 0084 0023     		mov	r3, #0
 1733 0086 074A     		ldr	r2, .L137+16
 1734 0088 1360     		str	r3, [r2]
 214:.\Gesture.c   **** 		}
 1735              		.loc 1 214 0
 1736 008a 074A     		ldr	r2, .L137+20
 1737 008c 1360     		str	r3, [r2]
 1738              	.LVL263:
 1739              	.L135:
 219:.\Gesture.c   **** 
 1740              		.loc 1 219 0
 1741 008e 281C     		mov	r0, r5
 1742              		@ sp needed
 1743              	.LVL264:
 1744 0090 70BD     		pop	{r4, r5, r6, pc}
 1745              	.L138:
 1746 0092 C046     		.align	2
 1747              	.L137:
 1748 0094 00000000 		.word	CapSense_sensorOnMask
 1749 0098 FFFF0000 		.word	65535
 1750 009c 00000000 		.word	radius
 1751 00a0 00000000 		.word	theta
 1752 00a4 00000000 		.word	xPos
 1753 00a8 00000000 		.word	yPos
 1754              		.cfi_endproc
 1755              	.LFE36:
 1756              		.size	DetectGesture, .-DetectGesture
 1757              		.global	sectorToButtonLookup
 1758              		.global	sectorLookup
 1759              		.global	sinLookUp
 1760              		.comm	theta,4,4
 1761              		.comm	radius,4,4
 1762              		.comm	yPos,4,4
 1763              		.comm	xPos,4,4
 1764              		.comm	capsenseButtonStatus,4,4
 1765              		.comm	accTheta,4,4
 1766              		.comm	accRadius,4,4
 1767              		.comm	sliderCentroid,2,2
 1768              		.section	.rodata
 1769              		.align	2
 1770              		.set	.LANCHOR1,. + 0
 1771              		.type	sinLookUp, %object
 1772              		.size	sinLookUp, 92
 1773              	sinLookUp:
 1774 004c 0000     		.short	0
 1775 004e 0900     		.short	9
 1776 0050 1200     		.short	18
 1777 0052 1B00     		.short	27
 1778 0054 2400     		.short	36
 1779 0056 2C00     		.short	44
 1780 0058 3500     		.short	53
 1781 005a 3E00     		.short	62
ARM GAS  C:\Users\JAVIER~1\AppData\Local\Temp\ccyEBIku.s 			page 55


 1782 005c 4700     		.short	71
 1783 005e 4F00     		.short	79
 1784 0060 5800     		.short	88
 1785 0062 6000     		.short	96
 1786 0064 6800     		.short	104
 1787 0066 7000     		.short	112
 1788 0068 7800     		.short	120
 1789 006a 8000     		.short	128
 1790 006c 8800     		.short	136
 1791 006e 8F00     		.short	143
 1792 0070 9600     		.short	150
 1793 0072 9E00     		.short	158
 1794 0074 A500     		.short	165
 1795 0076 AB00     		.short	171
 1796 0078 B200     		.short	178
 1797 007a B800     		.short	184
 1798 007c BE00     		.short	190
 1799 007e C400     		.short	196
 1800 0080 CA00     		.short	202
 1801 0082 CF00     		.short	207
 1802 0084 D400     		.short	212
 1803 0086 D900     		.short	217
 1804 0088 DE00     		.short	222
 1805 008a E200     		.short	226
 1806 008c E600     		.short	230
 1807 008e EA00     		.short	234
 1808 0090 ED00     		.short	237
 1809 0092 F100     		.short	241
 1810 0094 F300     		.short	243
 1811 0096 F600     		.short	246
 1812 0098 F800     		.short	248
 1813 009a FA00     		.short	250
 1814 009c FC00     		.short	252
 1815 009e FE00     		.short	254
 1816 00a0 FF00     		.short	255
 1817 00a2 FF00     		.short	255
 1818 00a4 0001     		.short	256
 1819 00a6 0001     		.short	256
 1820              		.align	2
 1821              		.set	.LANCHOR3,. + 0
 1822              		.type	sectorToButtonLookup, %object
 1823              		.size	sectorToButtonLookup, 20
 1824              	sectorToButtonLookup:
 1825 00a8 10000000 		.word	16
 1826 00ac 04000000 		.word	4
 1827 00b0 01000000 		.word	1
 1828 00b4 08000000 		.word	8
 1829 00b8 02000000 		.word	2
 1830              		.type	sectorLookup, %object
 1831              		.size	sectorLookup, 20
 1832              	sectorLookup:
 1833 00bc 02000000 		.word	2
 1834 00c0 03000000 		.word	3
 1835 00c4 05000000 		.word	5
 1836 00c8 07000000 		.word	7
 1837 00cc 0B000000 		.word	11
 1838              		.data
ARM GAS  C:\Users\JAVIER~1\AppData\Local\Temp\ccyEBIku.s 			page 56


 1839              		.align	2
 1840              		.set	.LANCHOR2,. + 0
 1841              		.type	processState.5756, %object
 1842              		.size	processState.5756, 4
 1843              	processState.5756:
 1844 0000 01000000 		.word	1
 1845              		.type	Gesture_sectorHistory.5758, %object
 1846              		.size	Gesture_sectorHistory.5758, 12
 1847              	Gesture_sectorHistory.5758:
 1848 0004 FF000000 		.word	255
 1849 0008 FF000000 		.word	255
 1850 000c FF000000 		.word	255
 1851              		.bss
 1852              		.align	2
 1853              		.set	.LANCHOR0,. + 0
 1854              		.type	prevButtonStatus.5683, %object
 1855              		.size	prevButtonStatus.5683, 4
 1856              	prevButtonStatus.5683:
 1857 0000 00000000 		.space	4
 1858              		.type	firstRadius.5752, %object
 1859              		.size	firstRadius.5752, 4
 1860              	firstRadius.5752:
 1861 0004 00000000 		.space	4
 1862              		.type	firstTheta.5754, %object
 1863              		.size	firstTheta.5754, 4
 1864              	firstTheta.5754:
 1865 0008 00000000 		.space	4
 1866              		.type	tapCounter.5751, %object
 1867              		.size	tapCounter.5751, 4
 1868              	tapCounter.5751:
 1869 000c 00000000 		.space	4
 1870              		.type	prevRadius.5753, %object
 1871              		.size	prevRadius.5753, 4
 1872              	prevRadius.5753:
 1873 0010 00000000 		.space	4
 1874              		.type	prevTheta.5755, %object
 1875              		.size	prevTheta.5755, 4
 1876              	prevTheta.5755:
 1877 0014 00000000 		.space	4
 1878              		.type	debounceCounter.5757, %object
 1879              		.size	debounceCounter.5757, 4
 1880              	debounceCounter.5757:
 1881 0018 00000000 		.space	4
 1882              		.type	stickyGesture.5750, %object
 1883              		.size	stickyGesture.5750, 1
 1884              	stickyGesture.5750:
 1885 001c 00       		.space	1
 1886 001d 000000   		.text
 1887              	.Letext0:
 1888              		.file 2 "Generated_Source\\PSoC4/cytypes.h"
 1889              		.file 3 ".\\Gesture.h"
 1890              		.file 4 "Generated_Source\\PSoC4/CapSense_CSHL.h"
 1891              		.section	.debug_info,"",%progbits
 1892              	.Ldebug_info0:
 1893 0000 28080000 		.4byte	0x828
 1894 0004 0400     		.2byte	0x4
 1895 0006 00000000 		.4byte	.Ldebug_abbrev0
ARM GAS  C:\Users\JAVIER~1\AppData\Local\Temp\ccyEBIku.s 			page 57


 1896 000a 04       		.byte	0x4
 1897 000b 01       		.uleb128 0x1
 1898 000c 3A030000 		.4byte	.LASF81
 1899 0010 01       		.byte	0x1
 1900 0011 9A010000 		.4byte	.LASF82
 1901 0015 01040000 		.4byte	.LASF83
 1902 0019 00000000 		.4byte	.Ldebug_ranges0+0
 1903 001d 00000000 		.4byte	0
 1904 0021 00000000 		.4byte	.Ldebug_line0
 1905 0025 02       		.uleb128 0x2
 1906 0026 01       		.byte	0x1
 1907 0027 06       		.byte	0x6
 1908 0028 AE000000 		.4byte	.LASF0
 1909 002c 02       		.uleb128 0x2
 1910 002d 01       		.byte	0x1
 1911 002e 08       		.byte	0x8
 1912 002f 63040000 		.4byte	.LASF1
 1913 0033 02       		.uleb128 0x2
 1914 0034 02       		.byte	0x2
 1915 0035 05       		.byte	0x5
 1916 0036 7E040000 		.4byte	.LASF2
 1917 003a 02       		.uleb128 0x2
 1918 003b 02       		.byte	0x2
 1919 003c 07       		.byte	0x7
 1920 003d EA010000 		.4byte	.LASF3
 1921 0041 02       		.uleb128 0x2
 1922 0042 04       		.byte	0x4
 1923 0043 05       		.byte	0x5
 1924 0044 C8000000 		.4byte	.LASF4
 1925 0048 02       		.uleb128 0x2
 1926 0049 04       		.byte	0x4
 1927 004a 07       		.byte	0x7
 1928 004b B0010000 		.4byte	.LASF5
 1929 004f 02       		.uleb128 0x2
 1930 0050 08       		.byte	0x8
 1931 0051 05       		.byte	0x5
 1932 0052 A0000000 		.4byte	.LASF6
 1933 0056 02       		.uleb128 0x2
 1934 0057 08       		.byte	0x8
 1935 0058 07       		.byte	0x7
 1936 0059 61000000 		.4byte	.LASF7
 1937 005d 03       		.uleb128 0x3
 1938 005e 04       		.byte	0x4
 1939 005f 05       		.byte	0x5
 1940 0060 696E7400 		.ascii	"int\000"
 1941 0064 02       		.uleb128 0x2
 1942 0065 04       		.byte	0x4
 1943 0066 07       		.byte	0x7
 1944 0067 8D010000 		.4byte	.LASF8
 1945 006b 04       		.uleb128 0x4
 1946 006c D1000000 		.4byte	.LASF9
 1947 0070 02       		.byte	0x2
 1948 0071 3801     		.2byte	0x138
 1949 0073 2C000000 		.4byte	0x2c
 1950 0077 04       		.uleb128 0x4
 1951 0078 00000000 		.4byte	.LASF10
 1952 007c 02       		.byte	0x2
ARM GAS  C:\Users\JAVIER~1\AppData\Local\Temp\ccyEBIku.s 			page 58


 1953 007d 3901     		.2byte	0x139
 1954 007f 3A000000 		.4byte	0x3a
 1955 0083 04       		.uleb128 0x4
 1956 0084 02010000 		.4byte	.LASF11
 1957 0088 02       		.byte	0x2
 1958 0089 3A01     		.2byte	0x13a
 1959 008b 48000000 		.4byte	0x48
 1960 008f 04       		.uleb128 0x4
 1961 0090 47050000 		.4byte	.LASF12
 1962 0094 02       		.byte	0x2
 1963 0095 3C01     		.2byte	0x13c
 1964 0097 33000000 		.4byte	0x33
 1965 009b 04       		.uleb128 0x4
 1966 009c BA000000 		.4byte	.LASF13
 1967 00a0 02       		.byte	0x2
 1968 00a1 3D01     		.2byte	0x13d
 1969 00a3 41000000 		.4byte	0x41
 1970 00a7 02       		.uleb128 0x2
 1971 00a8 04       		.byte	0x4
 1972 00a9 04       		.byte	0x4
 1973 00aa D4030000 		.4byte	.LASF14
 1974 00ae 02       		.uleb128 0x2
 1975 00af 08       		.byte	0x8
 1976 00b0 04       		.byte	0x4
 1977 00b1 EB000000 		.4byte	.LASF15
 1978 00b5 02       		.uleb128 0x2
 1979 00b6 01       		.byte	0x1
 1980 00b7 08       		.byte	0x8
 1981 00b8 F6040000 		.4byte	.LASF16
 1982 00bc 02       		.uleb128 0x2
 1983 00bd 04       		.byte	0x4
 1984 00be 07       		.byte	0x7
 1985 00bf A0020000 		.4byte	.LASF17
 1986 00c3 05       		.uleb128 0x5
 1987 00c4 01       		.byte	0x1
 1988 00c5 03       		.byte	0x3
 1989 00c6 B8       		.byte	0xb8
 1990 00c7 32010000 		.4byte	0x132
 1991 00cb 06       		.uleb128 0x6
 1992 00cc B1050000 		.4byte	.LASF18
 1993 00d0 00       		.sleb128 0
 1994 00d1 06       		.uleb128 0x6
 1995 00d2 5C020000 		.4byte	.LASF19
 1996 00d6 01       		.sleb128 1
 1997 00d7 06       		.uleb128 0x6
 1998 00d8 7A050000 		.4byte	.LASF20
 1999 00dc 02       		.sleb128 2
 2000 00dd 06       		.uleb128 0x6
 2001 00de B3040000 		.4byte	.LASF21
 2002 00e2 03       		.sleb128 3
 2003 00e3 06       		.uleb128 0x6
 2004 00e4 10050000 		.4byte	.LASF22
 2005 00e8 04       		.sleb128 4
 2006 00e9 06       		.uleb128 0x6
 2007 00ea 8D020000 		.4byte	.LASF23
 2008 00ee 05       		.sleb128 5
 2009 00ef 06       		.uleb128 0x6
ARM GAS  C:\Users\JAVIER~1\AppData\Local\Temp\ccyEBIku.s 			page 59


 2010 00f0 D7000000 		.4byte	.LASF24
 2011 00f4 06       		.sleb128 6
 2012 00f5 06       		.uleb128 0x6
 2013 00f6 25050000 		.4byte	.LASF25
 2014 00fa 07       		.sleb128 7
 2015 00fb 06       		.uleb128 0x6
 2016 00fc EE030000 		.4byte	.LASF26
 2017 0100 08       		.sleb128 8
 2018 0101 06       		.uleb128 0x6
 2019 0102 16030000 		.4byte	.LASF27
 2020 0106 09       		.sleb128 9
 2021 0107 06       		.uleb128 0x6
 2022 0108 D4010000 		.4byte	.LASF28
 2023 010c 0A       		.sleb128 10
 2024 010d 06       		.uleb128 0x6
 2025 010e 09010000 		.4byte	.LASF29
 2026 0112 0B       		.sleb128 11
 2027 0113 06       		.uleb128 0x6
 2028 0114 C7040000 		.4byte	.LASF30
 2029 0118 0C       		.sleb128 12
 2030 0119 06       		.uleb128 0x6
 2031 011a 6F010000 		.4byte	.LASF31
 2032 011e 0D       		.sleb128 13
 2033 011f 06       		.uleb128 0x6
 2034 0120 3E010000 		.4byte	.LASF32
 2035 0124 0E       		.sleb128 14
 2036 0125 06       		.uleb128 0x6
 2037 0126 4E000000 		.4byte	.LASF33
 2038 012a 0F       		.sleb128 15
 2039 012b 06       		.uleb128 0x6
 2040 012c F2000000 		.4byte	.LASF34
 2041 0130 10       		.sleb128 16
 2042 0131 00       		.byte	0
 2043 0132 07       		.uleb128 0x7
 2044 0133 DD040000 		.4byte	.LASF35
 2045 0137 03       		.byte	0x3
 2046 0138 CA       		.byte	0xca
 2047 0139 C3000000 		.4byte	0xc3
 2048 013d 08       		.uleb128 0x8
 2049 013e 5C050000 		.4byte	.LASF36
 2050 0142 01       		.byte	0x1
 2051 0143 6201     		.2byte	0x162
 2052 0145 83000000 		.4byte	0x83
 2053 0149 00000000 		.4byte	.LFB38
 2054 014d 2C000000 		.4byte	.LFE38-.LFB38
 2055 0151 01       		.uleb128 0x1
 2056 0152 9C       		.byte	0x9c
 2057 0153 78010000 		.4byte	0x178
 2058 0157 09       		.uleb128 0x9
 2059 0158 BE050000 		.4byte	.LASF38
 2060 015c 01       		.byte	0x1
 2061 015d 6201     		.2byte	0x162
 2062 015f 83000000 		.4byte	0x83
 2063 0163 00000000 		.4byte	.LLST0
 2064 0167 0A       		.uleb128 0xa
 2065 0168 6C020000 		.4byte	.LASF40
 2066 016c 01       		.byte	0x1
ARM GAS  C:\Users\JAVIER~1\AppData\Local\Temp\ccyEBIku.s 			page 60


 2067 016d 6401     		.2byte	0x164
 2068 016f 83000000 		.4byte	0x83
 2069 0173 9E000000 		.4byte	.LLST1
 2070 0177 00       		.byte	0
 2071 0178 08       		.uleb128 0x8
 2072 0179 36000000 		.4byte	.LASF37
 2073 017d 01       		.byte	0x1
 2074 017e 9D01     		.2byte	0x19d
 2075 0180 9B000000 		.4byte	0x9b
 2076 0184 00000000 		.4byte	.LFB39
 2077 0188 5C000000 		.4byte	.LFE39-.LFB39
 2078 018c 01       		.uleb128 0x1
 2079 018d 9C       		.byte	0x9c
 2080 018e C3010000 		.4byte	0x1c3
 2081 0192 09       		.uleb128 0x9
 2082 0193 BE050000 		.4byte	.LASF38
 2083 0197 01       		.byte	0x1
 2084 0198 9D01     		.2byte	0x19d
 2085 019a 83000000 		.4byte	0x83
 2086 019e BE000000 		.4byte	.LLST2
 2087 01a2 09       		.uleb128 0x9
 2088 01a3 A6010000 		.4byte	.LASF39
 2089 01a7 01       		.byte	0x1
 2090 01a8 9D01     		.2byte	0x19d
 2091 01aa 9B000000 		.4byte	0x9b
 2092 01ae DF000000 		.4byte	.LLST3
 2093 01b2 0A       		.uleb128 0xa
 2094 01b3 0A020000 		.4byte	.LASF41
 2095 01b7 01       		.byte	0x1
 2096 01b8 9F01     		.2byte	0x19f
 2097 01ba 9B000000 		.4byte	0x9b
 2098 01be 13020000 		.4byte	.LLST4
 2099 01c2 00       		.byte	0
 2100 01c3 08       		.uleb128 0x8
 2101 01c4 9C040000 		.4byte	.LASF42
 2102 01c8 01       		.byte	0x1
 2103 01c9 DF02     		.2byte	0x2df
 2104 01cb 32010000 		.4byte	0x132
 2105 01cf 00000000 		.4byte	.LFB45
 2106 01d3 98000000 		.4byte	.LFE45-.LFB45
 2107 01d7 01       		.uleb128 0x1
 2108 01d8 9C       		.byte	0x9c
 2109 01d9 0C020000 		.4byte	0x20c
 2110 01dd 09       		.uleb128 0x9
 2111 01de BE020000 		.4byte	.LASF43
 2112 01e2 01       		.byte	0x1
 2113 01e3 DF02     		.2byte	0x2df
 2114 01e5 83000000 		.4byte	0x83
 2115 01e9 A4020000 		.4byte	.LLST5
 2116 01ed 0B       		.uleb128 0xb
 2117 01ee FB040000 		.4byte	.LASF44
 2118 01f2 01       		.byte	0x1
 2119 01f3 DF02     		.2byte	0x2df
 2120 01f5 83000000 		.4byte	0x83
 2121 01f9 01       		.uleb128 0x1
 2122 01fa 51       		.byte	0x51
 2123 01fb 0A       		.uleb128 0xa
ARM GAS  C:\Users\JAVIER~1\AppData\Local\Temp\ccyEBIku.s 			page 61


 2124 01fc C0000000 		.4byte	.LASF45
 2125 0200 01       		.byte	0x1
 2126 0201 E102     		.2byte	0x2e1
 2127 0203 32010000 		.4byte	0x132
 2128 0207 BF030000 		.4byte	.LLST6
 2129 020b 00       		.byte	0
 2130 020c 0C       		.uleb128 0xc
 2131 020d 31020000 		.4byte	.LASF46
 2132 0211 01       		.byte	0x1
 2133 0212 EF       		.byte	0xef
 2134 0213 83000000 		.4byte	0x83
 2135 0217 00000000 		.4byte	.LFB37
 2136 021b FC000000 		.4byte	.LFE37-.LFB37
 2137 021f 01       		.uleb128 0x1
 2138 0220 9C       		.byte	0x9c
 2139 0221 E9020000 		.4byte	0x2e9
 2140 0225 0D       		.uleb128 0xd
 2141 0226 BE050000 		.4byte	.LASF38
 2142 022a 01       		.byte	0x1
 2143 022b EF       		.byte	0xef
 2144 022c 83000000 		.4byte	0x83
 2145 0230 0E040000 		.4byte	.LLST7
 2146 0234 0D       		.uleb128 0xd
 2147 0235 27010000 		.4byte	.LASF47
 2148 0239 01       		.byte	0x1
 2149 023a EF       		.byte	0xef
 2150 023b 83000000 		.4byte	0x83
 2151 023f 37040000 		.4byte	.LLST8
 2152 0243 0E       		.uleb128 0xe
 2153 0244 20020000 		.4byte	.LASF48
 2154 0248 01       		.byte	0x1
 2155 0249 F1       		.byte	0xf1
 2156 024a 83000000 		.4byte	0x83
 2157 024e 05       		.uleb128 0x5
 2158 024f 03       		.byte	0x3
 2159 0250 00000000 		.4byte	prevButtonStatus.5683
 2160 0254 0F       		.uleb128 0xf
 2161 0255 4A000000 		.4byte	.LVL65
 2162 0259 05080000 		.4byte	0x805
 2163 025d 67020000 		.4byte	0x267
 2164 0261 10       		.uleb128 0x10
 2165 0262 01       		.uleb128 0x1
 2166 0263 50       		.byte	0x50
 2167 0264 01       		.uleb128 0x1
 2168 0265 30       		.byte	0x30
 2169 0266 00       		.byte	0
 2170 0267 0F       		.uleb128 0xf
 2171 0268 52000000 		.4byte	.LVL66
 2172 026c 05080000 		.4byte	0x805
 2173 0270 7A020000 		.4byte	0x27a
 2174 0274 10       		.uleb128 0x10
 2175 0275 01       		.uleb128 0x1
 2176 0276 50       		.byte	0x50
 2177 0277 01       		.uleb128 0x1
 2178 0278 31       		.byte	0x31
 2179 0279 00       		.byte	0
 2180 027a 0F       		.uleb128 0xf
ARM GAS  C:\Users\JAVIER~1\AppData\Local\Temp\ccyEBIku.s 			page 62


 2181 027b 62000000 		.4byte	.LVL68
 2182 027f 05080000 		.4byte	0x805
 2183 0283 8D020000 		.4byte	0x28d
 2184 0287 10       		.uleb128 0x10
 2185 0288 01       		.uleb128 0x1
 2186 0289 50       		.byte	0x50
 2187 028a 01       		.uleb128 0x1
 2188 028b 30       		.byte	0x30
 2189 028c 00       		.byte	0
 2190 028d 0F       		.uleb128 0xf
 2191 028e 6A000000 		.4byte	.LVL69
 2192 0292 05080000 		.4byte	0x805
 2193 0296 A0020000 		.4byte	0x2a0
 2194 029a 10       		.uleb128 0x10
 2195 029b 01       		.uleb128 0x1
 2196 029c 50       		.byte	0x50
 2197 029d 01       		.uleb128 0x1
 2198 029e 31       		.byte	0x31
 2199 029f 00       		.byte	0
 2200 02a0 0F       		.uleb128 0xf
 2201 02a1 B8000000 		.4byte	.LVL79
 2202 02a5 05080000 		.4byte	0x805
 2203 02a9 B3020000 		.4byte	0x2b3
 2204 02ad 10       		.uleb128 0x10
 2205 02ae 01       		.uleb128 0x1
 2206 02af 50       		.byte	0x50
 2207 02b0 01       		.uleb128 0x1
 2208 02b1 32       		.byte	0x32
 2209 02b2 00       		.byte	0
 2210 02b3 0F       		.uleb128 0xf
 2211 02b4 C0000000 		.4byte	.LVL81
 2212 02b8 05080000 		.4byte	0x805
 2213 02bc C6020000 		.4byte	0x2c6
 2214 02c0 10       		.uleb128 0x10
 2215 02c1 01       		.uleb128 0x1
 2216 02c2 50       		.byte	0x50
 2217 02c3 01       		.uleb128 0x1
 2218 02c4 33       		.byte	0x33
 2219 02c5 00       		.byte	0
 2220 02c6 0F       		.uleb128 0xf
 2221 02c7 D0000000 		.4byte	.LVL83
 2222 02cb 05080000 		.4byte	0x805
 2223 02cf D9020000 		.4byte	0x2d9
 2224 02d3 10       		.uleb128 0x10
 2225 02d4 01       		.uleb128 0x1
 2226 02d5 50       		.byte	0x50
 2227 02d6 01       		.uleb128 0x1
 2228 02d7 32       		.byte	0x32
 2229 02d8 00       		.byte	0
 2230 02d9 11       		.uleb128 0x11
 2231 02da D8000000 		.4byte	.LVL84
 2232 02de 05080000 		.4byte	0x805
 2233 02e2 10       		.uleb128 0x10
 2234 02e3 01       		.uleb128 0x1
 2235 02e4 50       		.byte	0x50
 2236 02e5 01       		.uleb128 0x1
 2237 02e6 33       		.byte	0x33
ARM GAS  C:\Users\JAVIER~1\AppData\Local\Temp\ccyEBIku.s 			page 63


 2238 02e7 00       		.byte	0
 2239 02e8 00       		.byte	0
 2240 02e9 12       		.uleb128 0x12
 2241 02ea 07000000 		.4byte	.LASF50
 2242 02ee 01       		.byte	0x1
 2243 02ef FC01     		.2byte	0x1fc
 2244 02f1 9B000000 		.4byte	0x9b
 2245 02f5 00000000 		.4byte	.LFB40
 2246 02f9 48000000 		.4byte	.LFE40-.LFB40
 2247 02fd 01       		.uleb128 0x1
 2248 02fe 9C       		.byte	0x9c
 2249 02ff 24030000 		.4byte	0x324
 2250 0303 09       		.uleb128 0x9
 2251 0304 0A020000 		.4byte	.LASF41
 2252 0308 01       		.byte	0x1
 2253 0309 FC01     		.2byte	0x1fc
 2254 030b 9B000000 		.4byte	0x9b
 2255 030f 7C040000 		.4byte	.LLST9
 2256 0313 0A       		.uleb128 0xa
 2257 0314 DA030000 		.4byte	.LASF49
 2258 0318 01       		.byte	0x1
 2259 0319 FE01     		.2byte	0x1fe
 2260 031b 9B000000 		.4byte	0x9b
 2261 031f 1C050000 		.4byte	.LLST10
 2262 0323 00       		.byte	0
 2263 0324 12       		.uleb128 0x12
 2264 0325 C8030000 		.4byte	.LASF51
 2265 0329 01       		.byte	0x1
 2266 032a 3402     		.2byte	0x234
 2267 032c 9B000000 		.4byte	0x9b
 2268 0330 00000000 		.4byte	.LFB41
 2269 0334 30000000 		.4byte	.LFE41-.LFB41
 2270 0338 01       		.uleb128 0x1
 2271 0339 9C       		.byte	0x9c
 2272 033a 5F030000 		.4byte	0x35f
 2273 033e 09       		.uleb128 0x9
 2274 033f 0A020000 		.4byte	.LASF41
 2275 0343 01       		.byte	0x1
 2276 0344 3402     		.2byte	0x234
 2277 0346 9B000000 		.4byte	0x9b
 2278 034a A1050000 		.4byte	.LLST11
 2279 034e 0A       		.uleb128 0xa
 2280 034f 97000000 		.4byte	.LASF52
 2281 0353 01       		.byte	0x1
 2282 0354 3602     		.2byte	0x236
 2283 0356 9B000000 		.4byte	0x9b
 2284 035a F0050000 		.4byte	.LLST12
 2285 035e 00       		.byte	0
 2286 035f 12       		.uleb128 0x12
 2287 0360 ED020000 		.4byte	.LASF53
 2288 0364 01       		.byte	0x1
 2289 0365 6102     		.2byte	0x261
 2290 0367 9B000000 		.4byte	0x9b
 2291 036b 00000000 		.4byte	.LFB42
 2292 036f 1C000000 		.4byte	.LFE42-.LFB42
 2293 0373 01       		.uleb128 0x1
 2294 0374 9C       		.byte	0x9c
ARM GAS  C:\Users\JAVIER~1\AppData\Local\Temp\ccyEBIku.s 			page 64


 2295 0375 AF030000 		.4byte	0x3af
 2296 0379 09       		.uleb128 0x9
 2297 037a 6C020000 		.4byte	.LASF40
 2298 037e 01       		.byte	0x1
 2299 037f 6102     		.2byte	0x261
 2300 0381 83000000 		.4byte	0x83
 2301 0385 43060000 		.4byte	.LLST13
 2302 0389 09       		.uleb128 0x9
 2303 038a 0A020000 		.4byte	.LASF41
 2304 038e 01       		.byte	0x1
 2305 038f 6102     		.2byte	0x261
 2306 0391 9B000000 		.4byte	0x9b
 2307 0395 6F060000 		.4byte	.LLST14
 2308 0399 13       		.uleb128 0x13
 2309 039a 7800     		.ascii	"x\000"
 2310 039c 01       		.byte	0x1
 2311 039d 6302     		.2byte	0x263
 2312 039f 9B000000 		.4byte	0x9b
 2313 03a3 01       		.uleb128 0x1
 2314 03a4 50       		.byte	0x50
 2315 03a5 14       		.uleb128 0x14
 2316 03a6 14000000 		.4byte	.LVL121
 2317 03aa 24030000 		.4byte	0x324
 2318 03ae 00       		.byte	0
 2319 03af 12       		.uleb128 0x12
 2320 03b0 88040000 		.4byte	.LASF54
 2321 03b4 01       		.byte	0x1
 2322 03b5 8802     		.2byte	0x288
 2323 03b7 9B000000 		.4byte	0x9b
 2324 03bb 00000000 		.4byte	.LFB43
 2325 03bf 1C000000 		.4byte	.LFE43-.LFB43
 2326 03c3 01       		.uleb128 0x1
 2327 03c4 9C       		.byte	0x9c
 2328 03c5 FF030000 		.4byte	0x3ff
 2329 03c9 09       		.uleb128 0x9
 2330 03ca 6C020000 		.4byte	.LASF40
 2331 03ce 01       		.byte	0x1
 2332 03cf 8802     		.2byte	0x288
 2333 03d1 83000000 		.4byte	0x83
 2334 03d5 8D060000 		.4byte	.LLST15
 2335 03d9 09       		.uleb128 0x9
 2336 03da 0A020000 		.4byte	.LASF41
 2337 03de 01       		.byte	0x1
 2338 03df 8802     		.2byte	0x288
 2339 03e1 9B000000 		.4byte	0x9b
 2340 03e5 B9060000 		.4byte	.LLST16
 2341 03e9 13       		.uleb128 0x13
 2342 03ea 7900     		.ascii	"y\000"
 2343 03ec 01       		.byte	0x1
 2344 03ed 8A02     		.2byte	0x28a
 2345 03ef 9B000000 		.4byte	0x9b
 2346 03f3 01       		.uleb128 0x1
 2347 03f4 50       		.byte	0x50
 2348 03f5 14       		.uleb128 0x14
 2349 03f6 14000000 		.4byte	.LVL128
 2350 03fa E9020000 		.4byte	0x2e9
 2351 03fe 00       		.byte	0
ARM GAS  C:\Users\JAVIER~1\AppData\Local\Temp\ccyEBIku.s 			page 65


 2352 03ff 15       		.uleb128 0x15
 2353 0400 9E050000 		.4byte	.LASF55
 2354 0404 01       		.byte	0x1
 2355 0405 B102     		.2byte	0x2b1
 2356 0407 83000000 		.4byte	0x83
 2357 040b 00000000 		.4byte	.LFB44
 2358 040f 2A000000 		.4byte	.LFE44-.LFB44
 2359 0413 01       		.uleb128 0x1
 2360 0414 9C       		.byte	0x9c
 2361 0415 4A040000 		.4byte	0x44a
 2362 0419 09       		.uleb128 0x9
 2363 041a 6C020000 		.4byte	.LASF40
 2364 041e 01       		.byte	0x1
 2365 041f B102     		.2byte	0x2b1
 2366 0421 83000000 		.4byte	0x83
 2367 0425 D7060000 		.4byte	.LLST17
 2368 0429 09       		.uleb128 0x9
 2369 042a 0A020000 		.4byte	.LASF41
 2370 042e 01       		.byte	0x1
 2371 042f B102     		.2byte	0x2b1
 2372 0431 9B000000 		.4byte	0x9b
 2373 0435 2A070000 		.4byte	.LLST18
 2374 0439 0A       		.uleb128 0xa
 2375 043a 4A020000 		.4byte	.LASF56
 2376 043e 01       		.byte	0x1
 2377 043f B302     		.2byte	0x2b3
 2378 0441 83000000 		.4byte	0x83
 2379 0445 88070000 		.4byte	.LLST19
 2380 0449 00       		.byte	0
 2381 044a 08       		.uleb128 0x8
 2382 044b 8D050000 		.4byte	.LASF57
 2383 044f 01       		.byte	0x1
 2384 0450 3C03     		.2byte	0x33c
 2385 0452 32010000 		.4byte	0x132
 2386 0456 00000000 		.4byte	.LFB46
 2387 045a 68030000 		.4byte	.LFE46-.LFB46
 2388 045e 01       		.uleb128 0x1
 2389 045f 9C       		.byte	0x9c
 2390 0460 F1050000 		.4byte	0x5f1
 2391 0464 09       		.uleb128 0x9
 2392 0465 6C020000 		.4byte	.LASF40
 2393 0469 01       		.byte	0x1
 2394 046a 3C03     		.2byte	0x33c
 2395 046c 83000000 		.4byte	0x83
 2396 0470 D8070000 		.4byte	.LLST20
 2397 0474 09       		.uleb128 0x9
 2398 0475 0A020000 		.4byte	.LASF41
 2399 0479 01       		.byte	0x1
 2400 047a 3C03     		.2byte	0x33c
 2401 047c 9B000000 		.4byte	0x9b
 2402 0480 23090000 		.4byte	.LLST21
 2403 0484 0A       		.uleb128 0xa
 2404 0485 C0000000 		.4byte	.LASF45
 2405 0489 01       		.byte	0x1
 2406 048a 3E03     		.2byte	0x33e
 2407 048c 32010000 		.4byte	0x132
 2408 0490 EA090000 		.4byte	.LLST22
ARM GAS  C:\Users\JAVIER~1\AppData\Local\Temp\ccyEBIku.s 			page 66


 2409 0494 16       		.uleb128 0x16
 2410 0495 E8040000 		.4byte	.LASF58
 2411 0499 01       		.byte	0x1
 2412 049a 3F03     		.2byte	0x33f
 2413 049c 32010000 		.4byte	0x132
 2414 04a0 05       		.uleb128 0x5
 2415 04a1 03       		.byte	0x3
 2416 04a2 1C000000 		.4byte	stickyGesture.5750
 2417 04a6 16       		.uleb128 0x16
 2418 04a7 B3020000 		.4byte	.LASF59
 2419 04ab 01       		.byte	0x1
 2420 04ac 4003     		.2byte	0x340
 2421 04ae 83000000 		.4byte	0x83
 2422 04b2 05       		.uleb128 0x5
 2423 04b3 03       		.byte	0x3
 2424 04b4 0C000000 		.4byte	tapCounter.5751
 2425 04b8 16       		.uleb128 0x16
 2426 04b9 FB040000 		.4byte	.LASF44
 2427 04bd 01       		.byte	0x1
 2428 04be 4003     		.2byte	0x340
 2429 04c0 83000000 		.4byte	0x83
 2430 04c4 05       		.uleb128 0x5
 2431 04c5 03       		.byte	0x3
 2432 04c6 04000000 		.4byte	firstRadius.5752
 2433 04ca 16       		.uleb128 0x16
 2434 04cb E3030000 		.4byte	.LASF60
 2435 04cf 01       		.byte	0x1
 2436 04d0 4003     		.2byte	0x340
 2437 04d2 83000000 		.4byte	0x83
 2438 04d6 05       		.uleb128 0x5
 2439 04d7 03       		.byte	0x3
 2440 04d8 10000000 		.4byte	prevRadius.5753
 2441 04dc 16       		.uleb128 0x16
 2442 04dd 51020000 		.4byte	.LASF61
 2443 04e1 01       		.byte	0x1
 2444 04e2 4103     		.2byte	0x341
 2445 04e4 9B000000 		.4byte	0x9b
 2446 04e8 05       		.uleb128 0x5
 2447 04e9 03       		.byte	0x3
 2448 04ea 08000000 		.4byte	firstTheta.5754
 2449 04ee 16       		.uleb128 0x16
 2450 04ef 34010000 		.4byte	.LASF62
 2451 04f3 01       		.byte	0x1
 2452 04f4 4103     		.2byte	0x341
 2453 04f6 9B000000 		.4byte	0x9b
 2454 04fa 05       		.uleb128 0x5
 2455 04fb 03       		.byte	0x3
 2456 04fc 14000000 		.4byte	prevTheta.5755
 2457 0500 16       		.uleb128 0x16
 2458 0501 71040000 		.4byte	.LASF63
 2459 0505 01       		.byte	0x1
 2460 0506 4203     		.2byte	0x342
 2461 0508 83000000 		.4byte	0x83
 2462 050c 05       		.uleb128 0x5
 2463 050d 03       		.byte	0x3
 2464 050e 00000000 		.4byte	processState.5756
 2465 0512 16       		.uleb128 0x16
ARM GAS  C:\Users\JAVIER~1\AppData\Local\Temp\ccyEBIku.s 			page 67


 2466 0513 10020000 		.4byte	.LASF64
 2467 0517 01       		.byte	0x1
 2468 0518 4203     		.2byte	0x342
 2469 051a 83000000 		.4byte	0x83
 2470 051e 05       		.uleb128 0x5
 2471 051f 03       		.byte	0x3
 2472 0520 18000000 		.4byte	debounceCounter.5757
 2473 0524 16       		.uleb128 0x16
 2474 0525 59010000 		.4byte	.LASF65
 2475 0529 01       		.byte	0x1
 2476 052a 4303     		.2byte	0x343
 2477 052c F1050000 		.4byte	0x5f1
 2478 0530 05       		.uleb128 0x5
 2479 0531 03       		.byte	0x3
 2480 0532 04000000 		.4byte	Gesture_sectorHistory.5758
 2481 0536 0A       		.uleb128 0xa
 2482 0537 13000000 		.4byte	.LASF66
 2483 053b 01       		.byte	0x1
 2484 053c 4503     		.2byte	0x345
 2485 053e 9B000000 		.4byte	0x9b
 2486 0542 4F0A0000 		.4byte	.LLST23
 2487 0546 0A       		.uleb128 0xa
 2488 0547 3B050000 		.4byte	.LASF67
 2489 054b 01       		.byte	0x1
 2490 054c 4503     		.2byte	0x345
 2491 054e 9B000000 		.4byte	0x9b
 2492 0552 F20A0000 		.4byte	.LLST24
 2493 0556 0A       		.uleb128 0xa
 2494 0557 4A020000 		.4byte	.LASF56
 2495 055b 01       		.byte	0x1
 2496 055c 4603     		.2byte	0x346
 2497 055e 83000000 		.4byte	0x83
 2498 0562 310B0000 		.4byte	.LLST25
 2499 0566 0A       		.uleb128 0xa
 2500 0567 BE020000 		.4byte	.LASF43
 2501 056b 01       		.byte	0x1
 2502 056c 4603     		.2byte	0x346
 2503 056e 83000000 		.4byte	0x83
 2504 0572 C90B0000 		.4byte	.LLST26
 2505 0576 0F       		.uleb128 0xf
 2506 0577 28000000 		.4byte	.LVL146
 2507 057b FF030000 		.4byte	0x3ff
 2508 057f 90050000 		.4byte	0x590
 2509 0583 10       		.uleb128 0x10
 2510 0584 01       		.uleb128 0x1
 2511 0585 51       		.byte	0x51
 2512 0586 02       		.uleb128 0x2
 2513 0587 74       		.byte	0x74
 2514 0588 00       		.sleb128 0
 2515 0589 10       		.uleb128 0x10
 2516 058a 01       		.uleb128 0x1
 2517 058b 50       		.byte	0x50
 2518 058c 02       		.uleb128 0x2
 2519 058d 75       		.byte	0x75
 2520 058e 00       		.sleb128 0
 2521 058f 00       		.byte	0
 2522 0590 0F       		.uleb128 0xf
ARM GAS  C:\Users\JAVIER~1\AppData\Local\Temp\ccyEBIku.s 			page 68


 2523 0591 F2000000 		.4byte	.LVL169
 2524 0595 FF030000 		.4byte	0x3ff
 2525 0599 AA050000 		.4byte	0x5aa
 2526 059d 10       		.uleb128 0x10
 2527 059e 01       		.uleb128 0x1
 2528 059f 51       		.byte	0x51
 2529 05a0 02       		.uleb128 0x2
 2530 05a1 74       		.byte	0x74
 2531 05a2 00       		.sleb128 0
 2532 05a3 10       		.uleb128 0x10
 2533 05a4 01       		.uleb128 0x1
 2534 05a5 50       		.byte	0x50
 2535 05a6 02       		.uleb128 0x2
 2536 05a7 75       		.byte	0x75
 2537 05a8 00       		.sleb128 0
 2538 05a9 00       		.byte	0
 2539 05aa 0F       		.uleb128 0xf
 2540 05ab 78010000 		.4byte	.LVL184
 2541 05af FF030000 		.4byte	0x3ff
 2542 05b3 C4050000 		.4byte	0x5c4
 2543 05b7 10       		.uleb128 0x10
 2544 05b8 01       		.uleb128 0x1
 2545 05b9 51       		.byte	0x51
 2546 05ba 02       		.uleb128 0x2
 2547 05bb 74       		.byte	0x74
 2548 05bc 00       		.sleb128 0
 2549 05bd 10       		.uleb128 0x10
 2550 05be 01       		.uleb128 0x1
 2551 05bf 50       		.byte	0x50
 2552 05c0 02       		.uleb128 0x2
 2553 05c1 75       		.byte	0x75
 2554 05c2 00       		.sleb128 0
 2555 05c3 00       		.byte	0
 2556 05c4 14       		.uleb128 0x14
 2557 05c5 CC010000 		.4byte	.LVL187
 2558 05c9 C3010000 		.4byte	0x1c3
 2559 05cd 0F       		.uleb128 0xf
 2560 05ce 32020000 		.4byte	.LVL203
 2561 05d2 FF030000 		.4byte	0x3ff
 2562 05d6 E7050000 		.4byte	0x5e7
 2563 05da 10       		.uleb128 0x10
 2564 05db 01       		.uleb128 0x1
 2565 05dc 51       		.byte	0x51
 2566 05dd 02       		.uleb128 0x2
 2567 05de 74       		.byte	0x74
 2568 05df 00       		.sleb128 0
 2569 05e0 10       		.uleb128 0x10
 2570 05e1 01       		.uleb128 0x1
 2571 05e2 50       		.byte	0x50
 2572 05e3 02       		.uleb128 0x2
 2573 05e4 75       		.byte	0x75
 2574 05e5 00       		.sleb128 0
 2575 05e6 00       		.byte	0
 2576 05e7 14       		.uleb128 0x14
 2577 05e8 86020000 		.4byte	.LVL206
 2578 05ec C3010000 		.4byte	0x1c3
 2579 05f0 00       		.byte	0
ARM GAS  C:\Users\JAVIER~1\AppData\Local\Temp\ccyEBIku.s 			page 69


 2580 05f1 17       		.uleb128 0x17
 2581 05f2 83000000 		.4byte	0x83
 2582 05f6 01060000 		.4byte	0x601
 2583 05fa 18       		.uleb128 0x18
 2584 05fb BC000000 		.4byte	0xbc
 2585 05ff 02       		.byte	0x2
 2586 0600 00       		.byte	0
 2587 0601 19       		.uleb128 0x19
 2588 0602 2C030000 		.4byte	.LASF68
 2589 0606 01       		.byte	0x1
 2590 0607 9E       		.byte	0x9e
 2591 0608 32010000 		.4byte	0x132
 2592 060c 00000000 		.4byte	.LFB36
 2593 0610 AC000000 		.4byte	.LFE36-.LFB36
 2594 0614 01       		.uleb128 0x1
 2595 0615 9C       		.byte	0x9c
 2596 0616 FF060000 		.4byte	0x6ff
 2597 061a 0D       		.uleb128 0xd
 2598 061b C2010000 		.4byte	.LASF69
 2599 061f 01       		.byte	0x1
 2600 0620 9E       		.byte	0x9e
 2601 0621 6B000000 		.4byte	0x6b
 2602 0625 E70B0000 		.4byte	.LLST27
 2603 0629 1A       		.uleb128 0x1a
 2604 062a A9020000 		.4byte	.LASF70
 2605 062e 01       		.byte	0x1
 2606 062f A0       		.byte	0xa0
 2607 0630 32010000 		.4byte	0x132
 2608 0634 080C0000 		.4byte	.LLST28
 2609 0638 1A       		.uleb128 0x1a
 2610 0639 BE050000 		.4byte	.LASF38
 2611 063d 01       		.byte	0x1
 2612 063e A1       		.byte	0xa1
 2613 063f 83000000 		.4byte	0x83
 2614 0643 1B0C0000 		.4byte	.LLST29
 2615 0647 1A       		.uleb128 0x1a
 2616 0648 27010000 		.4byte	.LASF47
 2617 064c 01       		.byte	0x1
 2618 064d A1       		.byte	0xa1
 2619 064e 83000000 		.4byte	0x83
 2620 0652 720C0000 		.4byte	.LLST30
 2621 0656 1A       		.uleb128 0x1a
 2622 0657 A6010000 		.4byte	.LASF39
 2623 065b 01       		.byte	0x1
 2624 065c A1       		.byte	0xa1
 2625 065d 83000000 		.4byte	0x83
 2626 0661 A80C0000 		.4byte	.LLST31
 2627 0665 0F       		.uleb128 0xf
 2628 0666 18000000 		.4byte	.LVL244
 2629 066a 1A080000 		.4byte	0x81a
 2630 066e 78060000 		.4byte	0x678
 2631 0672 10       		.uleb128 0x10
 2632 0673 01       		.uleb128 0x1
 2633 0674 50       		.byte	0x50
 2634 0675 01       		.uleb128 0x1
 2635 0676 30       		.byte	0x30
 2636 0677 00       		.byte	0
ARM GAS  C:\Users\JAVIER~1\AppData\Local\Temp\ccyEBIku.s 			page 70


 2637 0678 0F       		.uleb128 0xf
 2638 0679 3E000000 		.4byte	.LVL252
 2639 067d 0C020000 		.4byte	0x20c
 2640 0681 8C060000 		.4byte	0x68c
 2641 0685 10       		.uleb128 0x10
 2642 0686 01       		.uleb128 0x1
 2643 0687 50       		.byte	0x50
 2644 0688 02       		.uleb128 0x2
 2645 0689 75       		.byte	0x75
 2646 068a 00       		.sleb128 0
 2647 068b 00       		.byte	0
 2648 068c 0F       		.uleb128 0xf
 2649 068d 44000000 		.4byte	.LVL254
 2650 0691 3D010000 		.4byte	0x13d
 2651 0695 A0060000 		.4byte	0x6a0
 2652 0699 10       		.uleb128 0x10
 2653 069a 01       		.uleb128 0x1
 2654 069b 50       		.byte	0x50
 2655 069c 02       		.uleb128 0x2
 2656 069d 76       		.byte	0x76
 2657 069e 00       		.sleb128 0
 2658 069f 00       		.byte	0
 2659 06a0 0F       		.uleb128 0xf
 2660 06a1 52000000 		.4byte	.LVL255
 2661 06a5 78010000 		.4byte	0x178
 2662 06a9 BA060000 		.4byte	0x6ba
 2663 06ad 10       		.uleb128 0x10
 2664 06ae 01       		.uleb128 0x1
 2665 06af 51       		.byte	0x51
 2666 06b0 02       		.uleb128 0x2
 2667 06b1 74       		.byte	0x74
 2668 06b2 00       		.sleb128 0
 2669 06b3 10       		.uleb128 0x10
 2670 06b4 01       		.uleb128 0x1
 2671 06b5 50       		.byte	0x50
 2672 06b6 02       		.uleb128 0x2
 2673 06b7 76       		.byte	0x76
 2674 06b8 00       		.sleb128 0
 2675 06b9 00       		.byte	0
 2676 06ba 0F       		.uleb128 0xf
 2677 06bb 5E000000 		.4byte	.LVL257
 2678 06bf 4A040000 		.4byte	0x44a
 2679 06c3 CE060000 		.4byte	0x6ce
 2680 06c7 10       		.uleb128 0x10
 2681 06c8 01       		.uleb128 0x1
 2682 06c9 50       		.byte	0x50
 2683 06ca 02       		.uleb128 0x2
 2684 06cb 75       		.byte	0x75
 2685 06cc 00       		.sleb128 0
 2686 06cd 00       		.byte	0
 2687 06ce 0F       		.uleb128 0xf
 2688 06cf 72000000 		.4byte	.LVL260
 2689 06d3 5F030000 		.4byte	0x35f
 2690 06d7 E8060000 		.4byte	0x6e8
 2691 06db 10       		.uleb128 0x10
 2692 06dc 01       		.uleb128 0x1
 2693 06dd 51       		.byte	0x51
ARM GAS  C:\Users\JAVIER~1\AppData\Local\Temp\ccyEBIku.s 			page 71


 2694 06de 02       		.uleb128 0x2
 2695 06df 74       		.byte	0x74
 2696 06e0 00       		.sleb128 0
 2697 06e1 10       		.uleb128 0x10
 2698 06e2 01       		.uleb128 0x1
 2699 06e3 50       		.byte	0x50
 2700 06e4 02       		.uleb128 0x2
 2701 06e5 76       		.byte	0x76
 2702 06e6 00       		.sleb128 0
 2703 06e7 00       		.byte	0
 2704 06e8 11       		.uleb128 0x11
 2705 06e9 7E000000 		.4byte	.LVL261
 2706 06ed AF030000 		.4byte	0x3af
 2707 06f1 10       		.uleb128 0x10
 2708 06f2 01       		.uleb128 0x1
 2709 06f3 51       		.byte	0x51
 2710 06f4 02       		.uleb128 0x2
 2711 06f5 74       		.byte	0x74
 2712 06f6 00       		.sleb128 0
 2713 06f7 10       		.uleb128 0x10
 2714 06f8 01       		.uleb128 0x1
 2715 06f9 50       		.byte	0x50
 2716 06fa 02       		.uleb128 0x2
 2717 06fb 76       		.byte	0x76
 2718 06fc 00       		.sleb128 0
 2719 06fd 00       		.byte	0
 2720 06fe 00       		.byte	0
 2721 06ff 1B       		.uleb128 0x1b
 2722 0700 82000000 		.4byte	.LASF71
 2723 0704 01       		.byte	0x1
 2724 0705 39       		.byte	0x39
 2725 0706 83000000 		.4byte	0x83
 2726 070a 05       		.uleb128 0x5
 2727 070b 03       		.byte	0x3
 2728 070c 00000000 		.4byte	capsenseButtonStatus
 2729 0710 1B       		.uleb128 0x1b
 2730 0711 75050000 		.4byte	.LASF72
 2731 0715 01       		.byte	0x1
 2732 0716 3C       		.byte	0x3c
 2733 0717 9B000000 		.4byte	0x9b
 2734 071b 05       		.uleb128 0x5
 2735 071c 03       		.byte	0x3
 2736 071d 00000000 		.4byte	xPos
 2737 0721 1B       		.uleb128 0x1b
 2738 0722 36050000 		.4byte	.LASF73
 2739 0726 01       		.byte	0x1
 2740 0727 3C       		.byte	0x3c
 2741 0728 9B000000 		.4byte	0x9b
 2742 072c 05       		.uleb128 0x5
 2743 072d 03       		.byte	0x3
 2744 072e 00000000 		.4byte	yPos
 2745 0732 1B       		.uleb128 0x1b
 2746 0733 4F010000 		.4byte	.LASF74
 2747 0737 01       		.byte	0x1
 2748 0738 36       		.byte	0x36
 2749 0739 9B000000 		.4byte	0x9b
 2750 073d 05       		.uleb128 0x5
ARM GAS  C:\Users\JAVIER~1\AppData\Local\Temp\ccyEBIku.s 			page 72


 2751 073e 03       		.byte	0x3
 2752 073f 00000000 		.4byte	accRadius
 2753 0743 1B       		.uleb128 0x1b
 2754 0744 07050000 		.4byte	.LASF75
 2755 0748 01       		.byte	0x1
 2756 0749 36       		.byte	0x36
 2757 074a 9B000000 		.4byte	0x9b
 2758 074e 05       		.uleb128 0x5
 2759 074f 03       		.byte	0x3
 2760 0750 00000000 		.4byte	accTheta
 2761 0754 1B       		.uleb128 0x1b
 2762 0755 6C020000 		.4byte	.LASF40
 2763 0759 01       		.byte	0x1
 2764 075a 3F       		.byte	0x3f
 2765 075b 83000000 		.4byte	0x83
 2766 075f 05       		.uleb128 0x5
 2767 0760 03       		.byte	0x3
 2768 0761 00000000 		.4byte	radius
 2769 0765 1B       		.uleb128 0x1b
 2770 0766 0A020000 		.4byte	.LASF41
 2771 076a 01       		.byte	0x1
 2772 076b 40       		.byte	0x40
 2773 076c 9B000000 		.4byte	0x9b
 2774 0770 05       		.uleb128 0x5
 2775 0771 03       		.byte	0x3
 2776 0772 00000000 		.4byte	theta
 2777 0776 17       		.uleb128 0x17
 2778 0777 6B000000 		.4byte	0x6b
 2779 077b 86070000 		.4byte	0x786
 2780 077f 18       		.uleb128 0x18
 2781 0780 BC000000 		.4byte	0xbc
 2782 0784 01       		.byte	0x1
 2783 0785 00       		.byte	0
 2784 0786 1C       		.uleb128 0x1c
 2785 0787 20000000 		.4byte	.LASF76
 2786 078b 04       		.byte	0x4
 2787 078c 2C01     		.2byte	0x12c
 2788 078e 76070000 		.4byte	0x776
 2789 0792 1B       		.uleb128 0x1b
 2790 0793 4D050000 		.4byte	.LASF77
 2791 0797 01       		.byte	0x1
 2792 0798 33       		.byte	0x33
 2793 0799 77000000 		.4byte	0x77
 2794 079d 05       		.uleb128 0x5
 2795 079e 03       		.byte	0x3
 2796 079f 00000000 		.4byte	sliderCentroid
 2797 07a3 17       		.uleb128 0x17
 2798 07a4 8F000000 		.4byte	0x8f
 2799 07a8 B3070000 		.4byte	0x7b3
 2800 07ac 18       		.uleb128 0x18
 2801 07ad BC000000 		.4byte	0xbc
 2802 07b1 2D       		.byte	0x2d
 2803 07b2 00       		.byte	0
 2804 07b3 1B       		.uleb128 0x1b
 2805 07b4 78000000 		.4byte	.LASF78
 2806 07b8 01       		.byte	0x1
 2807 07b9 47       		.byte	0x47
ARM GAS  C:\Users\JAVIER~1\AppData\Local\Temp\ccyEBIku.s 			page 73


 2808 07ba C4070000 		.4byte	0x7c4
 2809 07be 05       		.uleb128 0x5
 2810 07bf 03       		.byte	0x3
 2811 07c0 00000000 		.4byte	sinLookUp
 2812 07c4 1D       		.uleb128 0x1d
 2813 07c5 A3070000 		.4byte	0x7a3
 2814 07c9 17       		.uleb128 0x17
 2815 07ca 83000000 		.4byte	0x83
 2816 07ce D9070000 		.4byte	0x7d9
 2817 07d2 18       		.uleb128 0x18
 2818 07d3 BC000000 		.4byte	0xbc
 2819 07d7 04       		.byte	0x4
 2820 07d8 00       		.byte	0
 2821 07d9 1B       		.uleb128 0x1b
 2822 07da FD010000 		.4byte	.LASF79
 2823 07de 01       		.byte	0x1
 2824 07df 76       		.byte	0x76
 2825 07e0 EA070000 		.4byte	0x7ea
 2826 07e4 05       		.uleb128 0x5
 2827 07e5 03       		.byte	0x3
 2828 07e6 00000000 		.4byte	sectorLookup
 2829 07ea 1D       		.uleb128 0x1d
 2830 07eb C9070000 		.4byte	0x7c9
 2831 07ef 1B       		.uleb128 0x1b
 2832 07f0 01030000 		.4byte	.LASF80
 2833 07f4 01       		.byte	0x1
 2834 07f5 77       		.byte	0x77
 2835 07f6 00080000 		.4byte	0x800
 2836 07fa 05       		.uleb128 0x5
 2837 07fb 03       		.byte	0x3
 2838 07fc 00000000 		.4byte	sectorToButtonLookup
 2839 0800 1D       		.uleb128 0x1d
 2840 0801 C9070000 		.4byte	0x7c9
 2841 0805 1E       		.uleb128 0x1e
 2842 0806 73020000 		.4byte	.LASF84
 2843 080a 04       		.byte	0x4
 2844 080b D7       		.byte	0xd7
 2845 080c 6B000000 		.4byte	0x6b
 2846 0810 1A080000 		.4byte	0x81a
 2847 0814 1F       		.uleb128 0x1f
 2848 0815 83000000 		.4byte	0x83
 2849 0819 00       		.byte	0
 2850 081a 20       		.uleb128 0x20
 2851 081b CF020000 		.4byte	.LASF85
 2852 081f 04       		.byte	0x4
 2853 0820 EA       		.byte	0xea
 2854 0821 77000000 		.4byte	0x77
 2855 0825 1F       		.uleb128 0x1f
 2856 0826 83000000 		.4byte	0x83
 2857 082a 00       		.byte	0
 2858 082b 00       		.byte	0
 2859              		.section	.debug_abbrev,"",%progbits
 2860              	.Ldebug_abbrev0:
 2861 0000 01       		.uleb128 0x1
 2862 0001 11       		.uleb128 0x11
 2863 0002 01       		.byte	0x1
 2864 0003 25       		.uleb128 0x25
ARM GAS  C:\Users\JAVIER~1\AppData\Local\Temp\ccyEBIku.s 			page 74


 2865 0004 0E       		.uleb128 0xe
 2866 0005 13       		.uleb128 0x13
 2867 0006 0B       		.uleb128 0xb
 2868 0007 03       		.uleb128 0x3
 2869 0008 0E       		.uleb128 0xe
 2870 0009 1B       		.uleb128 0x1b
 2871 000a 0E       		.uleb128 0xe
 2872 000b 55       		.uleb128 0x55
 2873 000c 17       		.uleb128 0x17
 2874 000d 11       		.uleb128 0x11
 2875 000e 01       		.uleb128 0x1
 2876 000f 10       		.uleb128 0x10
 2877 0010 17       		.uleb128 0x17
 2878 0011 00       		.byte	0
 2879 0012 00       		.byte	0
 2880 0013 02       		.uleb128 0x2
 2881 0014 24       		.uleb128 0x24
 2882 0015 00       		.byte	0
 2883 0016 0B       		.uleb128 0xb
 2884 0017 0B       		.uleb128 0xb
 2885 0018 3E       		.uleb128 0x3e
 2886 0019 0B       		.uleb128 0xb
 2887 001a 03       		.uleb128 0x3
 2888 001b 0E       		.uleb128 0xe
 2889 001c 00       		.byte	0
 2890 001d 00       		.byte	0
 2891 001e 03       		.uleb128 0x3
 2892 001f 24       		.uleb128 0x24
 2893 0020 00       		.byte	0
 2894 0021 0B       		.uleb128 0xb
 2895 0022 0B       		.uleb128 0xb
 2896 0023 3E       		.uleb128 0x3e
 2897 0024 0B       		.uleb128 0xb
 2898 0025 03       		.uleb128 0x3
 2899 0026 08       		.uleb128 0x8
 2900 0027 00       		.byte	0
 2901 0028 00       		.byte	0
 2902 0029 04       		.uleb128 0x4
 2903 002a 16       		.uleb128 0x16
 2904 002b 00       		.byte	0
 2905 002c 03       		.uleb128 0x3
 2906 002d 0E       		.uleb128 0xe
 2907 002e 3A       		.uleb128 0x3a
 2908 002f 0B       		.uleb128 0xb
 2909 0030 3B       		.uleb128 0x3b
 2910 0031 05       		.uleb128 0x5
 2911 0032 49       		.uleb128 0x49
 2912 0033 13       		.uleb128 0x13
 2913 0034 00       		.byte	0
 2914 0035 00       		.byte	0
 2915 0036 05       		.uleb128 0x5
 2916 0037 04       		.uleb128 0x4
 2917 0038 01       		.byte	0x1
 2918 0039 0B       		.uleb128 0xb
 2919 003a 0B       		.uleb128 0xb
 2920 003b 3A       		.uleb128 0x3a
 2921 003c 0B       		.uleb128 0xb
ARM GAS  C:\Users\JAVIER~1\AppData\Local\Temp\ccyEBIku.s 			page 75


 2922 003d 3B       		.uleb128 0x3b
 2923 003e 0B       		.uleb128 0xb
 2924 003f 01       		.uleb128 0x1
 2925 0040 13       		.uleb128 0x13
 2926 0041 00       		.byte	0
 2927 0042 00       		.byte	0
 2928 0043 06       		.uleb128 0x6
 2929 0044 28       		.uleb128 0x28
 2930 0045 00       		.byte	0
 2931 0046 03       		.uleb128 0x3
 2932 0047 0E       		.uleb128 0xe
 2933 0048 1C       		.uleb128 0x1c
 2934 0049 0D       		.uleb128 0xd
 2935 004a 00       		.byte	0
 2936 004b 00       		.byte	0
 2937 004c 07       		.uleb128 0x7
 2938 004d 16       		.uleb128 0x16
 2939 004e 00       		.byte	0
 2940 004f 03       		.uleb128 0x3
 2941 0050 0E       		.uleb128 0xe
 2942 0051 3A       		.uleb128 0x3a
 2943 0052 0B       		.uleb128 0xb
 2944 0053 3B       		.uleb128 0x3b
 2945 0054 0B       		.uleb128 0xb
 2946 0055 49       		.uleb128 0x49
 2947 0056 13       		.uleb128 0x13
 2948 0057 00       		.byte	0
 2949 0058 00       		.byte	0
 2950 0059 08       		.uleb128 0x8
 2951 005a 2E       		.uleb128 0x2e
 2952 005b 01       		.byte	0x1
 2953 005c 03       		.uleb128 0x3
 2954 005d 0E       		.uleb128 0xe
 2955 005e 3A       		.uleb128 0x3a
 2956 005f 0B       		.uleb128 0xb
 2957 0060 3B       		.uleb128 0x3b
 2958 0061 05       		.uleb128 0x5
 2959 0062 27       		.uleb128 0x27
 2960 0063 19       		.uleb128 0x19
 2961 0064 49       		.uleb128 0x49
 2962 0065 13       		.uleb128 0x13
 2963 0066 11       		.uleb128 0x11
 2964 0067 01       		.uleb128 0x1
 2965 0068 12       		.uleb128 0x12
 2966 0069 06       		.uleb128 0x6
 2967 006a 40       		.uleb128 0x40
 2968 006b 18       		.uleb128 0x18
 2969 006c 9742     		.uleb128 0x2117
 2970 006e 19       		.uleb128 0x19
 2971 006f 01       		.uleb128 0x1
 2972 0070 13       		.uleb128 0x13
 2973 0071 00       		.byte	0
 2974 0072 00       		.byte	0
 2975 0073 09       		.uleb128 0x9
 2976 0074 05       		.uleb128 0x5
 2977 0075 00       		.byte	0
 2978 0076 03       		.uleb128 0x3
ARM GAS  C:\Users\JAVIER~1\AppData\Local\Temp\ccyEBIku.s 			page 76


 2979 0077 0E       		.uleb128 0xe
 2980 0078 3A       		.uleb128 0x3a
 2981 0079 0B       		.uleb128 0xb
 2982 007a 3B       		.uleb128 0x3b
 2983 007b 05       		.uleb128 0x5
 2984 007c 49       		.uleb128 0x49
 2985 007d 13       		.uleb128 0x13
 2986 007e 02       		.uleb128 0x2
 2987 007f 17       		.uleb128 0x17
 2988 0080 00       		.byte	0
 2989 0081 00       		.byte	0
 2990 0082 0A       		.uleb128 0xa
 2991 0083 34       		.uleb128 0x34
 2992 0084 00       		.byte	0
 2993 0085 03       		.uleb128 0x3
 2994 0086 0E       		.uleb128 0xe
 2995 0087 3A       		.uleb128 0x3a
 2996 0088 0B       		.uleb128 0xb
 2997 0089 3B       		.uleb128 0x3b
 2998 008a 05       		.uleb128 0x5
 2999 008b 49       		.uleb128 0x49
 3000 008c 13       		.uleb128 0x13
 3001 008d 02       		.uleb128 0x2
 3002 008e 17       		.uleb128 0x17
 3003 008f 00       		.byte	0
 3004 0090 00       		.byte	0
 3005 0091 0B       		.uleb128 0xb
 3006 0092 05       		.uleb128 0x5
 3007 0093 00       		.byte	0
 3008 0094 03       		.uleb128 0x3
 3009 0095 0E       		.uleb128 0xe
 3010 0096 3A       		.uleb128 0x3a
 3011 0097 0B       		.uleb128 0xb
 3012 0098 3B       		.uleb128 0x3b
 3013 0099 05       		.uleb128 0x5
 3014 009a 49       		.uleb128 0x49
 3015 009b 13       		.uleb128 0x13
 3016 009c 02       		.uleb128 0x2
 3017 009d 18       		.uleb128 0x18
 3018 009e 00       		.byte	0
 3019 009f 00       		.byte	0
 3020 00a0 0C       		.uleb128 0xc
 3021 00a1 2E       		.uleb128 0x2e
 3022 00a2 01       		.byte	0x1
 3023 00a3 03       		.uleb128 0x3
 3024 00a4 0E       		.uleb128 0xe
 3025 00a5 3A       		.uleb128 0x3a
 3026 00a6 0B       		.uleb128 0xb
 3027 00a7 3B       		.uleb128 0x3b
 3028 00a8 0B       		.uleb128 0xb
 3029 00a9 27       		.uleb128 0x27
 3030 00aa 19       		.uleb128 0x19
 3031 00ab 49       		.uleb128 0x49
 3032 00ac 13       		.uleb128 0x13
 3033 00ad 11       		.uleb128 0x11
 3034 00ae 01       		.uleb128 0x1
 3035 00af 12       		.uleb128 0x12
ARM GAS  C:\Users\JAVIER~1\AppData\Local\Temp\ccyEBIku.s 			page 77


 3036 00b0 06       		.uleb128 0x6
 3037 00b1 40       		.uleb128 0x40
 3038 00b2 18       		.uleb128 0x18
 3039 00b3 9742     		.uleb128 0x2117
 3040 00b5 19       		.uleb128 0x19
 3041 00b6 01       		.uleb128 0x1
 3042 00b7 13       		.uleb128 0x13
 3043 00b8 00       		.byte	0
 3044 00b9 00       		.byte	0
 3045 00ba 0D       		.uleb128 0xd
 3046 00bb 05       		.uleb128 0x5
 3047 00bc 00       		.byte	0
 3048 00bd 03       		.uleb128 0x3
 3049 00be 0E       		.uleb128 0xe
 3050 00bf 3A       		.uleb128 0x3a
 3051 00c0 0B       		.uleb128 0xb
 3052 00c1 3B       		.uleb128 0x3b
 3053 00c2 0B       		.uleb128 0xb
 3054 00c3 49       		.uleb128 0x49
 3055 00c4 13       		.uleb128 0x13
 3056 00c5 02       		.uleb128 0x2
 3057 00c6 17       		.uleb128 0x17
 3058 00c7 00       		.byte	0
 3059 00c8 00       		.byte	0
 3060 00c9 0E       		.uleb128 0xe
 3061 00ca 34       		.uleb128 0x34
 3062 00cb 00       		.byte	0
 3063 00cc 03       		.uleb128 0x3
 3064 00cd 0E       		.uleb128 0xe
 3065 00ce 3A       		.uleb128 0x3a
 3066 00cf 0B       		.uleb128 0xb
 3067 00d0 3B       		.uleb128 0x3b
 3068 00d1 0B       		.uleb128 0xb
 3069 00d2 49       		.uleb128 0x49
 3070 00d3 13       		.uleb128 0x13
 3071 00d4 02       		.uleb128 0x2
 3072 00d5 18       		.uleb128 0x18
 3073 00d6 00       		.byte	0
 3074 00d7 00       		.byte	0
 3075 00d8 0F       		.uleb128 0xf
 3076 00d9 898201   		.uleb128 0x4109
 3077 00dc 01       		.byte	0x1
 3078 00dd 11       		.uleb128 0x11
 3079 00de 01       		.uleb128 0x1
 3080 00df 31       		.uleb128 0x31
 3081 00e0 13       		.uleb128 0x13
 3082 00e1 01       		.uleb128 0x1
 3083 00e2 13       		.uleb128 0x13
 3084 00e3 00       		.byte	0
 3085 00e4 00       		.byte	0
 3086 00e5 10       		.uleb128 0x10
 3087 00e6 8A8201   		.uleb128 0x410a
 3088 00e9 00       		.byte	0
 3089 00ea 02       		.uleb128 0x2
 3090 00eb 18       		.uleb128 0x18
 3091 00ec 9142     		.uleb128 0x2111
 3092 00ee 18       		.uleb128 0x18
ARM GAS  C:\Users\JAVIER~1\AppData\Local\Temp\ccyEBIku.s 			page 78


 3093 00ef 00       		.byte	0
 3094 00f0 00       		.byte	0
 3095 00f1 11       		.uleb128 0x11
 3096 00f2 898201   		.uleb128 0x4109
 3097 00f5 01       		.byte	0x1
 3098 00f6 11       		.uleb128 0x11
 3099 00f7 01       		.uleb128 0x1
 3100 00f8 31       		.uleb128 0x31
 3101 00f9 13       		.uleb128 0x13
 3102 00fa 00       		.byte	0
 3103 00fb 00       		.byte	0
 3104 00fc 12       		.uleb128 0x12
 3105 00fd 2E       		.uleb128 0x2e
 3106 00fe 01       		.byte	0x1
 3107 00ff 3F       		.uleb128 0x3f
 3108 0100 19       		.uleb128 0x19
 3109 0101 03       		.uleb128 0x3
 3110 0102 0E       		.uleb128 0xe
 3111 0103 3A       		.uleb128 0x3a
 3112 0104 0B       		.uleb128 0xb
 3113 0105 3B       		.uleb128 0x3b
 3114 0106 05       		.uleb128 0x5
 3115 0107 27       		.uleb128 0x27
 3116 0108 19       		.uleb128 0x19
 3117 0109 49       		.uleb128 0x49
 3118 010a 13       		.uleb128 0x13
 3119 010b 11       		.uleb128 0x11
 3120 010c 01       		.uleb128 0x1
 3121 010d 12       		.uleb128 0x12
 3122 010e 06       		.uleb128 0x6
 3123 010f 40       		.uleb128 0x40
 3124 0110 18       		.uleb128 0x18
 3125 0111 9742     		.uleb128 0x2117
 3126 0113 19       		.uleb128 0x19
 3127 0114 01       		.uleb128 0x1
 3128 0115 13       		.uleb128 0x13
 3129 0116 00       		.byte	0
 3130 0117 00       		.byte	0
 3131 0118 13       		.uleb128 0x13
 3132 0119 34       		.uleb128 0x34
 3133 011a 00       		.byte	0
 3134 011b 03       		.uleb128 0x3
 3135 011c 08       		.uleb128 0x8
 3136 011d 3A       		.uleb128 0x3a
 3137 011e 0B       		.uleb128 0xb
 3138 011f 3B       		.uleb128 0x3b
 3139 0120 05       		.uleb128 0x5
 3140 0121 49       		.uleb128 0x49
 3141 0122 13       		.uleb128 0x13
 3142 0123 02       		.uleb128 0x2
 3143 0124 18       		.uleb128 0x18
 3144 0125 00       		.byte	0
 3145 0126 00       		.byte	0
 3146 0127 14       		.uleb128 0x14
 3147 0128 898201   		.uleb128 0x4109
 3148 012b 00       		.byte	0
 3149 012c 11       		.uleb128 0x11
ARM GAS  C:\Users\JAVIER~1\AppData\Local\Temp\ccyEBIku.s 			page 79


 3150 012d 01       		.uleb128 0x1
 3151 012e 31       		.uleb128 0x31
 3152 012f 13       		.uleb128 0x13
 3153 0130 00       		.byte	0
 3154 0131 00       		.byte	0
 3155 0132 15       		.uleb128 0x15
 3156 0133 2E       		.uleb128 0x2e
 3157 0134 01       		.byte	0x1
 3158 0135 3F       		.uleb128 0x3f
 3159 0136 19       		.uleb128 0x19
 3160 0137 03       		.uleb128 0x3
 3161 0138 0E       		.uleb128 0xe
 3162 0139 3A       		.uleb128 0x3a
 3163 013a 0B       		.uleb128 0xb
 3164 013b 3B       		.uleb128 0x3b
 3165 013c 05       		.uleb128 0x5
 3166 013d 27       		.uleb128 0x27
 3167 013e 19       		.uleb128 0x19
 3168 013f 49       		.uleb128 0x49
 3169 0140 13       		.uleb128 0x13
 3170 0141 11       		.uleb128 0x11
 3171 0142 01       		.uleb128 0x1
 3172 0143 12       		.uleb128 0x12
 3173 0144 06       		.uleb128 0x6
 3174 0145 40       		.uleb128 0x40
 3175 0146 18       		.uleb128 0x18
 3176 0147 9642     		.uleb128 0x2116
 3177 0149 19       		.uleb128 0x19
 3178 014a 01       		.uleb128 0x1
 3179 014b 13       		.uleb128 0x13
 3180 014c 00       		.byte	0
 3181 014d 00       		.byte	0
 3182 014e 16       		.uleb128 0x16
 3183 014f 34       		.uleb128 0x34
 3184 0150 00       		.byte	0
 3185 0151 03       		.uleb128 0x3
 3186 0152 0E       		.uleb128 0xe
 3187 0153 3A       		.uleb128 0x3a
 3188 0154 0B       		.uleb128 0xb
 3189 0155 3B       		.uleb128 0x3b
 3190 0156 05       		.uleb128 0x5
 3191 0157 49       		.uleb128 0x49
 3192 0158 13       		.uleb128 0x13
 3193 0159 02       		.uleb128 0x2
 3194 015a 18       		.uleb128 0x18
 3195 015b 00       		.byte	0
 3196 015c 00       		.byte	0
 3197 015d 17       		.uleb128 0x17
 3198 015e 01       		.uleb128 0x1
 3199 015f 01       		.byte	0x1
 3200 0160 49       		.uleb128 0x49
 3201 0161 13       		.uleb128 0x13
 3202 0162 01       		.uleb128 0x1
 3203 0163 13       		.uleb128 0x13
 3204 0164 00       		.byte	0
 3205 0165 00       		.byte	0
 3206 0166 18       		.uleb128 0x18
ARM GAS  C:\Users\JAVIER~1\AppData\Local\Temp\ccyEBIku.s 			page 80


 3207 0167 21       		.uleb128 0x21
 3208 0168 00       		.byte	0
 3209 0169 49       		.uleb128 0x49
 3210 016a 13       		.uleb128 0x13
 3211 016b 2F       		.uleb128 0x2f
 3212 016c 0B       		.uleb128 0xb
 3213 016d 00       		.byte	0
 3214 016e 00       		.byte	0
 3215 016f 19       		.uleb128 0x19
 3216 0170 2E       		.uleb128 0x2e
 3217 0171 01       		.byte	0x1
 3218 0172 3F       		.uleb128 0x3f
 3219 0173 19       		.uleb128 0x19
 3220 0174 03       		.uleb128 0x3
 3221 0175 0E       		.uleb128 0xe
 3222 0176 3A       		.uleb128 0x3a
 3223 0177 0B       		.uleb128 0xb
 3224 0178 3B       		.uleb128 0x3b
 3225 0179 0B       		.uleb128 0xb
 3226 017a 27       		.uleb128 0x27
 3227 017b 19       		.uleb128 0x19
 3228 017c 49       		.uleb128 0x49
 3229 017d 13       		.uleb128 0x13
 3230 017e 11       		.uleb128 0x11
 3231 017f 01       		.uleb128 0x1
 3232 0180 12       		.uleb128 0x12
 3233 0181 06       		.uleb128 0x6
 3234 0182 40       		.uleb128 0x40
 3235 0183 18       		.uleb128 0x18
 3236 0184 9642     		.uleb128 0x2116
 3237 0186 19       		.uleb128 0x19
 3238 0187 01       		.uleb128 0x1
 3239 0188 13       		.uleb128 0x13
 3240 0189 00       		.byte	0
 3241 018a 00       		.byte	0
 3242 018b 1A       		.uleb128 0x1a
 3243 018c 34       		.uleb128 0x34
 3244 018d 00       		.byte	0
 3245 018e 03       		.uleb128 0x3
 3246 018f 0E       		.uleb128 0xe
 3247 0190 3A       		.uleb128 0x3a
 3248 0191 0B       		.uleb128 0xb
 3249 0192 3B       		.uleb128 0x3b
 3250 0193 0B       		.uleb128 0xb
 3251 0194 49       		.uleb128 0x49
 3252 0195 13       		.uleb128 0x13
 3253 0196 02       		.uleb128 0x2
 3254 0197 17       		.uleb128 0x17
 3255 0198 00       		.byte	0
 3256 0199 00       		.byte	0
 3257 019a 1B       		.uleb128 0x1b
 3258 019b 34       		.uleb128 0x34
 3259 019c 00       		.byte	0
 3260 019d 03       		.uleb128 0x3
 3261 019e 0E       		.uleb128 0xe
 3262 019f 3A       		.uleb128 0x3a
 3263 01a0 0B       		.uleb128 0xb
ARM GAS  C:\Users\JAVIER~1\AppData\Local\Temp\ccyEBIku.s 			page 81


 3264 01a1 3B       		.uleb128 0x3b
 3265 01a2 0B       		.uleb128 0xb
 3266 01a3 49       		.uleb128 0x49
 3267 01a4 13       		.uleb128 0x13
 3268 01a5 3F       		.uleb128 0x3f
 3269 01a6 19       		.uleb128 0x19
 3270 01a7 02       		.uleb128 0x2
 3271 01a8 18       		.uleb128 0x18
 3272 01a9 00       		.byte	0
 3273 01aa 00       		.byte	0
 3274 01ab 1C       		.uleb128 0x1c
 3275 01ac 34       		.uleb128 0x34
 3276 01ad 00       		.byte	0
 3277 01ae 03       		.uleb128 0x3
 3278 01af 0E       		.uleb128 0xe
 3279 01b0 3A       		.uleb128 0x3a
 3280 01b1 0B       		.uleb128 0xb
 3281 01b2 3B       		.uleb128 0x3b
 3282 01b3 05       		.uleb128 0x5
 3283 01b4 49       		.uleb128 0x49
 3284 01b5 13       		.uleb128 0x13
 3285 01b6 3F       		.uleb128 0x3f
 3286 01b7 19       		.uleb128 0x19
 3287 01b8 3C       		.uleb128 0x3c
 3288 01b9 19       		.uleb128 0x19
 3289 01ba 00       		.byte	0
 3290 01bb 00       		.byte	0
 3291 01bc 1D       		.uleb128 0x1d
 3292 01bd 26       		.uleb128 0x26
 3293 01be 00       		.byte	0
 3294 01bf 49       		.uleb128 0x49
 3295 01c0 13       		.uleb128 0x13
 3296 01c1 00       		.byte	0
 3297 01c2 00       		.byte	0
 3298 01c3 1E       		.uleb128 0x1e
 3299 01c4 2E       		.uleb128 0x2e
 3300 01c5 01       		.byte	0x1
 3301 01c6 3F       		.uleb128 0x3f
 3302 01c7 19       		.uleb128 0x19
 3303 01c8 03       		.uleb128 0x3
 3304 01c9 0E       		.uleb128 0xe
 3305 01ca 3A       		.uleb128 0x3a
 3306 01cb 0B       		.uleb128 0xb
 3307 01cc 3B       		.uleb128 0x3b
 3308 01cd 0B       		.uleb128 0xb
 3309 01ce 27       		.uleb128 0x27
 3310 01cf 19       		.uleb128 0x19
 3311 01d0 49       		.uleb128 0x49
 3312 01d1 13       		.uleb128 0x13
 3313 01d2 3C       		.uleb128 0x3c
 3314 01d3 19       		.uleb128 0x19
 3315 01d4 01       		.uleb128 0x1
 3316 01d5 13       		.uleb128 0x13
 3317 01d6 00       		.byte	0
 3318 01d7 00       		.byte	0
 3319 01d8 1F       		.uleb128 0x1f
 3320 01d9 05       		.uleb128 0x5
ARM GAS  C:\Users\JAVIER~1\AppData\Local\Temp\ccyEBIku.s 			page 82


 3321 01da 00       		.byte	0
 3322 01db 49       		.uleb128 0x49
 3323 01dc 13       		.uleb128 0x13
 3324 01dd 00       		.byte	0
 3325 01de 00       		.byte	0
 3326 01df 20       		.uleb128 0x20
 3327 01e0 2E       		.uleb128 0x2e
 3328 01e1 01       		.byte	0x1
 3329 01e2 3F       		.uleb128 0x3f
 3330 01e3 19       		.uleb128 0x19
 3331 01e4 03       		.uleb128 0x3
 3332 01e5 0E       		.uleb128 0xe
 3333 01e6 3A       		.uleb128 0x3a
 3334 01e7 0B       		.uleb128 0xb
 3335 01e8 3B       		.uleb128 0x3b
 3336 01e9 0B       		.uleb128 0xb
 3337 01ea 27       		.uleb128 0x27
 3338 01eb 19       		.uleb128 0x19
 3339 01ec 49       		.uleb128 0x49
 3340 01ed 13       		.uleb128 0x13
 3341 01ee 3C       		.uleb128 0x3c
 3342 01ef 19       		.uleb128 0x19
 3343 01f0 00       		.byte	0
 3344 01f1 00       		.byte	0
 3345 01f2 00       		.byte	0
 3346              		.section	.debug_loc,"",%progbits
 3347              	.Ldebug_loc0:
 3348              	.LLST0:
 3349 0000 00000000 		.4byte	.LVL0
 3350 0004 0A000000 		.4byte	.LVL1
 3351 0008 0100     		.2byte	0x1
 3352 000a 50       		.byte	0x50
 3353 000b 0A000000 		.4byte	.LVL1
 3354 000f 0C000000 		.4byte	.LVL2
 3355 0013 0400     		.2byte	0x4
 3356 0015 F3       		.byte	0xf3
 3357 0016 01       		.uleb128 0x1
 3358 0017 50       		.byte	0x50
 3359 0018 9F       		.byte	0x9f
 3360 0019 0C000000 		.4byte	.LVL2
 3361 001d 16000000 		.4byte	.LVL3
 3362 0021 0100     		.2byte	0x1
 3363 0023 50       		.byte	0x50
 3364 0024 16000000 		.4byte	.LVL3
 3365 0028 18000000 		.4byte	.LVL4
 3366 002c 0400     		.2byte	0x4
 3367 002e F3       		.byte	0xf3
 3368 002f 01       		.uleb128 0x1
 3369 0030 50       		.byte	0x50
 3370 0031 9F       		.byte	0x9f
 3371 0032 18000000 		.4byte	.LVL4
 3372 0036 1E000000 		.4byte	.LVL5
 3373 003a 0100     		.2byte	0x1
 3374 003c 50       		.byte	0x50
 3375 003d 1E000000 		.4byte	.LVL5
 3376 0041 20000000 		.4byte	.LVL6
 3377 0045 0400     		.2byte	0x4
ARM GAS  C:\Users\JAVIER~1\AppData\Local\Temp\ccyEBIku.s 			page 83


 3378 0047 70       		.byte	0x70
 3379 0048 817E     		.sleb128 -255
 3380 004a 9F       		.byte	0x9f
 3381 004b 20000000 		.4byte	.LVL6
 3382 004f 22000000 		.4byte	.LVL7
 3383 0053 0100     		.2byte	0x1
 3384 0055 50       		.byte	0x50
 3385 0056 22000000 		.4byte	.LVL7
 3386 005a 24000000 		.4byte	.LVL8
 3387 005e 0400     		.2byte	0x4
 3388 0060 F3       		.byte	0xf3
 3389 0061 01       		.uleb128 0x1
 3390 0062 50       		.byte	0x50
 3391 0063 9F       		.byte	0x9f
 3392 0064 24000000 		.4byte	.LVL8
 3393 0068 26000000 		.4byte	.LVL9
 3394 006c 0100     		.2byte	0x1
 3395 006e 50       		.byte	0x50
 3396 006f 26000000 		.4byte	.LVL9
 3397 0073 28000000 		.4byte	.LVL10
 3398 0077 0400     		.2byte	0x4
 3399 0079 F3       		.byte	0xf3
 3400 007a 01       		.uleb128 0x1
 3401 007b 50       		.byte	0x50
 3402 007c 9F       		.byte	0x9f
 3403 007d 28000000 		.4byte	.LVL10
 3404 0081 2A000000 		.4byte	.LVL11
 3405 0085 0100     		.2byte	0x1
 3406 0087 50       		.byte	0x50
 3407 0088 2A000000 		.4byte	.LVL11
 3408 008c 2C000000 		.4byte	.LFE38
 3409 0090 0400     		.2byte	0x4
 3410 0092 F3       		.byte	0xf3
 3411 0093 01       		.uleb128 0x1
 3412 0094 50       		.byte	0x50
 3413 0095 9F       		.byte	0x9f
 3414 0096 00000000 		.4byte	0
 3415 009a 00000000 		.4byte	0
 3416              	.LLST1:
 3417 009e 00000000 		.4byte	.LVL0
 3418 00a2 2A000000 		.4byte	.LVL11
 3419 00a6 0300     		.2byte	0x3
 3420 00a8 08       		.byte	0x8
 3421 00a9 FF       		.byte	0xff
 3422 00aa 9F       		.byte	0x9f
 3423 00ab 2A000000 		.4byte	.LVL11
 3424 00af 2C000000 		.4byte	.LFE38
 3425 00b3 0100     		.2byte	0x1
 3426 00b5 50       		.byte	0x50
 3427 00b6 00000000 		.4byte	0
 3428 00ba 00000000 		.4byte	0
 3429              	.LLST2:
 3430 00be 00000000 		.4byte	.LVL12
 3431 00c2 54000000 		.4byte	.LVL36
 3432 00c6 0100     		.2byte	0x1
 3433 00c8 50       		.byte	0x50
 3434 00c9 54000000 		.4byte	.LVL36
ARM GAS  C:\Users\JAVIER~1\AppData\Local\Temp\ccyEBIku.s 			page 84


 3435 00cd 5C000000 		.4byte	.LFE39
 3436 00d1 0400     		.2byte	0x4
 3437 00d3 F3       		.byte	0xf3
 3438 00d4 01       		.uleb128 0x1
 3439 00d5 50       		.byte	0x50
 3440 00d6 9F       		.byte	0x9f
 3441 00d7 00000000 		.4byte	0
 3442 00db 00000000 		.4byte	0
 3443              	.LLST3:
 3444 00df 00000000 		.4byte	.LVL12
 3445 00e3 0A000000 		.4byte	.LVL13
 3446 00e7 0100     		.2byte	0x1
 3447 00e9 51       		.byte	0x51
 3448 00ea 0A000000 		.4byte	.LVL13
 3449 00ee 0C000000 		.4byte	.LVL14
 3450 00f2 0400     		.2byte	0x4
 3451 00f4 71       		.byte	0x71
 3452 00f5 B401     		.sleb128 180
 3453 00f7 9F       		.byte	0x9f
 3454 00f8 0C000000 		.4byte	.LVL14
 3455 00fc 20000000 		.4byte	.LVL15
 3456 0100 0100     		.2byte	0x1
 3457 0102 51       		.byte	0x51
 3458 0103 20000000 		.4byte	.LVL15
 3459 0107 22000000 		.4byte	.LVL16
 3460 010b 0400     		.2byte	0x4
 3461 010d F3       		.byte	0xf3
 3462 010e 01       		.uleb128 0x1
 3463 010f 51       		.byte	0x51
 3464 0110 9F       		.byte	0x9f
 3465 0111 22000000 		.4byte	.LVL16
 3466 0115 24000000 		.4byte	.LVL17
 3467 0119 0100     		.2byte	0x1
 3468 011b 51       		.byte	0x51
 3469 011c 24000000 		.4byte	.LVL17
 3470 0120 26000000 		.4byte	.LVL18
 3471 0124 0400     		.2byte	0x4
 3472 0126 F3       		.byte	0xf3
 3473 0127 01       		.uleb128 0x1
 3474 0128 51       		.byte	0x51
 3475 0129 9F       		.byte	0x9f
 3476 012a 26000000 		.4byte	.LVL18
 3477 012e 28000000 		.4byte	.LVL19
 3478 0132 0100     		.2byte	0x1
 3479 0134 51       		.byte	0x51
 3480 0135 28000000 		.4byte	.LVL19
 3481 0139 2A000000 		.4byte	.LVL20
 3482 013d 0400     		.2byte	0x4
 3483 013f F3       		.byte	0xf3
 3484 0140 01       		.uleb128 0x1
 3485 0141 51       		.byte	0x51
 3486 0142 9F       		.byte	0x9f
 3487 0143 2A000000 		.4byte	.LVL20
 3488 0147 2C000000 		.4byte	.LVL21
 3489 014b 0100     		.2byte	0x1
 3490 014d 51       		.byte	0x51
 3491 014e 2C000000 		.4byte	.LVL21
ARM GAS  C:\Users\JAVIER~1\AppData\Local\Temp\ccyEBIku.s 			page 85


 3492 0152 2E000000 		.4byte	.LVL22
 3493 0156 0400     		.2byte	0x4
 3494 0158 F3       		.byte	0xf3
 3495 0159 01       		.uleb128 0x1
 3496 015a 51       		.byte	0x51
 3497 015b 9F       		.byte	0x9f
 3498 015c 2E000000 		.4byte	.LVL22
 3499 0160 30000000 		.4byte	.LVL23
 3500 0164 0100     		.2byte	0x1
 3501 0166 51       		.byte	0x51
 3502 0167 30000000 		.4byte	.LVL23
 3503 016b 34000000 		.4byte	.LVL24
 3504 016f 0400     		.2byte	0x4
 3505 0171 F3       		.byte	0xf3
 3506 0172 01       		.uleb128 0x1
 3507 0173 51       		.byte	0x51
 3508 0174 9F       		.byte	0x9f
 3509 0175 34000000 		.4byte	.LVL24
 3510 0179 36000000 		.4byte	.LVL25
 3511 017d 0100     		.2byte	0x1
 3512 017f 51       		.byte	0x51
 3513 0180 36000000 		.4byte	.LVL25
 3514 0184 3A000000 		.4byte	.LVL26
 3515 0188 0400     		.2byte	0x4
 3516 018a F3       		.byte	0xf3
 3517 018b 01       		.uleb128 0x1
 3518 018c 51       		.byte	0x51
 3519 018d 9F       		.byte	0x9f
 3520 018e 3A000000 		.4byte	.LVL26
 3521 0192 3C000000 		.4byte	.LVL27
 3522 0196 0100     		.2byte	0x1
 3523 0198 51       		.byte	0x51
 3524 0199 3C000000 		.4byte	.LVL27
 3525 019d 40000000 		.4byte	.LVL28
 3526 01a1 0400     		.2byte	0x4
 3527 01a3 F3       		.byte	0xf3
 3528 01a4 01       		.uleb128 0x1
 3529 01a5 51       		.byte	0x51
 3530 01a6 9F       		.byte	0x9f
 3531 01a7 40000000 		.4byte	.LVL28
 3532 01ab 42000000 		.4byte	.LVL29
 3533 01af 0100     		.2byte	0x1
 3534 01b1 51       		.byte	0x51
 3535 01b2 42000000 		.4byte	.LVL29
 3536 01b6 44000000 		.4byte	.LVL30
 3537 01ba 0400     		.2byte	0x4
 3538 01bc F3       		.byte	0xf3
 3539 01bd 01       		.uleb128 0x1
 3540 01be 51       		.byte	0x51
 3541 01bf 9F       		.byte	0x9f
 3542 01c0 44000000 		.4byte	.LVL30
 3543 01c4 4A000000 		.4byte	.LVL31
 3544 01c8 0100     		.2byte	0x1
 3545 01ca 51       		.byte	0x51
 3546 01cb 4A000000 		.4byte	.LVL31
 3547 01cf 4C000000 		.4byte	.LVL32
 3548 01d3 0400     		.2byte	0x4
ARM GAS  C:\Users\JAVIER~1\AppData\Local\Temp\ccyEBIku.s 			page 86


 3549 01d5 F3       		.byte	0xf3
 3550 01d6 01       		.uleb128 0x1
 3551 01d7 51       		.byte	0x51
 3552 01d8 9F       		.byte	0x9f
 3553 01d9 4C000000 		.4byte	.LVL32
 3554 01dd 4E000000 		.4byte	.LVL33
 3555 01e1 0100     		.2byte	0x1
 3556 01e3 51       		.byte	0x51
 3557 01e4 4E000000 		.4byte	.LVL33
 3558 01e8 50000000 		.4byte	.LVL34
 3559 01ec 0400     		.2byte	0x4
 3560 01ee F3       		.byte	0xf3
 3561 01ef 01       		.uleb128 0x1
 3562 01f0 51       		.byte	0x51
 3563 01f1 9F       		.byte	0x9f
 3564 01f2 50000000 		.4byte	.LVL34
 3565 01f6 52000000 		.4byte	.LVL35
 3566 01fa 0100     		.2byte	0x1
 3567 01fc 51       		.byte	0x51
 3568 01fd 52000000 		.4byte	.LVL35
 3569 0201 5C000000 		.4byte	.LFE39
 3570 0205 0400     		.2byte	0x4
 3571 0207 F3       		.byte	0xf3
 3572 0208 01       		.uleb128 0x1
 3573 0209 51       		.byte	0x51
 3574 020a 9F       		.byte	0x9f
 3575 020b 00000000 		.4byte	0
 3576 020f 00000000 		.4byte	0
 3577              	.LLST4:
 3578 0213 00000000 		.4byte	.LVL12
 3579 0217 0A000000 		.4byte	.LVL13
 3580 021b 0300     		.2byte	0x3
 3581 021d 08       		.byte	0x8
 3582 021e FA       		.byte	0xfa
 3583 021f 9F       		.byte	0x9f
 3584 0220 0A000000 		.4byte	.LVL13
 3585 0224 0C000000 		.4byte	.LVL14
 3586 0228 0100     		.2byte	0x1
 3587 022a 51       		.byte	0x51
 3588 022b 0C000000 		.4byte	.LVL14
 3589 022f 22000000 		.4byte	.LVL16
 3590 0233 0300     		.2byte	0x3
 3591 0235 08       		.byte	0x8
 3592 0236 FA       		.byte	0xfa
 3593 0237 9F       		.byte	0x9f
 3594 0238 22000000 		.4byte	.LVL16
 3595 023c 26000000 		.4byte	.LVL18
 3596 0240 0300     		.2byte	0x3
 3597 0242 08       		.byte	0x8
 3598 0243 2D       		.byte	0x2d
 3599 0244 9F       		.byte	0x9f
 3600 0245 26000000 		.4byte	.LVL18
 3601 0249 2A000000 		.4byte	.LVL20
 3602 024d 0200     		.2byte	0x2
 3603 024f 46       		.byte	0x46
 3604 0250 9F       		.byte	0x9f
 3605 0251 2A000000 		.4byte	.LVL20
ARM GAS  C:\Users\JAVIER~1\AppData\Local\Temp\ccyEBIku.s 			page 87


 3606 0255 2E000000 		.4byte	.LVL22
 3607 0259 0200     		.2byte	0x2
 3608 025b 30       		.byte	0x30
 3609 025c 9F       		.byte	0x9f
 3610 025d 2E000000 		.4byte	.LVL22
 3611 0261 34000000 		.4byte	.LVL24
 3612 0265 0300     		.2byte	0x3
 3613 0267 09       		.byte	0x9
 3614 0268 EA       		.byte	0xea
 3615 0269 9F       		.byte	0x9f
 3616 026a 34000000 		.4byte	.LVL24
 3617 026e 3A000000 		.4byte	.LVL26
 3618 0272 0300     		.2byte	0x3
 3619 0274 09       		.byte	0x9
 3620 0275 D3       		.byte	0xd3
 3621 0276 9F       		.byte	0x9f
 3622 0277 3A000000 		.4byte	.LVL26
 3623 027b 40000000 		.4byte	.LVL28
 3624 027f 0300     		.2byte	0x3
 3625 0281 09       		.byte	0x9
 3626 0282 BD       		.byte	0xbd
 3627 0283 9F       		.byte	0x9f
 3628 0284 40000000 		.4byte	.LVL28
 3629 0288 52000000 		.4byte	.LVL35
 3630 028c 0300     		.2byte	0x3
 3631 028e 08       		.byte	0x8
 3632 028f FA       		.byte	0xfa
 3633 0290 9F       		.byte	0x9f
 3634 0291 52000000 		.4byte	.LVL35
 3635 0295 5C000000 		.4byte	.LFE39
 3636 0299 0100     		.2byte	0x1
 3637 029b 51       		.byte	0x51
 3638 029c 00000000 		.4byte	0
 3639 02a0 00000000 		.4byte	0
 3640              	.LLST5:
 3641 02a4 00000000 		.4byte	.LVL37
 3642 02a8 5E000000 		.4byte	.LVL38
 3643 02ac 0100     		.2byte	0x1
 3644 02ae 50       		.byte	0x50
 3645 02af 5E000000 		.4byte	.LVL38
 3646 02b3 60000000 		.4byte	.LVL39
 3647 02b7 0400     		.2byte	0x4
 3648 02b9 F3       		.byte	0xf3
 3649 02ba 01       		.uleb128 0x1
 3650 02bb 50       		.byte	0x50
 3651 02bc 9F       		.byte	0x9f
 3652 02bd 60000000 		.4byte	.LVL39
 3653 02c1 62000000 		.4byte	.LVL40
 3654 02c5 0100     		.2byte	0x1
 3655 02c7 50       		.byte	0x50
 3656 02c8 62000000 		.4byte	.LVL40
 3657 02cc 64000000 		.4byte	.LVL41
 3658 02d0 0400     		.2byte	0x4
 3659 02d2 F3       		.byte	0xf3
 3660 02d3 01       		.uleb128 0x1
 3661 02d4 50       		.byte	0x50
 3662 02d5 9F       		.byte	0x9f
ARM GAS  C:\Users\JAVIER~1\AppData\Local\Temp\ccyEBIku.s 			page 88


 3663 02d6 64000000 		.4byte	.LVL41
 3664 02da 66000000 		.4byte	.LVL42
 3665 02de 0100     		.2byte	0x1
 3666 02e0 50       		.byte	0x50
 3667 02e1 66000000 		.4byte	.LVL42
 3668 02e5 68000000 		.4byte	.LVL43
 3669 02e9 0400     		.2byte	0x4
 3670 02eb F3       		.byte	0xf3
 3671 02ec 01       		.uleb128 0x1
 3672 02ed 50       		.byte	0x50
 3673 02ee 9F       		.byte	0x9f
 3674 02ef 68000000 		.4byte	.LVL43
 3675 02f3 6A000000 		.4byte	.LVL44
 3676 02f7 0100     		.2byte	0x1
 3677 02f9 50       		.byte	0x50
 3678 02fa 6A000000 		.4byte	.LVL44
 3679 02fe 6C000000 		.4byte	.LVL45
 3680 0302 0400     		.2byte	0x4
 3681 0304 F3       		.byte	0xf3
 3682 0305 01       		.uleb128 0x1
 3683 0306 50       		.byte	0x50
 3684 0307 9F       		.byte	0x9f
 3685 0308 6C000000 		.4byte	.LVL45
 3686 030c 76000000 		.4byte	.LVL46
 3687 0310 0100     		.2byte	0x1
 3688 0312 50       		.byte	0x50
 3689 0313 76000000 		.4byte	.LVL46
 3690 0317 78000000 		.4byte	.LVL47
 3691 031b 0400     		.2byte	0x4
 3692 031d F3       		.byte	0xf3
 3693 031e 01       		.uleb128 0x1
 3694 031f 50       		.byte	0x50
 3695 0320 9F       		.byte	0x9f
 3696 0321 78000000 		.4byte	.LVL47
 3697 0325 82000000 		.4byte	.LVL48
 3698 0329 0100     		.2byte	0x1
 3699 032b 50       		.byte	0x50
 3700 032c 82000000 		.4byte	.LVL48
 3701 0330 84000000 		.4byte	.LVL49
 3702 0334 0400     		.2byte	0x4
 3703 0336 F3       		.byte	0xf3
 3704 0337 01       		.uleb128 0x1
 3705 0338 50       		.byte	0x50
 3706 0339 9F       		.byte	0x9f
 3707 033a 84000000 		.4byte	.LVL49
 3708 033e 86000000 		.4byte	.LVL50
 3709 0342 0100     		.2byte	0x1
 3710 0344 50       		.byte	0x50
 3711 0345 86000000 		.4byte	.LVL50
 3712 0349 88000000 		.4byte	.LVL51
 3713 034d 0400     		.2byte	0x4
 3714 034f F3       		.byte	0xf3
 3715 0350 01       		.uleb128 0x1
 3716 0351 50       		.byte	0x50
 3717 0352 9F       		.byte	0x9f
 3718 0353 88000000 		.4byte	.LVL51
 3719 0357 8A000000 		.4byte	.LVL52
ARM GAS  C:\Users\JAVIER~1\AppData\Local\Temp\ccyEBIku.s 			page 89


 3720 035b 0100     		.2byte	0x1
 3721 035d 50       		.byte	0x50
 3722 035e 8A000000 		.4byte	.LVL52
 3723 0362 8C000000 		.4byte	.LVL53
 3724 0366 0400     		.2byte	0x4
 3725 0368 F3       		.byte	0xf3
 3726 0369 01       		.uleb128 0x1
 3727 036a 50       		.byte	0x50
 3728 036b 9F       		.byte	0x9f
 3729 036c 8C000000 		.4byte	.LVL53
 3730 0370 8E000000 		.4byte	.LVL54
 3731 0374 0100     		.2byte	0x1
 3732 0376 50       		.byte	0x50
 3733 0377 8E000000 		.4byte	.LVL54
 3734 037b 90000000 		.4byte	.LVL55
 3735 037f 0400     		.2byte	0x4
 3736 0381 F3       		.byte	0xf3
 3737 0382 01       		.uleb128 0x1
 3738 0383 50       		.byte	0x50
 3739 0384 9F       		.byte	0x9f
 3740 0385 90000000 		.4byte	.LVL55
 3741 0389 92000000 		.4byte	.LVL56
 3742 038d 0100     		.2byte	0x1
 3743 038f 50       		.byte	0x50
 3744 0390 92000000 		.4byte	.LVL56
 3745 0394 94000000 		.4byte	.LVL57
 3746 0398 0400     		.2byte	0x4
 3747 039a F3       		.byte	0xf3
 3748 039b 01       		.uleb128 0x1
 3749 039c 50       		.byte	0x50
 3750 039d 9F       		.byte	0x9f
 3751 039e 94000000 		.4byte	.LVL57
 3752 03a2 96000000 		.4byte	.LVL58
 3753 03a6 0100     		.2byte	0x1
 3754 03a8 50       		.byte	0x50
 3755 03a9 96000000 		.4byte	.LVL58
 3756 03ad 98000000 		.4byte	.LFE45
 3757 03b1 0400     		.2byte	0x4
 3758 03b3 F3       		.byte	0xf3
 3759 03b4 01       		.uleb128 0x1
 3760 03b5 50       		.byte	0x50
 3761 03b6 9F       		.byte	0x9f
 3762 03b7 00000000 		.4byte	0
 3763 03bb 00000000 		.4byte	0
 3764              	.LLST6:
 3765 03bf 00000000 		.4byte	.LVL37
 3766 03c3 60000000 		.4byte	.LVL39
 3767 03c7 0200     		.2byte	0x2
 3768 03c9 40       		.byte	0x40
 3769 03ca 9F       		.byte	0x9f
 3770 03cb 60000000 		.4byte	.LVL39
 3771 03cf 64000000 		.4byte	.LVL41
 3772 03d3 0200     		.2byte	0x2
 3773 03d5 37       		.byte	0x37
 3774 03d6 9F       		.byte	0x9f
 3775 03d7 64000000 		.4byte	.LVL41
 3776 03db 68000000 		.4byte	.LVL43
ARM GAS  C:\Users\JAVIER~1\AppData\Local\Temp\ccyEBIku.s 			page 90


 3777 03df 0200     		.2byte	0x2
 3778 03e1 36       		.byte	0x36
 3779 03e2 9F       		.byte	0x9f
 3780 03e3 68000000 		.4byte	.LVL43
 3781 03e7 6C000000 		.4byte	.LVL45
 3782 03eb 0200     		.2byte	0x2
 3783 03ed 35       		.byte	0x35
 3784 03ee 9F       		.byte	0x9f
 3785 03ef 6C000000 		.4byte	.LVL45
 3786 03f3 96000000 		.4byte	.LVL58
 3787 03f7 0200     		.2byte	0x2
 3788 03f9 40       		.byte	0x40
 3789 03fa 9F       		.byte	0x9f
 3790 03fb 96000000 		.4byte	.LVL58
 3791 03ff 98000000 		.4byte	.LFE45
 3792 0403 0100     		.2byte	0x1
 3793 0405 50       		.byte	0x50
 3794 0406 00000000 		.4byte	0
 3795 040a 00000000 		.4byte	0
 3796              	.LLST7:
 3797 040e 00000000 		.4byte	.LVL59
 3798 0412 12000000 		.4byte	.LVL60
 3799 0416 0100     		.2byte	0x1
 3800 0418 50       		.byte	0x50
 3801 0419 12000000 		.4byte	.LVL60
 3802 041d F4000000 		.4byte	.LVL88
 3803 0421 0100     		.2byte	0x1
 3804 0423 54       		.byte	0x54
 3805 0424 F4000000 		.4byte	.LVL88
 3806 0428 FC000000 		.4byte	.LFE37
 3807 042c 0100     		.2byte	0x1
 3808 042e 50       		.byte	0x50
 3809 042f 00000000 		.4byte	0
 3810 0433 00000000 		.4byte	0
 3811              	.LLST8:
 3812 0437 00000000 		.4byte	.LVL59
 3813 043b 49000000 		.4byte	.LVL65-1
 3814 043f 0100     		.2byte	0x1
 3815 0441 51       		.byte	0x51
 3816 0442 49000000 		.4byte	.LVL65-1
 3817 0446 90000000 		.4byte	.LVL73
 3818 044a 0100     		.2byte	0x1
 3819 044c 55       		.byte	0x55
 3820 044d 90000000 		.4byte	.LVL73
 3821 0451 B2000000 		.4byte	.LVL78
 3822 0455 0400     		.2byte	0x4
 3823 0457 F3       		.byte	0xf3
 3824 0458 01       		.uleb128 0x1
 3825 0459 51       		.byte	0x51
 3826 045a 9F       		.byte	0x9f
 3827 045b B2000000 		.4byte	.LVL78
 3828 045f BA000000 		.4byte	.LVL80
 3829 0463 0100     		.2byte	0x1
 3830 0465 55       		.byte	0x55
 3831 0466 BA000000 		.4byte	.LVL80
 3832 046a FC000000 		.4byte	.LFE37
 3833 046e 0400     		.2byte	0x4
ARM GAS  C:\Users\JAVIER~1\AppData\Local\Temp\ccyEBIku.s 			page 91


 3834 0470 F3       		.byte	0xf3
 3835 0471 01       		.uleb128 0x1
 3836 0472 51       		.byte	0x51
 3837 0473 9F       		.byte	0x9f
 3838 0474 00000000 		.4byte	0
 3839 0478 00000000 		.4byte	0
 3840              	.LLST9:
 3841 047c 00000000 		.4byte	.LVL89
 3842 0480 0A000000 		.4byte	.LVL90
 3843 0484 0100     		.2byte	0x1
 3844 0486 50       		.byte	0x50
 3845 0487 0A000000 		.4byte	.LVL90
 3846 048b 14000000 		.4byte	.LVL91
 3847 048f 0100     		.2byte	0x1
 3848 0491 53       		.byte	0x53
 3849 0492 14000000 		.4byte	.LVL91
 3850 0496 1A000000 		.4byte	.LVL93
 3851 049a 0500     		.2byte	0x5
 3852 049c F3       		.byte	0xf3
 3853 049d 01       		.uleb128 0x1
 3854 049e 50       		.byte	0x50
 3855 049f 1F       		.byte	0x1f
 3856 04a0 9F       		.byte	0x9f
 3857 04a1 1A000000 		.4byte	.LVL93
 3858 04a5 1C000000 		.4byte	.LVL94
 3859 04a9 0100     		.2byte	0x1
 3860 04ab 53       		.byte	0x53
 3861 04ac 1C000000 		.4byte	.LVL94
 3862 04b0 20000000 		.4byte	.LVL95
 3863 04b4 0400     		.2byte	0x4
 3864 04b6 70       		.byte	0x70
 3865 04b7 00       		.sleb128 0
 3866 04b8 1F       		.byte	0x1f
 3867 04b9 9F       		.byte	0x9f
 3868 04ba 20000000 		.4byte	.LVL95
 3869 04be 24000000 		.4byte	.LVL97
 3870 04c2 0500     		.2byte	0x5
 3871 04c4 F3       		.byte	0xf3
 3872 04c5 01       		.uleb128 0x1
 3873 04c6 50       		.byte	0x50
 3874 04c7 1F       		.byte	0x1f
 3875 04c8 9F       		.byte	0x9f
 3876 04c9 24000000 		.4byte	.LVL97
 3877 04cd 2C000000 		.4byte	.LVL98
 3878 04d1 0100     		.2byte	0x1
 3879 04d3 50       		.byte	0x50
 3880 04d4 2C000000 		.4byte	.LVL98
 3881 04d8 34000000 		.4byte	.LVL100
 3882 04dc 0400     		.2byte	0x4
 3883 04de F3       		.byte	0xf3
 3884 04df 01       		.uleb128 0x1
 3885 04e0 50       		.byte	0x50
 3886 04e1 9F       		.byte	0x9f
 3887 04e2 34000000 		.4byte	.LVL100
 3888 04e6 36000000 		.4byte	.LVL101
 3889 04ea 0100     		.2byte	0x1
 3890 04ec 50       		.byte	0x50
ARM GAS  C:\Users\JAVIER~1\AppData\Local\Temp\ccyEBIku.s 			page 92


 3891 04ed 36000000 		.4byte	.LVL101
 3892 04f1 3C000000 		.4byte	.LVL103
 3893 04f5 0400     		.2byte	0x4
 3894 04f7 F3       		.byte	0xf3
 3895 04f8 01       		.uleb128 0x1
 3896 04f9 50       		.byte	0x50
 3897 04fa 9F       		.byte	0x9f
 3898 04fb 3C000000 		.4byte	.LVL103
 3899 04ff 3E000000 		.4byte	.LVL104
 3900 0503 0100     		.2byte	0x1
 3901 0505 50       		.byte	0x50
 3902 0506 3E000000 		.4byte	.LVL104
 3903 050a 40000000 		.4byte	.LVL105
 3904 050e 0400     		.2byte	0x4
 3905 0510 F3       		.byte	0xf3
 3906 0511 01       		.uleb128 0x1
 3907 0512 50       		.byte	0x50
 3908 0513 9F       		.byte	0x9f
 3909 0514 00000000 		.4byte	0
 3910 0518 00000000 		.4byte	0
 3911              	.LLST10:
 3912 051c 00000000 		.4byte	.LVL89
 3913 0520 18000000 		.4byte	.LVL92
 3914 0524 0400     		.2byte	0x4
 3915 0526 0A       		.byte	0xa
 3916 0527 E803     		.2byte	0x3e8
 3917 0529 9F       		.byte	0x9f
 3918 052a 18000000 		.4byte	.LVL92
 3919 052e 1A000000 		.4byte	.LVL93
 3920 0532 0100     		.2byte	0x1
 3921 0534 50       		.byte	0x50
 3922 0535 1A000000 		.4byte	.LVL93
 3923 0539 22000000 		.4byte	.LVL96
 3924 053d 0400     		.2byte	0x4
 3925 053f 0A       		.byte	0xa
 3926 0540 E803     		.2byte	0x3e8
 3927 0542 9F       		.byte	0x9f
 3928 0543 22000000 		.4byte	.LVL96
 3929 0547 24000000 		.4byte	.LVL97
 3930 054b 0100     		.2byte	0x1
 3931 054d 50       		.byte	0x50
 3932 054e 24000000 		.4byte	.LVL97
 3933 0552 32000000 		.4byte	.LVL99
 3934 0556 0400     		.2byte	0x4
 3935 0558 0A       		.byte	0xa
 3936 0559 E803     		.2byte	0x3e8
 3937 055b 9F       		.byte	0x9f
 3938 055c 32000000 		.4byte	.LVL99
 3939 0560 34000000 		.4byte	.LVL100
 3940 0564 0100     		.2byte	0x1
 3941 0566 50       		.byte	0x50
 3942 0567 34000000 		.4byte	.LVL100
 3943 056b 3A000000 		.4byte	.LVL102
 3944 056f 0400     		.2byte	0x4
 3945 0571 0A       		.byte	0xa
 3946 0572 E803     		.2byte	0x3e8
 3947 0574 9F       		.byte	0x9f
ARM GAS  C:\Users\JAVIER~1\AppData\Local\Temp\ccyEBIku.s 			page 93


 3948 0575 3A000000 		.4byte	.LVL102
 3949 0579 3C000000 		.4byte	.LVL103
 3950 057d 0100     		.2byte	0x1
 3951 057f 50       		.byte	0x50
 3952 0580 3C000000 		.4byte	.LVL103
 3953 0584 40000000 		.4byte	.LVL105
 3954 0588 0400     		.2byte	0x4
 3955 058a 0A       		.byte	0xa
 3956 058b E803     		.2byte	0x3e8
 3957 058d 9F       		.byte	0x9f
 3958 058e 40000000 		.4byte	.LVL105
 3959 0592 48000000 		.4byte	.LFE40
 3960 0596 0100     		.2byte	0x1
 3961 0598 50       		.byte	0x50
 3962 0599 00000000 		.4byte	0
 3963 059d 00000000 		.4byte	0
 3964              	.LLST11:
 3965 05a1 00000000 		.4byte	.LVL106
 3966 05a5 0A000000 		.4byte	.LVL107
 3967 05a9 0100     		.2byte	0x1
 3968 05ab 50       		.byte	0x50
 3969 05ac 0A000000 		.4byte	.LVL107
 3970 05b0 10000000 		.4byte	.LVL108
 3971 05b4 0100     		.2byte	0x1
 3972 05b6 50       		.byte	0x50
 3973 05b7 10000000 		.4byte	.LVL108
 3974 05bb 12000000 		.4byte	.LVL109
 3975 05bf 0300     		.2byte	0x3
 3976 05c1 70       		.byte	0x70
 3977 05c2 2D       		.sleb128 45
 3978 05c3 9F       		.byte	0x9f
 3979 05c4 1A000000 		.4byte	.LVL111
 3980 05c8 1E000000 		.4byte	.LVL112
 3981 05cc 0100     		.2byte	0x1
 3982 05ce 50       		.byte	0x50
 3983 05cf 26000000 		.4byte	.LVL114
 3984 05d3 28000000 		.4byte	.LVL115
 3985 05d7 0100     		.2byte	0x1
 3986 05d9 50       		.byte	0x50
 3987 05da 28000000 		.4byte	.LVL115
 3988 05de 2A000000 		.4byte	.LVL116
 3989 05e2 0400     		.2byte	0x4
 3990 05e4 F3       		.byte	0xf3
 3991 05e5 01       		.uleb128 0x1
 3992 05e6 50       		.byte	0x50
 3993 05e7 9F       		.byte	0x9f
 3994 05e8 00000000 		.4byte	0
 3995 05ec 00000000 		.4byte	0
 3996              	.LLST12:
 3997 05f0 00000000 		.4byte	.LVL106
 3998 05f4 18000000 		.4byte	.LVL110
 3999 05f8 0400     		.2byte	0x4
 4000 05fa 0A       		.byte	0xa
 4001 05fb E803     		.2byte	0x3e8
 4002 05fd 9F       		.byte	0x9f
 4003 05fe 18000000 		.4byte	.LVL110
 4004 0602 1A000000 		.4byte	.LVL111
ARM GAS  C:\Users\JAVIER~1\AppData\Local\Temp\ccyEBIku.s 			page 94


 4005 0606 0100     		.2byte	0x1
 4006 0608 50       		.byte	0x50
 4007 0609 1A000000 		.4byte	.LVL111
 4008 060d 24000000 		.4byte	.LVL113
 4009 0611 0400     		.2byte	0x4
 4010 0613 0A       		.byte	0xa
 4011 0614 E803     		.2byte	0x3e8
 4012 0616 9F       		.byte	0x9f
 4013 0617 24000000 		.4byte	.LVL113
 4014 061b 26000000 		.4byte	.LVL114
 4015 061f 0100     		.2byte	0x1
 4016 0621 50       		.byte	0x50
 4017 0622 26000000 		.4byte	.LVL114
 4018 0626 2A000000 		.4byte	.LVL116
 4019 062a 0400     		.2byte	0x4
 4020 062c 0A       		.byte	0xa
 4021 062d E803     		.2byte	0x3e8
 4022 062f 9F       		.byte	0x9f
 4023 0630 2A000000 		.4byte	.LVL116
 4024 0634 30000000 		.4byte	.LFE41
 4025 0638 0100     		.2byte	0x1
 4026 063a 50       		.byte	0x50
 4027 063b 00000000 		.4byte	0
 4028 063f 00000000 		.4byte	0
 4029              	.LLST13:
 4030 0643 00000000 		.4byte	.LVL117
 4031 0647 06000000 		.4byte	.LVL118
 4032 064b 0100     		.2byte	0x1
 4033 064d 50       		.byte	0x50
 4034 064e 06000000 		.4byte	.LVL118
 4035 0652 1A000000 		.4byte	.LVL123
 4036 0656 0100     		.2byte	0x1
 4037 0658 54       		.byte	0x54
 4038 0659 1A000000 		.4byte	.LVL123
 4039 065d 1C000000 		.4byte	.LFE42
 4040 0661 0400     		.2byte	0x4
 4041 0663 F3       		.byte	0xf3
 4042 0664 01       		.uleb128 0x1
 4043 0665 50       		.byte	0x50
 4044 0666 9F       		.byte	0x9f
 4045 0667 00000000 		.4byte	0
 4046 066b 00000000 		.4byte	0
 4047              	.LLST14:
 4048 066f 00000000 		.4byte	.LVL117
 4049 0673 08000000 		.4byte	.LVL119
 4050 0677 0100     		.2byte	0x1
 4051 0679 51       		.byte	0x51
 4052 067a 08000000 		.4byte	.LVL119
 4053 067e 13000000 		.4byte	.LVL121-1
 4054 0682 0100     		.2byte	0x1
 4055 0684 50       		.byte	0x50
 4056 0685 00000000 		.4byte	0
 4057 0689 00000000 		.4byte	0
 4058              	.LLST15:
 4059 068d 00000000 		.4byte	.LVL124
 4060 0691 06000000 		.4byte	.LVL125
 4061 0695 0100     		.2byte	0x1
ARM GAS  C:\Users\JAVIER~1\AppData\Local\Temp\ccyEBIku.s 			page 95


 4062 0697 50       		.byte	0x50
 4063 0698 06000000 		.4byte	.LVL125
 4064 069c 1A000000 		.4byte	.LVL130
 4065 06a0 0100     		.2byte	0x1
 4066 06a2 54       		.byte	0x54
 4067 06a3 1A000000 		.4byte	.LVL130
 4068 06a7 1C000000 		.4byte	.LFE43
 4069 06ab 0400     		.2byte	0x4
 4070 06ad F3       		.byte	0xf3
 4071 06ae 01       		.uleb128 0x1
 4072 06af 50       		.byte	0x50
 4073 06b0 9F       		.byte	0x9f
 4074 06b1 00000000 		.4byte	0
 4075 06b5 00000000 		.4byte	0
 4076              	.LLST16:
 4077 06b9 00000000 		.4byte	.LVL124
 4078 06bd 08000000 		.4byte	.LVL126
 4079 06c1 0100     		.2byte	0x1
 4080 06c3 51       		.byte	0x51
 4081 06c4 08000000 		.4byte	.LVL126
 4082 06c8 13000000 		.4byte	.LVL128-1
 4083 06cc 0100     		.2byte	0x1
 4084 06ce 50       		.byte	0x50
 4085 06cf 00000000 		.4byte	0
 4086 06d3 00000000 		.4byte	0
 4087              	.LLST17:
 4088 06d7 00000000 		.4byte	.LVL131
 4089 06db 0C000000 		.4byte	.LVL133
 4090 06df 0100     		.2byte	0x1
 4091 06e1 50       		.byte	0x50
 4092 06e2 0C000000 		.4byte	.LVL133
 4093 06e6 22000000 		.4byte	.LVL140
 4094 06ea 0400     		.2byte	0x4
 4095 06ec F3       		.byte	0xf3
 4096 06ed 01       		.uleb128 0x1
 4097 06ee 50       		.byte	0x50
 4098 06ef 9F       		.byte	0x9f
 4099 06f0 22000000 		.4byte	.LVL140
 4100 06f4 24000000 		.4byte	.LVL141
 4101 06f8 0100     		.2byte	0x1
 4102 06fa 50       		.byte	0x50
 4103 06fb 24000000 		.4byte	.LVL141
 4104 06ff 26000000 		.4byte	.LVL142
 4105 0703 0400     		.2byte	0x4
 4106 0705 F3       		.byte	0xf3
 4107 0706 01       		.uleb128 0x1
 4108 0707 50       		.byte	0x50
 4109 0708 9F       		.byte	0x9f
 4110 0709 26000000 		.4byte	.LVL142
 4111 070d 28000000 		.4byte	.LVL143
 4112 0711 0100     		.2byte	0x1
 4113 0713 50       		.byte	0x50
 4114 0714 28000000 		.4byte	.LVL143
 4115 0718 2A000000 		.4byte	.LFE44
 4116 071c 0400     		.2byte	0x4
 4117 071e F3       		.byte	0xf3
 4118 071f 01       		.uleb128 0x1
ARM GAS  C:\Users\JAVIER~1\AppData\Local\Temp\ccyEBIku.s 			page 96


 4119 0720 50       		.byte	0x50
 4120 0721 9F       		.byte	0x9f
 4121 0722 00000000 		.4byte	0
 4122 0726 00000000 		.4byte	0
 4123              	.LLST18:
 4124 072a 00000000 		.4byte	.LVL131
 4125 072e 10000000 		.4byte	.LVL134
 4126 0732 0100     		.2byte	0x1
 4127 0734 51       		.byte	0x51
 4128 0735 10000000 		.4byte	.LVL134
 4129 0739 13000000 		.4byte	.LVL135-1
 4130 073d 0100     		.2byte	0x1
 4131 073f 50       		.byte	0x50
 4132 0740 13000000 		.4byte	.LVL135-1
 4133 0744 18000000 		.4byte	.LVL137
 4134 0748 0400     		.2byte	0x4
 4135 074a F3       		.byte	0xf3
 4136 074b 01       		.uleb128 0x1
 4137 074c 51       		.byte	0x51
 4138 074d 9F       		.byte	0x9f
 4139 074e 18000000 		.4byte	.LVL137
 4140 0752 1D000000 		.4byte	.LVL138-1
 4141 0756 0100     		.2byte	0x1
 4142 0758 50       		.byte	0x50
 4143 0759 1D000000 		.4byte	.LVL138-1
 4144 075d 22000000 		.4byte	.LVL140
 4145 0761 0400     		.2byte	0x4
 4146 0763 F3       		.byte	0xf3
 4147 0764 01       		.uleb128 0x1
 4148 0765 51       		.byte	0x51
 4149 0766 9F       		.byte	0x9f
 4150 0767 22000000 		.4byte	.LVL140
 4151 076b 28000000 		.4byte	.LVL143
 4152 076f 0100     		.2byte	0x1
 4153 0771 51       		.byte	0x51
 4154 0772 28000000 		.4byte	.LVL143
 4155 0776 2A000000 		.4byte	.LFE44
 4156 077a 0400     		.2byte	0x4
 4157 077c F3       		.byte	0xf3
 4158 077d 01       		.uleb128 0x1
 4159 077e 51       		.byte	0x51
 4160 077f 9F       		.byte	0x9f
 4161 0780 00000000 		.4byte	0
 4162 0784 00000000 		.4byte	0
 4163              	.LLST19:
 4164 0788 02000000 		.4byte	.LVL132
 4165 078c 16000000 		.4byte	.LVL136
 4166 0790 0300     		.2byte	0x3
 4167 0792 08       		.byte	0x8
 4168 0793 FF       		.byte	0xff
 4169 0794 9F       		.byte	0x9f
 4170 0795 16000000 		.4byte	.LVL136
 4171 0799 18000000 		.4byte	.LVL137
 4172 079d 0100     		.2byte	0x1
 4173 079f 50       		.byte	0x50
 4174 07a0 18000000 		.4byte	.LVL137
 4175 07a4 20000000 		.4byte	.LVL139
ARM GAS  C:\Users\JAVIER~1\AppData\Local\Temp\ccyEBIku.s 			page 97


 4176 07a8 0300     		.2byte	0x3
 4177 07aa 08       		.byte	0x8
 4178 07ab FF       		.byte	0xff
 4179 07ac 9F       		.byte	0x9f
 4180 07ad 20000000 		.4byte	.LVL139
 4181 07b1 22000000 		.4byte	.LVL140
 4182 07b5 0100     		.2byte	0x1
 4183 07b7 50       		.byte	0x50
 4184 07b8 22000000 		.4byte	.LVL140
 4185 07bc 28000000 		.4byte	.LVL143
 4186 07c0 0300     		.2byte	0x3
 4187 07c2 08       		.byte	0x8
 4188 07c3 FF       		.byte	0xff
 4189 07c4 9F       		.byte	0x9f
 4190 07c5 28000000 		.4byte	.LVL143
 4191 07c9 2A000000 		.4byte	.LFE44
 4192 07cd 0100     		.2byte	0x1
 4193 07cf 50       		.byte	0x50
 4194 07d0 00000000 		.4byte	0
 4195 07d4 00000000 		.4byte	0
 4196              	.LLST20:
 4197 07d8 00000000 		.4byte	.LVL144
 4198 07dc 27000000 		.4byte	.LVL146-1
 4199 07e0 0100     		.2byte	0x1
 4200 07e2 50       		.byte	0x50
 4201 07e3 27000000 		.4byte	.LVL146-1
 4202 07e7 34000000 		.4byte	.LVL147
 4203 07eb 0100     		.2byte	0x1
 4204 07ed 55       		.byte	0x55
 4205 07ee 34000000 		.4byte	.LVL147
 4206 07f2 94000000 		.4byte	.LVL157
 4207 07f6 0100     		.2byte	0x1
 4208 07f8 50       		.byte	0x50
 4209 07f9 94000000 		.4byte	.LVL157
 4210 07fd 96000000 		.4byte	.LVL158
 4211 0801 0100     		.2byte	0x1
 4212 0803 55       		.byte	0x55
 4213 0804 96000000 		.4byte	.LVL158
 4214 0808 B4000000 		.4byte	.LVL159
 4215 080c 0100     		.2byte	0x1
 4216 080e 50       		.byte	0x50
 4217 080f B4000000 		.4byte	.LVL159
 4218 0813 B6000000 		.4byte	.LVL160
 4219 0817 0100     		.2byte	0x1
 4220 0819 55       		.byte	0x55
 4221 081a B6000000 		.4byte	.LVL160
 4222 081e EC000000 		.4byte	.LVL168
 4223 0822 0100     		.2byte	0x1
 4224 0824 50       		.byte	0x50
 4225 0825 EC000000 		.4byte	.LVL168
 4226 0829 32010000 		.4byte	.LVL173
 4227 082d 0100     		.2byte	0x1
 4228 082f 55       		.byte	0x55
 4229 0830 32010000 		.4byte	.LVL173
 4230 0834 3A010000 		.4byte	.LVL174
 4231 0838 0100     		.2byte	0x1
 4232 083a 50       		.byte	0x50
ARM GAS  C:\Users\JAVIER~1\AppData\Local\Temp\ccyEBIku.s 			page 98


 4233 083b 3A010000 		.4byte	.LVL174
 4234 083f 3C010000 		.4byte	.LVL175
 4235 0843 0100     		.2byte	0x1
 4236 0845 55       		.byte	0x55
 4237 0846 3C010000 		.4byte	.LVL175
 4238 084a 72010000 		.4byte	.LVL183
 4239 084e 0100     		.2byte	0x1
 4240 0850 50       		.byte	0x50
 4241 0851 72010000 		.4byte	.LVL183
 4242 0855 EC010000 		.4byte	.LVL192
 4243 0859 0100     		.2byte	0x1
 4244 085b 55       		.byte	0x55
 4245 085c EC010000 		.4byte	.LVL192
 4246 0860 F4010000 		.4byte	.LVL193
 4247 0864 0100     		.2byte	0x1
 4248 0866 50       		.byte	0x50
 4249 0867 F4010000 		.4byte	.LVL193
 4250 086b F6010000 		.4byte	.LVL194
 4251 086f 0100     		.2byte	0x1
 4252 0871 55       		.byte	0x55
 4253 0872 F6010000 		.4byte	.LVL194
 4254 0876 2C020000 		.4byte	.LVL202
 4255 087a 0100     		.2byte	0x1
 4256 087c 50       		.byte	0x50
 4257 087d 2C020000 		.4byte	.LVL202
 4258 0881 AE020000 		.4byte	.LVL211
 4259 0885 0100     		.2byte	0x1
 4260 0887 55       		.byte	0x55
 4261 0888 AE020000 		.4byte	.LVL211
 4262 088c B6020000 		.4byte	.LVL212
 4263 0890 0100     		.2byte	0x1
 4264 0892 50       		.byte	0x50
 4265 0893 B6020000 		.4byte	.LVL212
 4266 0897 B8020000 		.4byte	.LVL213
 4267 089b 0100     		.2byte	0x1
 4268 089d 55       		.byte	0x55
 4269 089e B8020000 		.4byte	.LVL213
 4270 08a2 DE020000 		.4byte	.LVL220
 4271 08a6 0100     		.2byte	0x1
 4272 08a8 50       		.byte	0x50
 4273 08a9 DE020000 		.4byte	.LVL220
 4274 08ad E0020000 		.4byte	.LVL221
 4275 08b1 0100     		.2byte	0x1
 4276 08b3 55       		.byte	0x55
 4277 08b4 E0020000 		.4byte	.LVL221
 4278 08b8 E8020000 		.4byte	.LVL222
 4279 08bc 0100     		.2byte	0x1
 4280 08be 50       		.byte	0x50
 4281 08bf E8020000 		.4byte	.LVL222
 4282 08c3 EA020000 		.4byte	.LVL223
 4283 08c7 0100     		.2byte	0x1
 4284 08c9 55       		.byte	0x55
 4285 08ca EA020000 		.4byte	.LVL223
 4286 08ce F6020000 		.4byte	.LVL225
 4287 08d2 0100     		.2byte	0x1
 4288 08d4 50       		.byte	0x50
 4289 08d5 F6020000 		.4byte	.LVL225
ARM GAS  C:\Users\JAVIER~1\AppData\Local\Temp\ccyEBIku.s 			page 99


 4290 08d9 18030000 		.4byte	.LVL226
 4291 08dd 0100     		.2byte	0x1
 4292 08df 55       		.byte	0x55
 4293 08e0 18030000 		.4byte	.LVL226
 4294 08e4 1A030000 		.4byte	.LVL227
 4295 08e8 0100     		.2byte	0x1
 4296 08ea 50       		.byte	0x50
 4297 08eb 1A030000 		.4byte	.LVL227
 4298 08ef 1C030000 		.4byte	.LVL228
 4299 08f3 0100     		.2byte	0x1
 4300 08f5 55       		.byte	0x55
 4301 08f6 1C030000 		.4byte	.LVL228
 4302 08fa 1E030000 		.4byte	.LVL229
 4303 08fe 0100     		.2byte	0x1
 4304 0900 50       		.byte	0x50
 4305 0901 1E030000 		.4byte	.LVL229
 4306 0905 5C030000 		.4byte	.LVL237
 4307 0909 0100     		.2byte	0x1
 4308 090b 55       		.byte	0x55
 4309 090c 5C030000 		.4byte	.LVL237
 4310 0910 68030000 		.4byte	.LFE46
 4311 0914 0500     		.2byte	0x5
 4312 0916 03       		.byte	0x3
 4313 0917 10000000 		.4byte	prevRadius.5753
 4314 091b 00000000 		.4byte	0
 4315 091f 00000000 		.4byte	0
 4316              	.LLST21:
 4317 0923 00000000 		.4byte	.LVL144
 4318 0927 27000000 		.4byte	.LVL146-1
 4319 092b 0100     		.2byte	0x1
 4320 092d 51       		.byte	0x51
 4321 092e 27000000 		.4byte	.LVL146-1
 4322 0932 34000000 		.4byte	.LVL147
 4323 0936 0100     		.2byte	0x1
 4324 0938 54       		.byte	0x54
 4325 0939 34000000 		.4byte	.LVL147
 4326 093d 8C000000 		.4byte	.LVL155
 4327 0941 0100     		.2byte	0x1
 4328 0943 51       		.byte	0x51
 4329 0944 8C000000 		.4byte	.LVL155
 4330 0948 96000000 		.4byte	.LVL158
 4331 094c 0100     		.2byte	0x1
 4332 094e 54       		.byte	0x54
 4333 094f 96000000 		.4byte	.LVL158
 4334 0953 D4000000 		.4byte	.LVL164
 4335 0957 0100     		.2byte	0x1
 4336 0959 51       		.byte	0x51
 4337 095a D4000000 		.4byte	.LVL164
 4338 095e 32010000 		.4byte	.LVL173
 4339 0962 0100     		.2byte	0x1
 4340 0964 54       		.byte	0x54
 4341 0965 32010000 		.4byte	.LVL173
 4342 0969 5A010000 		.4byte	.LVL179
 4343 096d 0100     		.2byte	0x1
 4344 096f 51       		.byte	0x51
 4345 0970 5A010000 		.4byte	.LVL179
 4346 0974 EC010000 		.4byte	.LVL192
ARM GAS  C:\Users\JAVIER~1\AppData\Local\Temp\ccyEBIku.s 			page 100


 4347 0978 0100     		.2byte	0x1
 4348 097a 54       		.byte	0x54
 4349 097b EC010000 		.4byte	.LVL192
 4350 097f 14020000 		.4byte	.LVL198
 4351 0983 0100     		.2byte	0x1
 4352 0985 51       		.byte	0x51
 4353 0986 14020000 		.4byte	.LVL198
 4354 098a AE020000 		.4byte	.LVL211
 4355 098e 0100     		.2byte	0x1
 4356 0990 54       		.byte	0x54
 4357 0991 AE020000 		.4byte	.LVL211
 4358 0995 D6020000 		.4byte	.LVL218
 4359 0999 0100     		.2byte	0x1
 4360 099b 51       		.byte	0x51
 4361 099c D6020000 		.4byte	.LVL218
 4362 09a0 E0020000 		.4byte	.LVL221
 4363 09a4 0100     		.2byte	0x1
 4364 09a6 54       		.byte	0x54
 4365 09a7 E0020000 		.4byte	.LVL221
 4366 09ab F4020000 		.4byte	.LVL224
 4367 09af 0100     		.2byte	0x1
 4368 09b1 51       		.byte	0x51
 4369 09b2 F4020000 		.4byte	.LVL224
 4370 09b6 18030000 		.4byte	.LVL226
 4371 09ba 0100     		.2byte	0x1
 4372 09bc 54       		.byte	0x54
 4373 09bd 18030000 		.4byte	.LVL226
 4374 09c1 20030000 		.4byte	.LVL230
 4375 09c5 0100     		.2byte	0x1
 4376 09c7 51       		.byte	0x51
 4377 09c8 20030000 		.4byte	.LVL230
 4378 09cc 5C030000 		.4byte	.LVL236
 4379 09d0 0100     		.2byte	0x1
 4380 09d2 54       		.byte	0x54
 4381 09d3 5C030000 		.4byte	.LVL236
 4382 09d7 68030000 		.4byte	.LFE46
 4383 09db 0500     		.2byte	0x5
 4384 09dd 03       		.byte	0x3
 4385 09de 14000000 		.4byte	prevTheta.5755
 4386 09e2 00000000 		.4byte	0
 4387 09e6 00000000 		.4byte	0
 4388              	.LLST22:
 4389 09ea 06000000 		.4byte	.LVL145
 4390 09ee CE010000 		.4byte	.LVL188
 4391 09f2 0200     		.2byte	0x2
 4392 09f4 30       		.byte	0x30
 4393 09f5 9F       		.byte	0x9f
 4394 09f6 CE010000 		.4byte	.LVL188
 4395 09fa DC010000 		.4byte	.LVL189
 4396 09fe 0100     		.2byte	0x1
 4397 0a00 52       		.byte	0x52
 4398 0a01 E2010000 		.4byte	.LVL190
 4399 0a05 88020000 		.4byte	.LVL207
 4400 0a09 0200     		.2byte	0x2
 4401 0a0b 30       		.byte	0x30
 4402 0a0c 9F       		.byte	0x9f
 4403 0a0d 88020000 		.4byte	.LVL207
ARM GAS  C:\Users\JAVIER~1\AppData\Local\Temp\ccyEBIku.s 			page 101


 4404 0a11 98020000 		.4byte	.LVL208
 4405 0a15 0100     		.2byte	0x1
 4406 0a17 52       		.byte	0x52
 4407 0a18 A4020000 		.4byte	.LVL209
 4408 0a1c BC020000 		.4byte	.LVL214
 4409 0a20 0200     		.2byte	0x2
 4410 0a22 30       		.byte	0x30
 4411 0a23 9F       		.byte	0x9f
 4412 0a24 BC020000 		.4byte	.LVL214
 4413 0a28 E0020000 		.4byte	.LVL221
 4414 0a2c 0200     		.2byte	0x2
 4415 0a2e 39       		.byte	0x39
 4416 0a2f 9F       		.byte	0x9f
 4417 0a30 E0020000 		.4byte	.LVL221
 4418 0a34 46030000 		.4byte	.LVL235
 4419 0a38 0200     		.2byte	0x2
 4420 0a3a 30       		.byte	0x30
 4421 0a3b 9F       		.byte	0x9f
 4422 0a3c 46030000 		.4byte	.LVL235
 4423 0a40 68030000 		.4byte	.LFE46
 4424 0a44 0100     		.2byte	0x1
 4425 0a46 50       		.byte	0x50
 4426 0a47 00000000 		.4byte	0
 4427 0a4b 00000000 		.4byte	0
 4428              	.LLST23:
 4429 0a4f 60000000 		.4byte	.LVL148
 4430 0a53 78000000 		.4byte	.LVL152
 4431 0a57 0100     		.2byte	0x1
 4432 0a59 52       		.byte	0x52
 4433 0a5a 88000000 		.4byte	.LVL154
 4434 0a5e 90000000 		.4byte	.LVL156
 4435 0a62 0100     		.2byte	0x1
 4436 0a64 53       		.byte	0x53
 4437 0a65 90000000 		.4byte	.LVL156
 4438 0a69 94000000 		.4byte	.LVL157
 4439 0a6d 0A00     		.2byte	0xa
 4440 0a6f 70       		.byte	0x70
 4441 0a70 00       		.sleb128 0
 4442 0a71 03       		.byte	0x3
 4443 0a72 10000000 		.4byte	prevRadius.5753
 4444 0a76 06       		.byte	0x6
 4445 0a77 1C       		.byte	0x1c
 4446 0a78 9F       		.byte	0x9f
 4447 0a79 94000000 		.4byte	.LVL157
 4448 0a7d 96000000 		.4byte	.LVL158
 4449 0a81 0A00     		.2byte	0xa
 4450 0a83 75       		.byte	0x75
 4451 0a84 00       		.sleb128 0
 4452 0a85 03       		.byte	0x3
 4453 0a86 10000000 		.4byte	prevRadius.5753
 4454 0a8a 06       		.byte	0x6
 4455 0a8b 1C       		.byte	0x1c
 4456 0a8c 9F       		.byte	0x9f
 4457 0a8d E0000000 		.4byte	.LVL166
 4458 0a91 E8000000 		.4byte	.LVL167
 4459 0a95 0100     		.2byte	0x1
 4460 0a97 53       		.byte	0x53
ARM GAS  C:\Users\JAVIER~1\AppData\Local\Temp\ccyEBIku.s 			page 102


 4461 0a98 E8000000 		.4byte	.LVL167
 4462 0a9c F1000000 		.4byte	.LVL169-1
 4463 0aa0 0A00     		.2byte	0xa
 4464 0aa2 70       		.byte	0x70
 4465 0aa3 00       		.sleb128 0
 4466 0aa4 03       		.byte	0x3
 4467 0aa5 10000000 		.4byte	prevRadius.5753
 4468 0aa9 06       		.byte	0x6
 4469 0aaa 1C       		.byte	0x1c
 4470 0aab 9F       		.byte	0x9f
 4471 0aac 66010000 		.4byte	.LVL181
 4472 0ab0 6E010000 		.4byte	.LVL182
 4473 0ab4 0100     		.2byte	0x1
 4474 0ab6 53       		.byte	0x53
 4475 0ab7 6E010000 		.4byte	.LVL182
 4476 0abb 77010000 		.4byte	.LVL184-1
 4477 0abf 0A00     		.2byte	0xa
 4478 0ac1 70       		.byte	0x70
 4479 0ac2 00       		.sleb128 0
 4480 0ac3 03       		.byte	0x3
 4481 0ac4 10000000 		.4byte	prevRadius.5753
 4482 0ac8 06       		.byte	0x6
 4483 0ac9 1C       		.byte	0x1c
 4484 0aca 9F       		.byte	0x9f
 4485 0acb 20020000 		.4byte	.LVL200
 4486 0acf 28020000 		.4byte	.LVL201
 4487 0ad3 0100     		.2byte	0x1
 4488 0ad5 53       		.byte	0x53
 4489 0ad6 28020000 		.4byte	.LVL201
 4490 0ada 31020000 		.4byte	.LVL203-1
 4491 0ade 0A00     		.2byte	0xa
 4492 0ae0 70       		.byte	0x70
 4493 0ae1 00       		.sleb128 0
 4494 0ae2 03       		.byte	0x3
 4495 0ae3 10000000 		.4byte	prevRadius.5753
 4496 0ae7 06       		.byte	0x6
 4497 0ae8 1C       		.byte	0x1c
 4498 0ae9 9F       		.byte	0x9f
 4499 0aea 00000000 		.4byte	0
 4500 0aee 00000000 		.4byte	0
 4501              	.LLST24:
 4502 0af2 6A000000 		.4byte	.LVL150
 4503 0af6 7A000000 		.4byte	.LVL153
 4504 0afa 0100     		.2byte	0x1
 4505 0afc 53       		.byte	0x53
 4506 0afd C0000000 		.4byte	.LVL161
 4507 0b01 D8000000 		.4byte	.LVL165
 4508 0b05 0100     		.2byte	0x1
 4509 0b07 53       		.byte	0x53
 4510 0b08 46010000 		.4byte	.LVL176
 4511 0b0c 5E010000 		.4byte	.LVL180
 4512 0b10 0100     		.2byte	0x1
 4513 0b12 53       		.byte	0x53
 4514 0b13 00020000 		.4byte	.LVL195
 4515 0b17 18020000 		.4byte	.LVL199
 4516 0b1b 0100     		.2byte	0x1
 4517 0b1d 53       		.byte	0x53
ARM GAS  C:\Users\JAVIER~1\AppData\Local\Temp\ccyEBIku.s 			page 103


 4518 0b1e C2020000 		.4byte	.LVL215
 4519 0b22 DA020000 		.4byte	.LVL219
 4520 0b26 0100     		.2byte	0x1
 4521 0b28 53       		.byte	0x53
 4522 0b29 00000000 		.4byte	0
 4523 0b2d 00000000 		.4byte	0
 4524              	.LLST25:
 4525 0b31 F2000000 		.4byte	.LVL169
 4526 0b35 26010000 		.4byte	.LVL170
 4527 0b39 0100     		.2byte	0x1
 4528 0b3b 50       		.byte	0x50
 4529 0b3c 26010000 		.4byte	.LVL170
 4530 0b40 28010000 		.4byte	.LVL171
 4531 0b44 0500     		.2byte	0x5
 4532 0b46 03       		.byte	0x3
 4533 0b47 08000000 		.4byte	Gesture_sectorHistory.5758+4
 4534 0b4b 28010000 		.4byte	.LVL171
 4535 0b4f 30010000 		.4byte	.LVL172
 4536 0b53 0100     		.2byte	0x1
 4537 0b55 50       		.byte	0x50
 4538 0b56 78010000 		.4byte	.LVL184
 4539 0b5a 9A010000 		.4byte	.LVL185
 4540 0b5e 0100     		.2byte	0x1
 4541 0b60 50       		.byte	0x50
 4542 0b61 9A010000 		.4byte	.LVL185
 4543 0b65 CB010000 		.4byte	.LVL187-1
 4544 0b69 0500     		.2byte	0x5
 4545 0b6b 03       		.byte	0x3
 4546 0b6c 0C000000 		.4byte	Gesture_sectorHistory.5758+8
 4547 0b70 E2010000 		.4byte	.LVL190
 4548 0b74 EA010000 		.4byte	.LVL191
 4549 0b78 0100     		.2byte	0x1
 4550 0b7a 50       		.byte	0x50
 4551 0b7b 32020000 		.4byte	.LVL203
 4552 0b7f 56020000 		.4byte	.LVL204
 4553 0b83 0100     		.2byte	0x1
 4554 0b85 50       		.byte	0x50
 4555 0b86 56020000 		.4byte	.LVL204
 4556 0b8a 85020000 		.4byte	.LVL206-1
 4557 0b8e 0500     		.2byte	0x5
 4558 0b90 03       		.byte	0x3
 4559 0b91 0C000000 		.4byte	Gesture_sectorHistory.5758+8
 4560 0b95 A4020000 		.4byte	.LVL209
 4561 0b99 AC020000 		.4byte	.LVL210
 4562 0b9d 0100     		.2byte	0x1
 4563 0b9f 50       		.byte	0x50
 4564 0ba0 20030000 		.4byte	.LVL230
 4565 0ba4 22030000 		.4byte	.LVL231
 4566 0ba8 0100     		.2byte	0x1
 4567 0baa 50       		.byte	0x50
 4568 0bab 24030000 		.4byte	.LVL232
 4569 0baf 26030000 		.4byte	.LVL233
 4570 0bb3 0100     		.2byte	0x1
 4571 0bb5 50       		.byte	0x50
 4572 0bb6 44030000 		.4byte	.LVL234
 4573 0bba 46030000 		.4byte	.LVL235
 4574 0bbe 0100     		.2byte	0x1
ARM GAS  C:\Users\JAVIER~1\AppData\Local\Temp\ccyEBIku.s 			page 104


 4575 0bc0 50       		.byte	0x50
 4576 0bc1 00000000 		.4byte	0
 4577 0bc5 00000000 		.4byte	0
 4578              	.LLST26:
 4579 0bc9 C4010000 		.4byte	.LVL186
 4580 0bcd CB010000 		.4byte	.LVL187-1
 4581 0bd1 0100     		.2byte	0x1
 4582 0bd3 50       		.byte	0x50
 4583 0bd4 7E020000 		.4byte	.LVL205
 4584 0bd8 85020000 		.4byte	.LVL206-1
 4585 0bdc 0100     		.2byte	0x1
 4586 0bde 50       		.byte	0x50
 4587 0bdf 00000000 		.4byte	0
 4588 0be3 00000000 		.4byte	0
 4589              	.LLST27:
 4590 0be7 00000000 		.4byte	.LVL238
 4591 0beb 14000000 		.4byte	.LVL243
 4592 0bef 0100     		.2byte	0x1
 4593 0bf1 50       		.byte	0x50
 4594 0bf2 14000000 		.4byte	.LVL243
 4595 0bf6 AC000000 		.4byte	.LFE36
 4596 0bfa 0400     		.2byte	0x4
 4597 0bfc F3       		.byte	0xf3
 4598 0bfd 01       		.uleb128 0x1
 4599 0bfe 50       		.byte	0x50
 4600 0bff 9F       		.byte	0x9f
 4601 0c00 00000000 		.4byte	0
 4602 0c04 00000000 		.4byte	0
 4603              	.LLST28:
 4604 0c08 60000000 		.4byte	.LVL258
 4605 0c0c 90000000 		.4byte	.LVL264
 4606 0c10 0100     		.2byte	0x1
 4607 0c12 55       		.byte	0x55
 4608 0c13 00000000 		.4byte	0
 4609 0c17 00000000 		.4byte	0
 4610              	.LLST29:
 4611 0c1b 02000000 		.4byte	.LVL239
 4612 0c1f 0E000000 		.4byte	.LVL240
 4613 0c23 0200     		.2byte	0x2
 4614 0c25 30       		.byte	0x30
 4615 0c26 9F       		.byte	0x9f
 4616 0c27 0E000000 		.4byte	.LVL240
 4617 0c2b 10000000 		.4byte	.LVL241
 4618 0c2f 0100     		.2byte	0x1
 4619 0c31 55       		.byte	0x55
 4620 0c32 10000000 		.4byte	.LVL241
 4621 0c36 12000000 		.4byte	.LVL242
 4622 0c3a 0200     		.2byte	0x2
 4623 0c3c 30       		.byte	0x30
 4624 0c3d 9F       		.byte	0x9f
 4625 0c3e 12000000 		.4byte	.LVL242
 4626 0c42 40000000 		.4byte	.LVL253
 4627 0c46 0100     		.2byte	0x1
 4628 0c48 55       		.byte	0x55
 4629 0c49 40000000 		.4byte	.LVL253
 4630 0c4d 43000000 		.4byte	.LVL254-1
 4631 0c51 0100     		.2byte	0x1
ARM GAS  C:\Users\JAVIER~1\AppData\Local\Temp\ccyEBIku.s 			page 105


 4632 0c53 50       		.byte	0x50
 4633 0c54 43000000 		.4byte	.LVL254-1
 4634 0c58 6A000000 		.4byte	.LVL259
 4635 0c5c 0100     		.2byte	0x1
 4636 0c5e 56       		.byte	0x56
 4637 0c5f 84000000 		.4byte	.LVL262
 4638 0c63 8E000000 		.4byte	.LVL263
 4639 0c67 0100     		.2byte	0x1
 4640 0c69 56       		.byte	0x56
 4641 0c6a 00000000 		.4byte	0
 4642 0c6e 00000000 		.4byte	0
 4643              	.LLST30:
 4644 0c72 02000000 		.4byte	.LVL239
 4645 0c76 2E000000 		.4byte	.LVL248
 4646 0c7a 0200     		.2byte	0x2
 4647 0c7c 30       		.byte	0x30
 4648 0c7d 9F       		.byte	0x9f
 4649 0c7e 2E000000 		.4byte	.LVL248
 4650 0c82 36000000 		.4byte	.LVL250
 4651 0c86 0100     		.2byte	0x1
 4652 0c88 50       		.byte	0x50
 4653 0c89 36000000 		.4byte	.LVL250
 4654 0c8d 38000000 		.4byte	.LVL251
 4655 0c91 0200     		.2byte	0x2
 4656 0c93 30       		.byte	0x30
 4657 0c94 9F       		.byte	0x9f
 4658 0c95 38000000 		.4byte	.LVL251
 4659 0c99 3D000000 		.4byte	.LVL252-1
 4660 0c9d 0100     		.2byte	0x1
 4661 0c9f 51       		.byte	0x51
 4662 0ca0 00000000 		.4byte	0
 4663 0ca4 00000000 		.4byte	0
 4664              	.LLST31:
 4665 0ca8 02000000 		.4byte	.LVL239
 4666 0cac 1C000000 		.4byte	.LVL245
 4667 0cb0 0200     		.2byte	0x2
 4668 0cb2 30       		.byte	0x30
 4669 0cb3 9F       		.byte	0x9f
 4670 0cb4 1C000000 		.4byte	.LVL245
 4671 0cb8 2B000000 		.4byte	.LVL247-1
 4672 0cbc 0100     		.2byte	0x1
 4673 0cbe 50       		.byte	0x50
 4674 0cbf 2B000000 		.4byte	.LVL247-1
 4675 0cc3 36000000 		.4byte	.LVL250
 4676 0cc7 0100     		.2byte	0x1
 4677 0cc9 54       		.byte	0x54
 4678 0cca 36000000 		.4byte	.LVL250
 4679 0cce 38000000 		.4byte	.LVL251
 4680 0cd2 0100     		.2byte	0x1
 4681 0cd4 50       		.byte	0x50
 4682 0cd5 38000000 		.4byte	.LVL251
 4683 0cd9 56000000 		.4byte	.LVL256
 4684 0cdd 0100     		.2byte	0x1
 4685 0cdf 54       		.byte	0x54
 4686 0ce0 00000000 		.4byte	0
 4687 0ce4 00000000 		.4byte	0
 4688              		.section	.debug_aranges,"",%progbits
ARM GAS  C:\Users\JAVIER~1\AppData\Local\Temp\ccyEBIku.s 			page 106


 4689 0000 6C000000 		.4byte	0x6c
 4690 0004 0200     		.2byte	0x2
 4691 0006 00000000 		.4byte	.Ldebug_info0
 4692 000a 04       		.byte	0x4
 4693 000b 00       		.byte	0
 4694 000c 0000     		.2byte	0
 4695 000e 0000     		.2byte	0
 4696 0010 00000000 		.4byte	.LFB38
 4697 0014 2C000000 		.4byte	.LFE38-.LFB38
 4698 0018 00000000 		.4byte	.LFB39
 4699 001c 5C000000 		.4byte	.LFE39-.LFB39
 4700 0020 00000000 		.4byte	.LFB45
 4701 0024 98000000 		.4byte	.LFE45-.LFB45
 4702 0028 00000000 		.4byte	.LFB37
 4703 002c FC000000 		.4byte	.LFE37-.LFB37
 4704 0030 00000000 		.4byte	.LFB40
 4705 0034 48000000 		.4byte	.LFE40-.LFB40
 4706 0038 00000000 		.4byte	.LFB41
 4707 003c 30000000 		.4byte	.LFE41-.LFB41
 4708 0040 00000000 		.4byte	.LFB42
 4709 0044 1C000000 		.4byte	.LFE42-.LFB42
 4710 0048 00000000 		.4byte	.LFB43
 4711 004c 1C000000 		.4byte	.LFE43-.LFB43
 4712 0050 00000000 		.4byte	.LFB44
 4713 0054 2A000000 		.4byte	.LFE44-.LFB44
 4714 0058 00000000 		.4byte	.LFB46
 4715 005c 68030000 		.4byte	.LFE46-.LFB46
 4716 0060 00000000 		.4byte	.LFB36
 4717 0064 AC000000 		.4byte	.LFE36-.LFB36
 4718 0068 00000000 		.4byte	0
 4719 006c 00000000 		.4byte	0
 4720              		.section	.debug_ranges,"",%progbits
 4721              	.Ldebug_ranges0:
 4722 0000 00000000 		.4byte	.LFB38
 4723 0004 2C000000 		.4byte	.LFE38
 4724 0008 00000000 		.4byte	.LFB39
 4725 000c 5C000000 		.4byte	.LFE39
 4726 0010 00000000 		.4byte	.LFB45
 4727 0014 98000000 		.4byte	.LFE45
 4728 0018 00000000 		.4byte	.LFB37
 4729 001c FC000000 		.4byte	.LFE37
 4730 0020 00000000 		.4byte	.LFB40
 4731 0024 48000000 		.4byte	.LFE40
 4732 0028 00000000 		.4byte	.LFB41
 4733 002c 30000000 		.4byte	.LFE41
 4734 0030 00000000 		.4byte	.LFB42
 4735 0034 1C000000 		.4byte	.LFE42
 4736 0038 00000000 		.4byte	.LFB43
 4737 003c 1C000000 		.4byte	.LFE43
 4738 0040 00000000 		.4byte	.LFB44
 4739 0044 2A000000 		.4byte	.LFE44
 4740 0048 00000000 		.4byte	.LFB46
 4741 004c 68030000 		.4byte	.LFE46
 4742 0050 00000000 		.4byte	.LFB36
 4743 0054 AC000000 		.4byte	.LFE36
 4744 0058 00000000 		.4byte	0
 4745 005c 00000000 		.4byte	0
ARM GAS  C:\Users\JAVIER~1\AppData\Local\Temp\ccyEBIku.s 			page 107


 4746              		.section	.debug_line,"",%progbits
 4747              	.Ldebug_line0:
 4748 0000 C6020000 		.section	.debug_str,"MS",%progbits,1
 4748      02006800 
 4748      00000201 
 4748      FB0E0D00 
 4748      01010101 
 4749              	.LASF10:
 4750 0000 75696E74 		.ascii	"uint16\000"
 4750      313600
 4751              	.LASF50:
 4752 0007 47657453 		.ascii	"GetSinTheta\000"
 4752      696E5468 
 4752      65746100 
 4753              	.LASF66:
 4754 0013 72616469 		.ascii	"radiusChange\000"
 4754      75734368 
 4754      616E6765 
 4754      00
 4755              	.LASF76:
 4756 0020 43617053 		.ascii	"CapSense_sensorOnMask\000"
 4756      656E7365 
 4756      5F73656E 
 4756      736F724F 
 4756      6E4D6173 
 4757              	.LASF37:
 4758 0036 47657374 		.ascii	"Gestures_CalculateTheta\000"
 4758      75726573 
 4758      5F43616C 
 4758      63756C61 
 4758      74655468 
 4759              	.LASF33:
 4760 004e 47455354 		.ascii	"GESTURE_DOWN_CLICK\000"
 4760      5552455F 
 4760      444F574E 
 4760      5F434C49 
 4760      434B00
 4761              	.LASF7:
 4762 0061 6C6F6E67 		.ascii	"long long unsigned int\000"
 4762      206C6F6E 
 4762      6720756E 
 4762      7369676E 
 4762      65642069 
 4763              	.LASF78:
 4764 0078 73696E4C 		.ascii	"sinLookUp\000"
 4764      6F6F6B55 
 4764      7000
 4765              	.LASF71:
 4766 0082 63617073 		.ascii	"capsenseButtonStatus\000"
 4766      656E7365 
 4766      42757474 
 4766      6F6E5374 
 4766      61747573 
 4767              	.LASF52:
 4768 0097 636F7354 		.ascii	"cosTheta\000"
 4768      68657461 
 4768      00
ARM GAS  C:\Users\JAVIER~1\AppData\Local\Temp\ccyEBIku.s 			page 108


 4769              	.LASF6:
 4770 00a0 6C6F6E67 		.ascii	"long long int\000"
 4770      206C6F6E 
 4770      6720696E 
 4770      7400
 4771              	.LASF0:
 4772 00ae 7369676E 		.ascii	"signed char\000"
 4772      65642063 
 4772      68617200 
 4773              	.LASF13:
 4774 00ba 696E7433 		.ascii	"int32\000"
 4774      3200
 4775              	.LASF45:
 4776 00c0 67657374 		.ascii	"gesture\000"
 4776      75726500 
 4777              	.LASF4:
 4778 00c8 6C6F6E67 		.ascii	"long int\000"
 4778      20696E74 
 4778      00
 4779              	.LASF9:
 4780 00d1 75696E74 		.ascii	"uint8\000"
 4780      3800
 4781              	.LASF24:
 4782 00d7 47455354 		.ascii	"GESTURE_RIGHT_SWIPE\000"
 4782      5552455F 
 4782      52494748 
 4782      545F5357 
 4782      49504500 
 4783              	.LASF15:
 4784 00eb 646F7562 		.ascii	"double\000"
 4784      6C6500
 4785              	.LASF34:
 4786 00f2 47455354 		.ascii	"GESTURE_INVALID\000"
 4786      5552455F 
 4786      494E5641 
 4786      4C494400 
 4787              	.LASF11:
 4788 0102 75696E74 		.ascii	"uint32\000"
 4788      333200
 4789              	.LASF29:
 4790 0109 47455354 		.ascii	"GESTURE_INNER_COUNTER_CLKWISE\000"
 4790      5552455F 
 4790      494E4E45 
 4790      525F434F 
 4790      554E5445 
 4791              	.LASF47:
 4792 0127 736C6964 		.ascii	"sliderSector\000"
 4792      65725365 
 4792      63746F72 
 4792      00
 4793              	.LASF62:
 4794 0134 70726576 		.ascii	"prevTheta\000"
 4794      54686574 
 4794      6100
 4795              	.LASF32:
 4796 013e 47455354 		.ascii	"GESTURE_UP_CLICK\000"
 4796      5552455F 
ARM GAS  C:\Users\JAVIER~1\AppData\Local\Temp\ccyEBIku.s 			page 109


 4796      55505F43 
 4796      4C49434B 
 4796      00
 4797              	.LASF74:
 4798 014f 61636352 		.ascii	"accRadius\000"
 4798      61646975 
 4798      7300
 4799              	.LASF65:
 4800 0159 47657374 		.ascii	"Gesture_sectorHistory\000"
 4800      7572655F 
 4800      73656374 
 4800      6F724869 
 4800      73746F72 
 4801              	.LASF31:
 4802 016f 47455354 		.ascii	"GESTURE_OUTER_COUNTER_CLKWISE\000"
 4802      5552455F 
 4802      4F555445 
 4802      525F434F 
 4802      554E5445 
 4803              	.LASF8:
 4804 018d 756E7369 		.ascii	"unsigned int\000"
 4804      676E6564 
 4804      20696E74 
 4804      00
 4805              	.LASF82:
 4806 019a 2E5C4765 		.ascii	".\\Gesture.c\000"
 4806      73747572 
 4806      652E6300 
 4807              	.LASF39:
 4808 01a6 736C6964 		.ascii	"sliderPos\000"
 4808      6572506F 
 4808      7300
 4809              	.LASF5:
 4810 01b0 6C6F6E67 		.ascii	"long unsigned int\000"
 4810      20756E73 
 4810      69676E65 
 4810      6420696E 
 4810      7400
 4811              	.LASF69:
 4812 01c2 6973416E 		.ascii	"isAnySensorActive\000"
 4812      7953656E 
 4812      736F7241 
 4812      63746976 
 4812      6500
 4813              	.LASF28:
 4814 01d4 47455354 		.ascii	"GESTURE_INNER_CLKWISE\000"
 4814      5552455F 
 4814      494E4E45 
 4814      525F434C 
 4814      4B574953 
 4815              	.LASF3:
 4816 01ea 73686F72 		.ascii	"short unsigned int\000"
 4816      7420756E 
 4816      7369676E 
 4816      65642069 
 4816      6E7400
 4817              	.LASF79:
ARM GAS  C:\Users\JAVIER~1\AppData\Local\Temp\ccyEBIku.s 			page 110


 4818 01fd 73656374 		.ascii	"sectorLookup\000"
 4818      6F724C6F 
 4818      6F6B7570 
 4818      00
 4819              	.LASF41:
 4820 020a 74686574 		.ascii	"theta\000"
 4820      6100
 4821              	.LASF64:
 4822 0210 6465626F 		.ascii	"debounceCounter\000"
 4822      756E6365 
 4822      436F756E 
 4822      74657200 
 4823              	.LASF48:
 4824 0220 70726576 		.ascii	"prevButtonStatus\000"
 4824      42757474 
 4824      6F6E5374 
 4824      61747573 
 4824      00
 4825              	.LASF46:
 4826 0231 47657374 		.ascii	"Gestures_ValidateButtons\000"
 4826      75726573 
 4826      5F56616C 
 4826      69646174 
 4826      65427574 
 4827              	.LASF56:
 4828 024a 73656374 		.ascii	"sector\000"
 4828      6F7200
 4829              	.LASF61:
 4830 0251 66697273 		.ascii	"firstTheta\000"
 4830      74546865 
 4830      746100
 4831              	.LASF19:
 4832 025c 47455354 		.ascii	"GESTURE_RELEASE\000"
 4832      5552455F 
 4832      52454C45 
 4832      41534500 
 4833              	.LASF40:
 4834 026c 72616469 		.ascii	"radius\000"
 4834      757300
 4835              	.LASF84:
 4836 0273 43617053 		.ascii	"CapSense_GetDiffCountData\000"
 4836      656E7365 
 4836      5F476574 
 4836      44696666 
 4836      436F756E 
 4837              	.LASF23:
 4838 028d 47455354 		.ascii	"GESTURE_LEFT_SWIPE\000"
 4838      5552455F 
 4838      4C454654 
 4838      5F535749 
 4838      504500
 4839              	.LASF17:
 4840 02a0 73697A65 		.ascii	"sizetype\000"
 4840      74797065 
 4840      00
 4841              	.LASF70:
 4842 02a9 67657374 		.ascii	"gestureId\000"
ARM GAS  C:\Users\JAVIER~1\AppData\Local\Temp\ccyEBIku.s 			page 111


 4842      75726549 
 4842      6400
 4843              	.LASF59:
 4844 02b3 74617043 		.ascii	"tapCounter\000"
 4844      6F756E74 
 4844      657200
 4845              	.LASF43:
 4846 02be 73656374 		.ascii	"sectorHistorySum\000"
 4846      6F724869 
 4846      73746F72 
 4846      7953756D 
 4846      00
 4847              	.LASF85:
 4848 02cf 43617053 		.ascii	"CapSense_GetRadialCentroidPos\000"
 4848      656E7365 
 4848      5F476574 
 4848      52616469 
 4848      616C4365 
 4849              	.LASF53:
 4850 02ed 47657374 		.ascii	"Gestures_CalculateX\000"
 4850      75726573 
 4850      5F43616C 
 4850      63756C61 
 4850      74655800 
 4851              	.LASF80:
 4852 0301 73656374 		.ascii	"sectorToButtonLookup\000"
 4852      6F72546F 
 4852      42757474 
 4852      6F6E4C6F 
 4852      6F6B7570 
 4853              	.LASF27:
 4854 0316 47455354 		.ascii	"GESTURE_OUTWARD_SWIPE\000"
 4854      5552455F 
 4854      4F555457 
 4854      4152445F 
 4854      53574950 
 4855              	.LASF68:
 4856 032c 44657465 		.ascii	"DetectGesture\000"
 4856      63744765 
 4856      73747572 
 4856      6500
 4857              	.LASF81:
 4858 033a 474E5520 		.ascii	"GNU C 4.9.3 20150303 (release) [ARM/embedded-4_9-br"
 4858      4320342E 
 4858      392E3320 
 4858      32303135 
 4858      30333033 
 4859 036d 616E6368 		.ascii	"anch revision 221220] -mcpu=cortex-m0 -mthumb -g -O"
 4859      20726576 
 4859      6973696F 
 4859      6E203232 
 4859      31323230 
 4860 03a0 67202D66 		.ascii	"g -ffunction-sections -ffat-lto-objects\000"
 4860      66756E63 
 4860      74696F6E 
 4860      2D736563 
 4860      74696F6E 
ARM GAS  C:\Users\JAVIER~1\AppData\Local\Temp\ccyEBIku.s 			page 112


 4861              	.LASF51:
 4862 03c8 47657443 		.ascii	"GetCosTheta\000"
 4862      6F735468 
 4862      65746100 
 4863              	.LASF14:
 4864 03d4 666C6F61 		.ascii	"float\000"
 4864      7400
 4865              	.LASF49:
 4866 03da 73696E54 		.ascii	"sinTheta\000"
 4866      68657461 
 4866      00
 4867              	.LASF60:
 4868 03e3 70726576 		.ascii	"prevRadius\000"
 4868      52616469 
 4868      757300
 4869              	.LASF26:
 4870 03ee 47455354 		.ascii	"GESTURE_DOWN_SWIPE\000"
 4870      5552455F 
 4870      444F574E 
 4870      5F535749 
 4870      504500
 4871              	.LASF83:
 4872 0401 433A5C55 		.ascii	"C:\\Users\\Javier Barragan\\Documents\\PSoC Creator"
 4872      73657273 
 4872      5C4A6176 
 4872      69657220 
 4872      42617272 
 4873 0430 5C435938 		.ascii	"\\CY8CKIT_046_USB_Mouse\\CY8CKIT_046_USB_Mouse.cyds"
 4873      434B4954 
 4873      5F303436 
 4873      5F555342 
 4873      5F4D6F75 
 4874 0461 6E00     		.ascii	"n\000"
 4875              	.LASF1:
 4876 0463 756E7369 		.ascii	"unsigned char\000"
 4876      676E6564 
 4876      20636861 
 4876      7200
 4877              	.LASF63:
 4878 0471 70726F63 		.ascii	"processState\000"
 4878      65737353 
 4878      74617465 
 4878      00
 4879              	.LASF2:
 4880 047e 73686F72 		.ascii	"short int\000"
 4880      7420696E 
 4880      7400
 4881              	.LASF54:
 4882 0488 47657374 		.ascii	"Gestures_CalculateY\000"
 4882      75726573 
 4882      5F43616C 
 4882      63756C61 
 4882      74655900 
 4883              	.LASF42:
 4884 049c 47657374 		.ascii	"Gestures_LookUpGesture\000"
 4884      75726573 
 4884      5F4C6F6F 
ARM GAS  C:\Users\JAVIER~1\AppData\Local\Temp\ccyEBIku.s 			page 113


 4884      6B557047 
 4884      65737475 
 4885              	.LASF21:
 4886 04b3 47455354 		.ascii	"GESTURE_RIGHT_CLICK\000"
 4886      5552455F 
 4886      52494748 
 4886      545F434C 
 4886      49434B00 
 4887              	.LASF30:
 4888 04c7 47455354 		.ascii	"GESTURE_OUTER_CLKWISE\000"
 4888      5552455F 
 4888      4F555445 
 4888      525F434C 
 4888      4B574953 
 4889              	.LASF35:
 4890 04dd 74476573 		.ascii	"tGestureId\000"
 4890      74757265 
 4890      496400
 4891              	.LASF58:
 4892 04e8 73746963 		.ascii	"stickyGesture\000"
 4892      6B794765 
 4892      73747572 
 4892      6500
 4893              	.LASF16:
 4894 04f6 63686172 		.ascii	"char\000"
 4894      00
 4895              	.LASF44:
 4896 04fb 66697273 		.ascii	"firstRadius\000"
 4896      74526164 
 4896      69757300 
 4897              	.LASF75:
 4898 0507 61636354 		.ascii	"accTheta\000"
 4898      68657461 
 4898      00
 4899              	.LASF22:
 4900 0510 47455354 		.ascii	"GESTURE_MIDDLE_CLICK\000"
 4900      5552455F 
 4900      4D494444 
 4900      4C455F43 
 4900      4C49434B 
 4901              	.LASF25:
 4902 0525 47455354 		.ascii	"GESTURE_UP_SWIPE\000"
 4902      5552455F 
 4902      55505F53 
 4902      57495045 
 4902      00
 4903              	.LASF73:
 4904 0536 79506F73 		.ascii	"yPos\000"
 4904      00
 4905              	.LASF67:
 4906 053b 74686574 		.ascii	"thetaChange\000"
 4906      61436861 
 4906      6E676500 
 4907              	.LASF12:
 4908 0547 696E7431 		.ascii	"int16\000"
 4908      3600
 4909              	.LASF77:
ARM GAS  C:\Users\JAVIER~1\AppData\Local\Temp\ccyEBIku.s 			page 114


 4910 054d 736C6964 		.ascii	"sliderCentroid\000"
 4910      65724365 
 4910      6E74726F 
 4910      696400
 4911              	.LASF36:
 4912 055c 47657374 		.ascii	"Gestures_CalculateRadius\000"
 4912      75726573 
 4912      5F43616C 
 4912      63756C61 
 4912      74655261 
 4913              	.LASF72:
 4914 0575 78506F73 		.ascii	"xPos\000"
 4914      00
 4915              	.LASF20:
 4916 057a 47455354 		.ascii	"GESTURE_LEFT_CLICK\000"
 4916      5552455F 
 4916      4C454654 
 4916      5F434C49 
 4916      434B00
 4917              	.LASF57:
 4918 058d 47657374 		.ascii	"Gestures_Process\000"
 4918      75726573 
 4918      5F50726F 
 4918      63657373 
 4918      00
 4919              	.LASF55:
 4920 059e 47657374 		.ascii	"Gestures_GetSector\000"
 4920      75726573 
 4920      5F476574 
 4920      53656374 
 4920      6F7200
 4921              	.LASF18:
 4922 05b1 47455354 		.ascii	"GESTURE_NONE\000"
 4922      5552455F 
 4922      4E4F4E45 
 4922      00
 4923              	.LASF38:
 4924 05be 62757474 		.ascii	"buttonStatus\000"
 4924      6F6E5374 
 4924      61747573 
 4924      00
 4925              		.ident	"GCC: (GNU Tools for ARM Embedded Processors) 4.9.3 20150303 (release) [ARM/embedded-4_9-br
