ARM GAS  C:\Users\JAVIER~1\AppData\Local\Temp\ccyEBIku.s 			page 1


   1              		.cpu cortex-m0
   2              		.fpu softvfp
   3              		.eabi_attribute 20, 1
   4              		.eabi_attribute 21, 1
   5              		.eabi_attribute 23, 3
   6              		.eabi_attribute 24, 1
   7              		.eabi_attribute 25, 1
   8              		.eabi_attribute 26, 1
   9              		.eabi_attribute 30, 1
  10              		.eabi_attribute 34, 0
  11              		.eabi_attribute 18, 4
  12              		.code	16
  13              		.file	"Gesture.c"
  14              		.text
  15              	.Ltext0:
  16              		.cfi_sections	.debug_frame
  17              		.section	.text.Gestures_CalculateRadius,"ax",%progbits
  18              		.align	2
  19              		.code	16
  20              		.thumb_func
  21              		.type	Gestures_CalculateRadius, %function
  22              	Gestures_CalculateRadius:
  23              	.LFB38:
  24              		.file 1 ".\\Gesture.c"
   1:.\Gesture.c   **** /*******************************************************************************
   2:.\Gesture.c   **** * File Name: Gesture.c
   3:.\Gesture.c   **** *
   4:.\Gesture.c   **** * Version 1.0
   5:.\Gesture.c   **** *
   6:.\Gesture.c   **** * Description: This file contains the CapSense gesture detection logic APIs
   7:.\Gesture.c   **** *
   8:.\Gesture.c   **** *******************************************************************************
   9:.\Gesture.c   **** * Copyright (2015), Cypress Semiconductor Corporation.
  10:.\Gesture.c   **** *******************************************************************************
  11:.\Gesture.c   **** * This software, including source code, documentation and related materials
  12:.\Gesture.c   **** * ("Software") is owned by Cypress Semiconductor Corporation (Cypress) and is
  13:.\Gesture.c   **** * protected by and subject to worldwide patent protection (United States and 
  14:.\Gesture.c   **** * foreign), United States copyright laws and international treaty provisions. 
  15:.\Gesture.c   **** * Cypress hereby grants to licensee a personal, non-exclusive, non-transferable
  16:.\Gesture.c   **** * license to copy, use, modify, create derivative works of, and compile the 
  17:.\Gesture.c   **** * Cypress source code and derivative works for the sole purpose of creating 
  18:.\Gesture.c   **** * custom software in support of licensee product, such licensee product to be
  19:.\Gesture.c   **** * used only in conjunction with Cypress's integrated circuit as specified in the
  20:.\Gesture.c   **** * applicable agreement. Any reproduction, modification, translation, compilation,
  21:.\Gesture.c   **** * or representation of this Software except as specified above is prohibited 
  22:.\Gesture.c   **** * without the express written permission of Cypress.
  23:.\Gesture.c   **** * 
  24:.\Gesture.c   **** * Disclaimer: THIS SOFTWARE IS PROVIDED AS-IS, WITH NO WARRANTY OF ANY KIND, 
  25:.\Gesture.c   **** * EXPRESS OR IMPLIED, INCLUDING, BUT NOT LIMITED TO, NONINFRINGEMENT, IMPLIED 
  26:.\Gesture.c   **** * WARRANTIES OF MERCHANTABILITY AND FITNESS FOR A PARTICULAR PURPOSE.
  27:.\Gesture.c   **** * Cypress reserves the Right to make changes to the Software without notice. 
  28:.\Gesture.c   **** * Cypress does not assume any liability arising out of the application or use
  29:.\Gesture.c   **** * of Software or any product or circuit described in the Software. Cypress does
  30:.\Gesture.c   **** * not authorize its products for use as critical components in any products 
  31:.\Gesture.c   **** * where a malfunction or failure may reasonably be expected to result in 
  32:.\Gesture.c   **** * significant injury or death ("ACTIVE Risk Product"). By including Cypress's 
  33:.\Gesture.c   **** * product in a ACTIVE Risk Product, the manufacturer of such system or application
ARM GAS  C:\Users\JAVIER~1\AppData\Local\Temp\ccyEBIku.s 			page 2


  34:.\Gesture.c   **** * assumes all risk of such use and in doing so indemnifies Cypress against all
  35:.\Gesture.c   **** * liability. Use of this Software may be limited by and subject to the applicable
  36:.\Gesture.c   **** * Cypress software license agreement.
  37:.\Gesture.c   **** *******************************************************************************/
  38:.\Gesture.c   **** 
  39:.\Gesture.c   **** #include "Gesture.h"
  40:.\Gesture.c   **** #include "CapSense_CSHL.h"
  41:.\Gesture.c   **** #include "stdbool.h"
  42:.\Gesture.c   **** #include "stdlib.h"
  43:.\Gesture.c   **** 
  44:.\Gesture.c   **** /*******************************************************************************
  45:.\Gesture.c   **** * 	Global Variable Declarations
  46:.\Gesture.c   **** *******************************************************************************/
  47:.\Gesture.c   **** 
  48:.\Gesture.c   **** /* The centroid of the radial slider from the current scan is stored in this 
  49:.\Gesture.c   ****  * variable. 
  50:.\Gesture.c   ****  */
  51:.\Gesture.c   **** uint16 sliderCentroid;
  52:.\Gesture.c   **** 
  53:.\Gesture.c   **** /* Accumulated theta and radius during CapSense activity on the Gesture Pad*/
  54:.\Gesture.c   **** int32 accRadius, accTheta;
  55:.\Gesture.c   **** 
  56:.\Gesture.c   **** /* Status of various segments */
  57:.\Gesture.c   **** uint32 capsenseButtonStatus;
  58:.\Gesture.c   **** 
  59:.\Gesture.c   **** /* X and Y coordinates from Gesture Pad radius and theta */
  60:.\Gesture.c   **** int32 xPos, yPos;
  61:.\Gesture.c   **** 
  62:.\Gesture.c   **** /* Polar coordinates - Radius and theta */
  63:.\Gesture.c   **** uint32 radius;
  64:.\Gesture.c   **** int32 theta;
  65:.\Gesture.c   **** 
  66:.\Gesture.c   **** /*******************************************************************************
  67:.\Gesture.c   **** * 	Static Variable Declarations
  68:.\Gesture.c   **** *******************************************************************************/
  69:.\Gesture.c   **** 
  70:.\Gesture.c   **** /* Constants used in various functions for lookup */
  71:.\Gesture.c   **** const int16 sinLookUp[] = {0,
  72:.\Gesture.c   **** 9,
  73:.\Gesture.c   **** 18,
  74:.\Gesture.c   **** 27,
  75:.\Gesture.c   **** 36,
  76:.\Gesture.c   **** 44,
  77:.\Gesture.c   **** 53,
  78:.\Gesture.c   **** 62,
  79:.\Gesture.c   **** 71,
  80:.\Gesture.c   **** 79,
  81:.\Gesture.c   **** 88,
  82:.\Gesture.c   **** 96,
  83:.\Gesture.c   **** 104,
  84:.\Gesture.c   **** 112,
  85:.\Gesture.c   **** 120,
  86:.\Gesture.c   **** 128,
  87:.\Gesture.c   **** 136,
  88:.\Gesture.c   **** 143,
  89:.\Gesture.c   **** 150,
  90:.\Gesture.c   **** 158,
ARM GAS  C:\Users\JAVIER~1\AppData\Local\Temp\ccyEBIku.s 			page 3


  91:.\Gesture.c   **** 165,
  92:.\Gesture.c   **** 171,
  93:.\Gesture.c   **** 178,
  94:.\Gesture.c   **** 184,
  95:.\Gesture.c   **** 190,
  96:.\Gesture.c   **** 196,
  97:.\Gesture.c   **** 202,
  98:.\Gesture.c   **** 207,
  99:.\Gesture.c   **** 212,
 100:.\Gesture.c   **** 217,
 101:.\Gesture.c   **** 222,
 102:.\Gesture.c   **** 226,
 103:.\Gesture.c   **** 230,
 104:.\Gesture.c   **** 234,
 105:.\Gesture.c   **** 237,
 106:.\Gesture.c   **** 241,
 107:.\Gesture.c   **** 243,
 108:.\Gesture.c   **** 246,
 109:.\Gesture.c   **** 248,
 110:.\Gesture.c   **** 250,
 111:.\Gesture.c   **** 252,
 112:.\Gesture.c   **** 254,
 113:.\Gesture.c   **** 255,
 114:.\Gesture.c   **** 255,
 115:.\Gesture.c   **** 256,
 116:.\Gesture.c   **** 256,
 117:.\Gesture.c   **** };
 118:.\Gesture.c   **** const uint32 sectorLookup[] = {SECTOR_0_WEIGHT, SECTOR_1_WEIGHT, SECTOR_2_WEIGHT, SECTOR_3_WEIGHT, 
 119:.\Gesture.c   **** const uint32 sectorToButtonLookup[] = {CENTRE_BTN_MASK, UP_BTN_MASK, LEFT_BTN_MASK, DOWN_BTN_MASK, 
 120:.\Gesture.c   **** 
 121:.\Gesture.c   **** /*******************************************************************************
 122:.\Gesture.c   **** * 	Global Function Prototypes
 123:.\Gesture.c   **** *******************************************************************************/
 124:.\Gesture.c   **** 
 125:.\Gesture.c   **** int32 Gestures_CalculateY(uint32 radius, int32 theta);
 126:.\Gesture.c   **** int32 Gestures_CalculateX(uint32 radius, int32 theta);
 127:.\Gesture.c   **** tGestureId DetectGesture(uint8 isAnySensorActive);
 128:.\Gesture.c   **** 
 129:.\Gesture.c   **** /*******************************************************************************
 130:.\Gesture.c   **** * 	Local Function Prototypes
 131:.\Gesture.c   **** *******************************************************************************/
 132:.\Gesture.c   **** 
 133:.\Gesture.c   **** static uint32 Gestures_ValidateButtons(uint32 buttonStatus, uint32 sliderSector);
 134:.\Gesture.c   **** static int32 Gestures_CalculateTheta(uint32 buttonStatus, int32 sliderPos);
 135:.\Gesture.c   **** static uint32 Gestures_CalculateRadius(uint32 buttonStatus);
 136:.\Gesture.c   **** static tGestureId Gestures_Process(uint32 radius, int32 theta);
 137:.\Gesture.c   **** 
 138:.\Gesture.c   **** /*******************************************************************************
 139:.\Gesture.c   **** * Function Name: DetectGesture
 140:.\Gesture.c   **** ********************************************************************************
 141:.\Gesture.c   **** *
 142:.\Gesture.c   **** * Summary:
 143:.\Gesture.c   **** * This function implements the gesture detection logic. 
 144:.\Gesture.c   **** *
 145:.\Gesture.c   **** * Parameters:
 146:.\Gesture.c   **** * isAnySensorActive - Indicates if user touch is present or not.
 147:.\Gesture.c   **** * 1 - if any of the sensors (5 buttons and 8 slider elements) is active.
ARM GAS  C:\Users\JAVIER~1\AppData\Local\Temp\ccyEBIku.s 			page 4


 148:.\Gesture.c   **** * 0 - If none of the sensors is active.
 149:.\Gesture.c   **** *
 150:.\Gesture.c   **** * Return:
 151:.\Gesture.c   **** * tGestureId - Id of the gesture detected. 
 152:.\Gesture.c   **** *
 153:.\Gesture.c   **** * Theory:
 154:.\Gesture.c   **** * This function waits until MAX_SCAN_COUNT number of unique sensor touches are
 155:.\Gesture.c   **** * found or the touch is released before identifying the gesture. 
 156:.\Gesture.c   **** *
 157:.\Gesture.c   **** *******************************************************************************/
 158:.\Gesture.c   **** tGestureId DetectGesture(uint8 isAnySensorActive)
 159:.\Gesture.c   **** {	
 160:.\Gesture.c   **** 	tGestureId gestureId;
 161:.\Gesture.c   **** 	uint32 buttonStatus = 0, sliderSector = 0, sliderPos = 0;	
 162:.\Gesture.c   **** 	
 163:.\Gesture.c   **** 	/* If any sensor is active, get the status of various CapSense elements */
 164:.\Gesture.c   **** 	if(isAnySensorActive)
 165:.\Gesture.c   **** 	{
 166:.\Gesture.c   **** 		/* Read the status of LEFT, RIGHT, UP, DOWN and CENTRE buttons  */
 167:.\Gesture.c   **** 		buttonStatus = CapSense_sensorOnMask[0] & (LEFT_BTN_MASK | RIGHT_BTN_MASK | UP_BTN_MASK | DOWN_BT
 168:.\Gesture.c   **** 	}
 169:.\Gesture.c   **** 	
 170:.\Gesture.c   **** 	/* Read the slider status */
 171:.\Gesture.c   **** 	sliderPos = CapSense_GetRadialCentroidPos(CapSense_RADIALSLIDER0__RS);
 172:.\Gesture.c   **** 	
 173:.\Gesture.c   **** 	/* If slider is active, process slider position */
 174:.\Gesture.c   **** 	if(sliderPos != 0xFFFF)
 175:.\Gesture.c   **** 	{
 176:.\Gesture.c   **** 		/* Update slider active status to the button status */
 177:.\Gesture.c   **** 		buttonStatus |= SLIDER_ACT_MASK;
 178:.\Gesture.c   **** 		
 179:.\Gesture.c   **** 		/* Find the sector in which finger is present */
 180:.\Gesture.c   **** 		sliderSector = sliderPos/ANGLE_45;	
 181:.\Gesture.c   **** 		
 182:.\Gesture.c   **** 		/* Radial slider offset correction to provide a more accurate theta */
 183:.\Gesture.c   **** 		if(sliderPos < ANGLE_90)
 184:.\Gesture.c   **** 		{
 185:.\Gesture.c   **** 			sliderPos = sliderPos + 10;		
 186:.\Gesture.c   **** 		}
 187:.\Gesture.c   **** 	}
 188:.\Gesture.c   **** 	else
 189:.\Gesture.c   **** 	{
 190:.\Gesture.c   **** 		/* Clear slider active status */
 191:.\Gesture.c   **** 		buttonStatus &= ~SLIDER_ACT_MASK;
 192:.\Gesture.c   **** 	}
 193:.\Gesture.c   **** 	
 194:.\Gesture.c   **** 	/* Validate the buttons pressed and update the status with valid button presses */
 195:.\Gesture.c   **** 	buttonStatus = Gestures_ValidateButtons(buttonStatus, sliderSector);
 196:.\Gesture.c   **** 	
 197:.\Gesture.c   **** 	/* Get radius and theta from active buttons and slider position */
 198:.\Gesture.c   **** 	radius = Gestures_CalculateRadius(buttonStatus);
 199:.\Gesture.c   **** 	theta = Gestures_CalculateTheta(buttonStatus, sliderPos);
 200:.\Gesture.c   **** 	
 201:.\Gesture.c   **** 	/* Obtain the gesture from theta and radius */
 202:.\Gesture.c   **** 	gestureId = Gestures_Process(radius, theta);
 203:.\Gesture.c   **** 	
 204:.\Gesture.c   **** 	#ifdef CALCULATE_X_Y_IN_GES
ARM GAS  C:\Users\JAVIER~1\AppData\Local\Temp\ccyEBIku.s 			page 5


 205:.\Gesture.c   **** 		/* Calculate the Cartesian coordinates from Polar coordinates - provided a valid angle is detecte
 206:.\Gesture.c   **** 		if(theta != INVALID_ANGLE)
 207:.\Gesture.c   **** 		{
 208:.\Gesture.c   **** 			xPos = Gestures_CalculateX(radius, theta);
 209:.\Gesture.c   **** 			yPos = Gestures_CalculateY(radius, theta);
 210:.\Gesture.c   **** 		}
 211:.\Gesture.c   **** 		else
 212:.\Gesture.c   **** 		{
 213:.\Gesture.c   **** 			xPos = 0;
 214:.\Gesture.c   **** 			yPos = 0;
 215:.\Gesture.c   **** 		}
 216:.\Gesture.c   **** 	#endif
 217:.\Gesture.c   **** 	
 218:.\Gesture.c   **** 	return gestureId;		
 219:.\Gesture.c   **** }
 220:.\Gesture.c   **** 
 221:.\Gesture.c   **** /*******************************************************************************
 222:.\Gesture.c   **** * Function Name: Gestures_ValidateButtons
 223:.\Gesture.c   **** ********************************************************************************
 224:.\Gesture.c   **** *
 225:.\Gesture.c   **** * Summary:
 226:.\Gesture.c   **** * This function validates the button and slider active status and returns the 
 227:.\Gesture.c   **** *	validated output. 
 228:.\Gesture.c   **** *
 229:.\Gesture.c   **** * Parameters:
 230:.\Gesture.c   **** *  buttonStatus - status of various buttons, refer to Gesture.h for various
 231:.\Gesture.c   **** *					masks
 232:.\Gesture.c   **** *  sliderSector - sector of the slider which is active (slider divided
 233:.\Gesture.c   **** *                   into four sectors)
 234:.\Gesture.c   **** *
 235:.\Gesture.c   **** * Return:
 236:.\Gesture.c   **** * uint32 - validated button status
 237:.\Gesture.c   **** *
 238:.\Gesture.c   **** *******************************************************************************/
 239:.\Gesture.c   **** uint32 Gestures_ValidateButtons(uint32 buttonStatus, uint32 sliderSector)
 240:.\Gesture.c   **** {
 241:.\Gesture.c   **** 	static uint32 prevButtonStatus;
 242:.\Gesture.c   **** 	
 243:.\Gesture.c   **** 	/* If both slider and centre button are active, slider gets preference
 244:.\Gesture.c   **** 		Only one of these two can be activated in the design */
 245:.\Gesture.c   **** 	if((buttonStatus & SLIDER_ACT_MASK) && (buttonStatus & CENTRE_BTN_MASK))
 246:.\Gesture.c   **** 	{
 247:.\Gesture.c   **** 		buttonStatus &= ~ CENTRE_BTN_MASK;		
 248:.\Gesture.c   **** 	}
 249:.\Gesture.c   **** 	
 250:.\Gesture.c   **** 	/* If both left and right button are active, analyze and report only the
 251:.\Gesture.c   **** 		more probable button */
 252:.\Gesture.c   **** 	if((buttonStatus & LEFT_BTN_MASK) && (buttonStatus & RIGHT_BTN_MASK))
 253:.\Gesture.c   **** 	{
 254:.\Gesture.c   **** 		/* If slider is active, then check the sector of slider is referred to 
 255:.\Gesture.c   **** 			decide the button to be reported */
 256:.\Gesture.c   **** 		if(buttonStatus & SLIDER_ACT_MASK)
 257:.\Gesture.c   **** 		{
 258:.\Gesture.c   **** 			if((sliderSector & SLIDER_4_SECTOR_MASK) == SECTOR_LEFT) 
 259:.\Gesture.c   **** 			/* Clear Right button mask if slider sector is left */
 260:.\Gesture.c   **** 			{
 261:.\Gesture.c   **** 				buttonStatus &= ~RIGHT_BTN_MASK;
ARM GAS  C:\Users\JAVIER~1\AppData\Local\Temp\ccyEBIku.s 			page 6


 262:.\Gesture.c   **** 			}
 263:.\Gesture.c   **** 			else if((sliderSector & SLIDER_4_SECTOR_MASK) == SECTOR_RIGHT)
 264:.\Gesture.c   **** 			/* Clear Left button mask if slider sector is Right */
 265:.\Gesture.c   **** 			{
 266:.\Gesture.c   **** 				buttonStatus &= ~LEFT_BTN_MASK;
 267:.\Gesture.c   **** 			}
 268:.\Gesture.c   **** 			else
 269:.\Gesture.c   **** 			/* Retain the previous button status if slider sector is neither left nor right */
 270:.\Gesture.c   **** 			{
 271:.\Gesture.c   **** 				buttonStatus &= ~(LEFT_BTN_MASK | RIGHT_BTN_MASK);
 272:.\Gesture.c   **** 				buttonStatus |= prevButtonStatus & (LEFT_BTN_MASK | RIGHT_BTN_MASK);
 273:.\Gesture.c   **** 			}
 274:.\Gesture.c   **** 		}
 275:.\Gesture.c   **** 		else
 276:.\Gesture.c   **** 		/* If slider is not active, use button signal to decide the button */
 277:.\Gesture.c   **** 		{
 278:.\Gesture.c   **** 			if(GetSignal(LEFT_BTN_ID) > GetSignal(RIGHT_BTN_ID))
 279:.\Gesture.c   **** 			{
 280:.\Gesture.c   **** 				buttonStatus &= ~RIGHT_BTN_MASK;
 281:.\Gesture.c   **** 			}
 282:.\Gesture.c   **** 			else if(GetSignal(LEFT_BTN_ID) < GetSignal(RIGHT_BTN_ID))
 283:.\Gesture.c   **** 			{
 284:.\Gesture.c   **** 				buttonStatus &= ~LEFT_BTN_MASK;
 285:.\Gesture.c   **** 			}
 286:.\Gesture.c   **** 			else
 287:.\Gesture.c   **** 			{
 288:.\Gesture.c   **** 				buttonStatus &= ~(LEFT_BTN_MASK | RIGHT_BTN_MASK);
 289:.\Gesture.c   **** 				buttonStatus |= prevButtonStatus & (LEFT_BTN_MASK | RIGHT_BTN_MASK);
 290:.\Gesture.c   **** 			}
 291:.\Gesture.c   **** 		}
 292:.\Gesture.c   **** 	}
 293:.\Gesture.c   **** 	
 294:.\Gesture.c   **** 	/* Same logic as Left/Right button for Up/Down button as well */
 295:.\Gesture.c   **** 	if((buttonStatus & UP_BTN_MASK) && (buttonStatus & DOWN_BTN_MASK))
 296:.\Gesture.c   **** 	{
 297:.\Gesture.c   **** 		if(buttonStatus & SLIDER_ACT_MASK)
 298:.\Gesture.c   **** 		{
 299:.\Gesture.c   **** 			if((sliderSector & SLIDER_4_SECTOR_MASK) == SECTOR_UP)
 300:.\Gesture.c   **** 			{
 301:.\Gesture.c   **** 				buttonStatus &= ~DOWN_BTN_MASK;
 302:.\Gesture.c   **** 			}
 303:.\Gesture.c   **** 			else if((sliderSector & SLIDER_4_SECTOR_MASK) == SECTOR_DOWN)
 304:.\Gesture.c   **** 			{
 305:.\Gesture.c   **** 				buttonStatus &= ~UP_BTN_MASK;
 306:.\Gesture.c   **** 			}
 307:.\Gesture.c   **** 			else
 308:.\Gesture.c   **** 			{
 309:.\Gesture.c   **** 				buttonStatus &= ~(UP_BTN_MASK | DOWN_BTN_MASK);
 310:.\Gesture.c   **** 				buttonStatus |= prevButtonStatus & (UP_BTN_MASK | DOWN_BTN_MASK);
 311:.\Gesture.c   **** 			}
 312:.\Gesture.c   **** 		}
 313:.\Gesture.c   **** 		else
 314:.\Gesture.c   **** 		{
 315:.\Gesture.c   **** 			if(GetSignal(UP_BTN_ID) > GetSignal(DOWN_BTN_ID))
 316:.\Gesture.c   **** 			{
 317:.\Gesture.c   **** 				buttonStatus &= ~DOWN_BTN_MASK;
 318:.\Gesture.c   **** 			}
ARM GAS  C:\Users\JAVIER~1\AppData\Local\Temp\ccyEBIku.s 			page 7


 319:.\Gesture.c   **** 			else if(GetSignal(UP_BTN_ID) < GetSignal(DOWN_BTN_ID))
 320:.\Gesture.c   **** 			{
 321:.\Gesture.c   **** 				buttonStatus &= ~UP_BTN_MASK;
 322:.\Gesture.c   **** 			}
 323:.\Gesture.c   **** 			else
 324:.\Gesture.c   **** 			{
 325:.\Gesture.c   **** 				buttonStatus &= ~(UP_BTN_MASK | DOWN_BTN_MASK);
 326:.\Gesture.c   **** 				buttonStatus |= prevButtonStatus & (UP_BTN_MASK | DOWN_BTN_MASK);
 327:.\Gesture.c   **** 			}
 328:.\Gesture.c   **** 		}
 329:.\Gesture.c   **** 	}
 330:.\Gesture.c   **** 	
 331:.\Gesture.c   **** 	/* Store current buttonStatus to previous button status for next cycle */
 332:.\Gesture.c   **** 	prevButtonStatus = buttonStatus;
 333:.\Gesture.c   **** 	
 334:.\Gesture.c   **** 	/* Return the validated button status */
 335:.\Gesture.c   **** 	return	buttonStatus;
 336:.\Gesture.c   **** }
 337:.\Gesture.c   **** 
 338:.\Gesture.c   **** 
 339:.\Gesture.c   **** /*******************************************************************************
 340:.\Gesture.c   **** * Function Name: Gestures_CalculateRadius
 341:.\Gesture.c   **** ********************************************************************************
 342:.\Gesture.c   **** *
 343:.\Gesture.c   **** * Summary:
 344:.\Gesture.c   **** * This function calculates the radius of active point on the Gesture Pad 
 345:.\Gesture.c   **** *
 346:.\Gesture.c   **** * Parameters:
 347:.\Gesture.c   **** *  buttonStatus - status of various buttons, refer to Gesture.h for various
 348:.\Gesture.c   **** *					masks
 349:.\Gesture.c   **** *
 350:.\Gesture.c   **** * Return:
 351:.\Gesture.c   **** * uint32 - calculated radius (valid range 0 to 4)
 352:.\Gesture.c   **** *
 353:.\Gesture.c   **** *******************************************************************************/
 354:.\Gesture.c   **** uint32 Gestures_CalculateRadius(uint32 buttonStatus)
 355:.\Gesture.c   **** {
  25              		.loc 1 355 0
  26              		.cfi_startproc
  27              	.LVL0:
 356:.\Gesture.c   **** 	uint32 radius = INVALID_RADIUS;
 357:.\Gesture.c   **** 	
 358:.\Gesture.c   **** 	/* Check if slider is active */
 359:.\Gesture.c   **** 	if(buttonStatus & SLIDER_ACT_MASK)
  28              		.loc 1 359 0
  29 0000 8306     		lsl	r3, r0, #26
  30 0002 03D5     		bpl	.L2
 360:.\Gesture.c   **** 	{
 361:.\Gesture.c   **** 		/* If slider is active then 
 362:.\Gesture.c   ****             1. radius = 3, if any of the LEFT/RIGHT/UP/DOWN buttons are active
 363:.\Gesture.c   ****             2. radius = 4, if ONLY slider is active */
 364:.\Gesture.c   **** 		if(buttonStatus & (LEFT_BTN_MASK | RIGHT_BTN_MASK | UP_BTN_MASK | DOWN_BTN_MASK))
  31              		.loc 1 364 0
  32 0004 0307     		lsl	r3, r0, #28
  33 0006 0BD0     		beq	.L5
 365:.\Gesture.c   **** 		{
 366:.\Gesture.c   **** 			radius = 3;
ARM GAS  C:\Users\JAVIER~1\AppData\Local\Temp\ccyEBIku.s 			page 8


  34              		.loc 1 366 0
  35 0008 0320     		mov	r0, #3
  36              	.LVL1:
  37 000a 0EE0     		b	.L3
  38              	.LVL2:
  39              	.L2:
 367:.\Gesture.c   **** 		}
 368:.\Gesture.c   **** 		else
 369:.\Gesture.c   **** 		{
 370:.\Gesture.c   **** 			radius = 4;
 371:.\Gesture.c   **** 		}
 372:.\Gesture.c   **** 	}
 373:.\Gesture.c   **** 	/* Check if centre button is active */
 374:.\Gesture.c   **** 	else if(buttonStatus & CENTRE_BTN_MASK)
  40              		.loc 1 374 0
  41 000c C306     		lsl	r3, r0, #27
  42 000e 03D5     		bpl	.L4
 375:.\Gesture.c   **** 	{
 376:.\Gesture.c   **** 		/* If centre button is active then 
 377:.\Gesture.c   ****             1. radius = 1, if any of the LEFT/RIGHT/UP/DOWN buttons are active
 378:.\Gesture.c   **** 		    2. radius = 0, if ONLY centre button is active */
 379:.\Gesture.c   **** 		if(buttonStatus & (LEFT_BTN_MASK | RIGHT_BTN_MASK | UP_BTN_MASK | DOWN_BTN_MASK))
  43              		.loc 1 379 0
  44 0010 0307     		lsl	r3, r0, #28
  45 0012 07D0     		beq	.L6
 380:.\Gesture.c   **** 		{
 381:.\Gesture.c   **** 			radius = 1;
  46              		.loc 1 381 0
  47 0014 0120     		mov	r0, #1
  48              	.LVL3:
  49 0016 08E0     		b	.L3
  50              	.LVL4:
  51              	.L4:
 382:.\Gesture.c   **** 		}
 383:.\Gesture.c   **** 		else
 384:.\Gesture.c   **** 		{
 385:.\Gesture.c   **** 			radius = 0;
 386:.\Gesture.c   **** 		}
 387:.\Gesture.c   **** 	}
 388:.\Gesture.c   **** 	else if(buttonStatus != 0)
  52              		.loc 1 388 0
  53 0018 0028     		cmp	r0, #0
  54 001a 05D1     		bne	.L7
 356:.\Gesture.c   **** 	
  55              		.loc 1 356 0
  56 001c FF30     		add	r0, r0, #255
  57              	.LVL5:
  58 001e 04E0     		b	.L3
  59              	.LVL6:
  60              	.L5:
 370:.\Gesture.c   **** 		}
  61              		.loc 1 370 0
  62 0020 0420     		mov	r0, #4
  63              	.LVL7:
  64 0022 02E0     		b	.L3
  65              	.LVL8:
  66              	.L6:
ARM GAS  C:\Users\JAVIER~1\AppData\Local\Temp\ccyEBIku.s 			page 9


 385:.\Gesture.c   **** 		}
  67              		.loc 1 385 0
  68 0024 0020     		mov	r0, #0
  69              	.LVL9:
  70 0026 00E0     		b	.L3
  71              	.LVL10:
  72              	.L7:
 389:.\Gesture.c   **** 	{
 390:.\Gesture.c   **** 		/* radius = 2, if neither slider nor centre button is active */
 391:.\Gesture.c   **** 		radius = 2;
  73              		.loc 1 391 0
  74 0028 0220     		mov	r0, #2
  75              	.LVL11:
  76              	.L3:
 392:.\Gesture.c   **** 	}
 393:.\Gesture.c   **** 	
 394:.\Gesture.c   **** 	return radius;
 395:.\Gesture.c   **** }
  77              		.loc 1 395 0
  78              		@ sp needed
  79 002a 7047     		bx	lr
  80              		.cfi_endproc
  81              	.LFE38:
  82              		.size	Gestures_CalculateRadius, .-Gestures_CalculateRadius
  83              		.section	.text.Gestures_CalculateTheta,"ax",%progbits
  84              		.align	2
  85              		.code	16
  86              		.thumb_func
  87              		.type	Gestures_CalculateTheta, %function
  88              	Gestures_CalculateTheta:
  89              	.LFB39:
 396:.\Gesture.c   **** 
 397:.\Gesture.c   **** /*******************************************************************************
 398:.\Gesture.c   **** * Function Name: Gestures_CalculateTheta
 399:.\Gesture.c   **** ********************************************************************************
 400:.\Gesture.c   **** *
 401:.\Gesture.c   **** * Summary:
 402:.\Gesture.c   **** * This function calculates the theta of active point on the Gesture Pad 
 403:.\Gesture.c   **** *
 404:.\Gesture.c   **** * Parameters:
 405:.\Gesture.c   **** *  buttonStatus - status of various buttons, refer to Gesture.h for various
 406:.\Gesture.c   **** *					masks
 407:.\Gesture.c   **** *  sliderPos - position of finger on slider
 408:.\Gesture.c   **** *
 409:.\Gesture.c   **** * Return:
 410:.\Gesture.c   **** * int32 - calculated theta (valid range -90 to 90); 1 count = 2 degrees;
 411:.\Gesture.c   **** *
 412:.\Gesture.c   **** *******************************************************************************/
 413:.\Gesture.c   **** int32 Gestures_CalculateTheta(uint32 buttonStatus, int32 sliderPos)
 414:.\Gesture.c   **** {
  90              		.loc 1 414 0
  91              		.cfi_startproc
  92              	.LVL12:
 415:.\Gesture.c   **** 	int32 theta = INVALID_ANGLE;
 416:.\Gesture.c   **** 	
 417:.\Gesture.c   **** 	/* If slider is active, theta is calculated from the slider centroid */
 418:.\Gesture.c   **** 	if(buttonStatus & SLIDER_ACT_MASK)
ARM GAS  C:\Users\JAVIER~1\AppData\Local\Temp\ccyEBIku.s 			page 10


  93              		.loc 1 418 0
  94 0000 8306     		lsl	r3, r0, #26
  95 0002 03D5     		bpl	.L9
 419:.\Gesture.c   **** 	{
 420:.\Gesture.c   **** 		/* theta is in the range of -90 to 90 (-180 degrees to +180 degrees), hence adjust slider output 
 421:.\Gesture.c   **** 			with respect to mid position to get -90 to 90 output for theta */
 422:.\Gesture.c   **** 		if(sliderPos > SLIDER_MID_POS)
  96              		.loc 1 422 0
  97 0004 5A29     		cmp	r1, #90
  98 0006 24DD     		ble	.L10
 423:.\Gesture.c   **** 		{
 424:.\Gesture.c   **** 			theta = sliderPos - SLIDER_RESOLUTION;
  99              		.loc 1 424 0
 100 0008 B439     		sub	r1, r1, #180
 101              	.LVL13:
 102 000a 22E0     		b	.L10
 103              	.LVL14:
 104              	.L9:
 425:.\Gesture.c   **** 		}
 426:.\Gesture.c   **** 		else
 427:.\Gesture.c   **** 		{
 428:.\Gesture.c   **** 			theta = sliderPos;
 429:.\Gesture.c   **** 		}
 430:.\Gesture.c   **** 	}
 431:.\Gesture.c   **** 	/* If slider is not active, check any of LEFT/RIGHT/UP/DOWN is active */
 432:.\Gesture.c   **** 	else if(buttonStatus & (LEFT_BTN_MASK | RIGHT_BTN_MASK | UP_BTN_MASK | DOWN_BTN_MASK))
 105              		.loc 1 432 0
 106 000c 0F23     		mov	r3, #15
 107 000e 0340     		and	r3, r0
 108 0010 18D0     		beq	.L11
 433:.\Gesture.c   **** 	{
 434:.\Gesture.c   **** 		/* Based on the combination of active buttons between LEFT/RIGHT/UP/DOWN, report theta */
 435:.\Gesture.c   **** 		switch(buttonStatus & (LEFT_BTN_MASK | RIGHT_BTN_MASK | UP_BTN_MASK | DOWN_BTN_MASK))
 109              		.loc 1 435 0
 110 0012 0A2B     		cmp	r3, #10
 111 0014 14D8     		bhi	.L12
 112 0016 9B00     		lsl	r3, r3, #2
 113 0018 0F4A     		ldr	r2, .L23
 114 001a D358     		ldr	r3, [r2, r3]
 115 001c 9F46     		mov	pc, r3
 116              		.section	.rodata
 117              		.align	2
 118              	.L14:
 119 0000 40000000 		.word	.L12
 120 0004 1E000000 		.word	.L13
 121 0008 2E000000 		.word	.L15
 122 000c 40000000 		.word	.L12
 123 0010 26000000 		.word	.L16
 124 0014 22000000 		.word	.L17
 125 0018 2A000000 		.word	.L18
 126 001c 40000000 		.word	.L12
 127 0020 3A000000 		.word	.L19
 128 0024 4C000000 		.word	.L21
 129 0028 34000000 		.word	.L20
 130              		.section	.text.Gestures_CalculateTheta
 131              	.L13:
 436:.\Gesture.c   **** 		{
ARM GAS  C:\Users\JAVIER~1\AppData\Local\Temp\ccyEBIku.s 			page 11


 437:.\Gesture.c   **** 			/* Only LEFT active, theta = 135 degree */
 438:.\Gesture.c   **** 			case (LEFT_BTN_MASK):
 439:.\Gesture.c   **** 				theta = ANGLE_135;
 132              		.loc 1 439 0
 133 001e 4321     		mov	r1, #67
 134              	.LVL15:
 135 0020 17E0     		b	.L10
 136              	.LVL16:
 137              	.L17:
 440:.\Gesture.c   **** 			break;
 441:.\Gesture.c   **** 			
 442:.\Gesture.c   **** 			/* LEFT and DOWN active, theta = 180 degree */
 443:.\Gesture.c   **** 			case (LEFT_BTN_MASK | DOWN_BTN_MASK):
 444:.\Gesture.c   **** 				theta = ANGLE_180;
 445:.\Gesture.c   **** 			break;
 446:.\Gesture.c   **** 			
 447:.\Gesture.c   **** 			/* LEFT and UP active, theta = 90 degree */
 448:.\Gesture.c   **** 			case (LEFT_BTN_MASK | UP_BTN_MASK):
 449:.\Gesture.c   **** 				theta = ANGLE_90;
 138              		.loc 1 449 0
 139 0022 2D21     		mov	r1, #45
 140              	.LVL17:
 450:.\Gesture.c   **** 			break;
 141              		.loc 1 450 0
 142 0024 15E0     		b	.L10
 143              	.LVL18:
 144              	.L16:
 451:.\Gesture.c   **** 			
 452:.\Gesture.c   **** 			/* Only UP active, theta = 45 degree */
 453:.\Gesture.c   **** 			case (UP_BTN_MASK):
 454:.\Gesture.c   **** 				theta = ANGLE_45;
 145              		.loc 1 454 0
 146 0026 1621     		mov	r1, #22
 147              	.LVL19:
 455:.\Gesture.c   **** 			break;
 148              		.loc 1 455 0
 149 0028 13E0     		b	.L10
 150              	.LVL20:
 151              	.L18:
 456:.\Gesture.c   **** 			
 457:.\Gesture.c   **** 			/* RIGHT and UP active, theta = 0 degree */
 458:.\Gesture.c   **** 			case (RIGHT_BTN_MASK | UP_BTN_MASK ):
 459:.\Gesture.c   **** 				theta = ANGLE_0;
 152              		.loc 1 459 0
 153 002a 0021     		mov	r1, #0
 154              	.LVL21:
 460:.\Gesture.c   **** 			break;
 155              		.loc 1 460 0
 156 002c 11E0     		b	.L10
 157              	.LVL22:
 158              	.L15:
 461:.\Gesture.c   **** 			
 462:.\Gesture.c   **** 			/* Only RIGHT active, theta = -45 degree */
 463:.\Gesture.c   **** 			case (RIGHT_BTN_MASK):
 464:.\Gesture.c   **** 				theta = -ANGLE_45;
 159              		.loc 1 464 0
 160 002e 1621     		mov	r1, #22
ARM GAS  C:\Users\JAVIER~1\AppData\Local\Temp\ccyEBIku.s 			page 12


 161              	.LVL23:
 162 0030 4942     		neg	r1, r1
 465:.\Gesture.c   **** 			break;
 163              		.loc 1 465 0
 164 0032 0EE0     		b	.L10
 165              	.LVL24:
 166              	.L20:
 466:.\Gesture.c   **** 			
 467:.\Gesture.c   **** 			/* RIGHT and DOWN active, theta = -90 degree */
 468:.\Gesture.c   **** 			case (RIGHT_BTN_MASK | DOWN_BTN_MASK):
 469:.\Gesture.c   **** 				theta = -ANGLE_90;
 167              		.loc 1 469 0
 168 0034 2D21     		mov	r1, #45
 169              	.LVL25:
 170 0036 4942     		neg	r1, r1
 470:.\Gesture.c   **** 			break;
 171              		.loc 1 470 0
 172 0038 0BE0     		b	.L10
 173              	.LVL26:
 174              	.L19:
 471:.\Gesture.c   **** 			
 472:.\Gesture.c   **** 			/* Only DOWN active, theta = -135 degree */
 473:.\Gesture.c   **** 			case (DOWN_BTN_MASK):
 474:.\Gesture.c   **** 				theta = -ANGLE_135;
 175              		.loc 1 474 0
 176 003a 4321     		mov	r1, #67
 177              	.LVL27:
 178 003c 4942     		neg	r1, r1
 475:.\Gesture.c   **** 			break;
 179              		.loc 1 475 0
 180 003e 08E0     		b	.L10
 181              	.LVL28:
 182              	.L12:
 476:.\Gesture.c   **** 			
 477:.\Gesture.c   **** 			/* For any other combination, theta is not valid */
 478:.\Gesture.c   **** 			default:
 479:.\Gesture.c   **** 				theta = INVALID_ANGLE;
 183              		.loc 1 479 0
 184 0040 FA21     		mov	r1, #250
 185              	.LVL29:
 480:.\Gesture.c   **** 			break;
 186              		.loc 1 480 0
 187 0042 06E0     		b	.L10
 188              	.LVL30:
 189              	.L11:
 481:.\Gesture.c   **** 		}
 482:.\Gesture.c   **** 		
 483:.\Gesture.c   **** 	}
 484:.\Gesture.c   **** 	/* If only CENTRE button is active, theta = 0 */
 485:.\Gesture.c   **** 	else if(buttonStatus != 0)
 190              		.loc 1 485 0
 191 0044 0028     		cmp	r0, #0
 192 0046 03D1     		bne	.L22
 415:.\Gesture.c   **** 	
 193              		.loc 1 415 0
 194 0048 FA21     		mov	r1, #250
 195              	.LVL31:
ARM GAS  C:\Users\JAVIER~1\AppData\Local\Temp\ccyEBIku.s 			page 13


 196 004a 02E0     		b	.L10
 197              	.LVL32:
 198              	.L21:
 444:.\Gesture.c   **** 			break;
 199              		.loc 1 444 0
 200 004c 5A21     		mov	r1, #90
 201              	.LVL33:
 202 004e 00E0     		b	.L10
 203              	.LVL34:
 204              	.L22:
 486:.\Gesture.c   **** 	{
 487:.\Gesture.c   **** 		theta = 0;
 205              		.loc 1 487 0
 206 0050 0021     		mov	r1, #0
 207              	.LVL35:
 208              	.L10:
 488:.\Gesture.c   **** 	}
 489:.\Gesture.c   **** 	
 490:.\Gesture.c   **** 	return theta;
 491:.\Gesture.c   **** }
 209              		.loc 1 491 0
 210 0052 081C     		mov	r0, r1
 211              	.LVL36:
 212              		@ sp needed
 213 0054 7047     		bx	lr
 214              	.L24:
 215 0056 C046     		.align	2
 216              	.L23:
 217 0058 00000000 		.word	.L14
 218              		.cfi_endproc
 219              	.LFE39:
 220              		.size	Gestures_CalculateTheta, .-Gestures_CalculateTheta
 221              		.section	.text.Gestures_LookUpGesture,"ax",%progbits
 222              		.align	2
 223              		.code	16
 224              		.thumb_func
 225              		.type	Gestures_LookUpGesture, %function
 226              	Gestures_LookUpGesture:
 227              	.LFB45:
 492:.\Gesture.c   **** 
 493:.\Gesture.c   **** /*******************************************************************************
 494:.\Gesture.c   **** * Function Name: GetSinTheta
 495:.\Gesture.c   **** ********************************************************************************
 496:.\Gesture.c   **** *
 497:.\Gesture.c   **** * Summary:
 498:.\Gesture.c   **** * This function calculates the sine theta of a given angle 
 499:.\Gesture.c   **** *
 500:.\Gesture.c   **** * Parameters:
 501:.\Gesture.c   **** *  theta - angle for which sine needs to be calculated (-90 to 90);
 502:.\Gesture.c   **** *			1 count = 2 degrees;
 503:.\Gesture.c   **** *
 504:.\Gesture.c   **** * Return:
 505:.\Gesture.c   **** * int32 - sine theta value scaled to 256 (i.e. 1 = 256, 0.5 = 128 etc)
 506:.\Gesture.c   **** *
 507:.\Gesture.c   **** *******************************************************************************/
 508:.\Gesture.c   **** int32 GetSinTheta(int32 theta)
 509:.\Gesture.c   **** {
ARM GAS  C:\Users\JAVIER~1\AppData\Local\Temp\ccyEBIku.s 			page 14


 510:.\Gesture.c   **** 	int32 sinTheta = INVALID_SINE;
 511:.\Gesture.c   **** 	
 512:.\Gesture.c   **** 	/* Return sine theta, only if angle/theta is valid */
 513:.\Gesture.c   **** 	if(theta != INVALID_ANGLE)
 514:.\Gesture.c   **** 	{
 515:.\Gesture.c   **** 		/* Based on theta, lookup the sine table appropriately and return the value */
 516:.\Gesture.c   **** 		/* sin(-theta) = -sin(theta) */
 517:.\Gesture.c   **** 		if(theta < 0)
 518:.\Gesture.c   **** 		{			
 519:.\Gesture.c   **** 			theta = -theta;
 520:.\Gesture.c   **** 			
 521:.\Gesture.c   **** 			/* sin(180-theta) = sin(theta) */
 522:.\Gesture.c   **** 			if(theta > ANGLE_90)
 523:.\Gesture.c   **** 			{
 524:.\Gesture.c   **** 				sinTheta = -1 * sinLookUp[ANGLE_180 - theta];
 525:.\Gesture.c   **** 			}
 526:.\Gesture.c   **** 			else
 527:.\Gesture.c   **** 			{
 528:.\Gesture.c   **** 				sinTheta = -1 * sinLookUp[theta];
 529:.\Gesture.c   **** 			}
 530:.\Gesture.c   **** 		}
 531:.\Gesture.c   **** 		else
 532:.\Gesture.c   **** 		{
 533:.\Gesture.c   **** 			/* sin(180-theta) = sin(theta) */
 534:.\Gesture.c   **** 			if(theta > ANGLE_90)
 535:.\Gesture.c   **** 			{
 536:.\Gesture.c   **** 				sinTheta = sinLookUp[ANGLE_180 - theta];
 537:.\Gesture.c   **** 			}
 538:.\Gesture.c   **** 			else
 539:.\Gesture.c   **** 			{
 540:.\Gesture.c   **** 				sinTheta = sinLookUp[theta];
 541:.\Gesture.c   **** 			}
 542:.\Gesture.c   **** 		}
 543:.\Gesture.c   **** 	}
 544:.\Gesture.c   **** 	
 545:.\Gesture.c   **** 	
 546:.\Gesture.c   **** 	return sinTheta;
 547:.\Gesture.c   **** }
 548:.\Gesture.c   **** 
 549:.\Gesture.c   **** /*******************************************************************************
 550:.\Gesture.c   **** * Function Name: GetCosTheta
 551:.\Gesture.c   **** ********************************************************************************
 552:.\Gesture.c   **** *
 553:.\Gesture.c   **** * Summary:
 554:.\Gesture.c   **** * This function calculates the cosine theta of a given angle 
 555:.\Gesture.c   **** *
 556:.\Gesture.c   **** * Parameters:
 557:.\Gesture.c   **** *  theta - angle for which cosine needs to be calculated (-90 to 90);
 558:.\Gesture.c   **** *			1 count = 2 degrees;
 559:.\Gesture.c   **** *
 560:.\Gesture.c   **** * Return:
 561:.\Gesture.c   **** * int32 - cosine theta value scaled to 256 (i.e. 1 = 256, 0.5 = 128 etc)
 562:.\Gesture.c   **** *
 563:.\Gesture.c   **** *******************************************************************************/
 564:.\Gesture.c   **** int32 GetCosTheta(int32 theta)
 565:.\Gesture.c   **** {
 566:.\Gesture.c   **** 	int32 cosTheta = INVALID_SINE;
ARM GAS  C:\Users\JAVIER~1\AppData\Local\Temp\ccyEBIku.s 			page 15


 567:.\Gesture.c   **** 	
 568:.\Gesture.c   **** 	/* Return cosine theta, only if angle/theta is valid */
 569:.\Gesture.c   **** 	if(theta != INVALID_ANGLE)
 570:.\Gesture.c   **** 	{
 571:.\Gesture.c   **** 		/* Trigonometric relations used in the calculation
 572:.\Gesture.c   **** 		cos(theta) = sin(90 - theta) 
 573:.\Gesture.c   **** 		cos(-theta) = cos(theta) 
 574:.\Gesture.c   **** 		cos(180 - theta) = -cos(theta) */
 575:.\Gesture.c   **** 		if(theta < 0)
 576:.\Gesture.c   **** 		{
 577:.\Gesture.c   **** 			theta = -theta;
 578:.\Gesture.c   **** 		}
 579:.\Gesture.c   **** 		
 580:.\Gesture.c   **** 		if(theta > ANGLE_90)
 581:.\Gesture.c   **** 		{
 582:.\Gesture.c   **** 			cosTheta = -1 * sinLookUp[theta - ANGLE_90];
 583:.\Gesture.c   **** 		}
 584:.\Gesture.c   **** 		else
 585:.\Gesture.c   **** 		{
 586:.\Gesture.c   **** 			cosTheta = sinLookUp[ANGLE_90 - theta];
 587:.\Gesture.c   **** 		}
 588:.\Gesture.c   **** 	}
 589:.\Gesture.c   **** 	
 590:.\Gesture.c   **** 	return cosTheta;
 591:.\Gesture.c   **** }
 592:.\Gesture.c   **** 
 593:.\Gesture.c   **** /*******************************************************************************
 594:.\Gesture.c   **** * Function Name: Gestures_CalculateX
 595:.\Gesture.c   **** ********************************************************************************
 596:.\Gesture.c   **** *
 597:.\Gesture.c   **** * Summary:
 598:.\Gesture.c   **** * This function calculates the Cartesian coordinate x from Polar coordinates 
 599:.\Gesture.c   **** *
 600:.\Gesture.c   **** * Parameters:
 601:.\Gesture.c   **** * radius - Polar coordinate radius  (0 to 4)
 602:.\Gesture.c   **** * theta - Polar coordinate theta (-90 to 90);
 603:.\Gesture.c   **** *			1 count = 2 degrees;
 604:.\Gesture.c   **** *
 605:.\Gesture.c   **** * Return:
 606:.\Gesture.c   **** * int32 - Cartesian coordinate x (-8 to +8)
 607:.\Gesture.c   **** *
 608:.\Gesture.c   **** *******************************************************************************/
 609:.\Gesture.c   **** int32 Gestures_CalculateX(uint32 radius, int32 theta)
 610:.\Gesture.c   **** {
 611:.\Gesture.c   **** 	int32 x;
 612:.\Gesture.c   **** 	
 613:.\Gesture.c   **** 	/* Shifting theta by 45 degree to provide a proper x offset */
 614:.\Gesture.c   **** 	theta += ANGLE_45;
 615:.\Gesture.c   **** 	
 616:.\Gesture.c   **** 	/* Rollover theta overflow because of the 45 degree addition */
 617:.\Gesture.c   **** 	if(theta > ANGLE_180)
 618:.\Gesture.c   **** 	{
 619:.\Gesture.c   **** 		/* To bring back theta to -180 to 180 degree range, subtract 360 degree from theta */
 620:.\Gesture.c   **** 		theta = theta - (ANGLE_180<<1);
 621:.\Gesture.c   **** 	}
 622:.\Gesture.c   **** 	
 623:.\Gesture.c   **** 	/* x = radius * cos(theta)
ARM GAS  C:\Users\JAVIER~1\AppData\Local\Temp\ccyEBIku.s 			page 16


 624:.\Gesture.c   **** 		Multiplication by MAX_X_Y is for scaling 
 625:.\Gesture.c   **** 		Shift right by 8 is to remove the cos(theta) normalization to 256 */
 626:.\Gesture.c   **** 	x = (((int32)radius) * GetCosTheta(theta) * MAX_X_Y )>> 8;
 627:.\Gesture.c   **** 
 628:.\Gesture.c   **** 	
 629:.\Gesture.c   **** 	return x;
 630:.\Gesture.c   **** }
 631:.\Gesture.c   **** 
 632:.\Gesture.c   **** /*******************************************************************************
 633:.\Gesture.c   **** * Function Name: Gestures_CalculateY
 634:.\Gesture.c   **** ********************************************************************************
 635:.\Gesture.c   **** *
 636:.\Gesture.c   **** * Summary:
 637:.\Gesture.c   **** * This function calculates the Cartesian coordinate y from Polar coordinates 
 638:.\Gesture.c   **** *
 639:.\Gesture.c   **** * Parameters:
 640:.\Gesture.c   **** * radius - Polar coordinate radius  (0 to 4)
 641:.\Gesture.c   **** * theta - Polar coordinate theta (-90 to 90);
 642:.\Gesture.c   **** *			1 count = 2 degrees;
 643:.\Gesture.c   **** *
 644:.\Gesture.c   **** * Return:
 645:.\Gesture.c   **** * int32 - Cartesian coordinate y (-8 to +8)
 646:.\Gesture.c   **** *
 647:.\Gesture.c   **** *******************************************************************************/
 648:.\Gesture.c   **** int32 Gestures_CalculateY(uint32 radius, int32 theta)
 649:.\Gesture.c   **** {
 650:.\Gesture.c   **** 	int32 y;
 651:.\Gesture.c   **** 	
 652:.\Gesture.c   **** 	theta += ANGLE_45;
 653:.\Gesture.c   **** 	
 654:.\Gesture.c   **** 	if(theta > ANGLE_180)
 655:.\Gesture.c   **** 	{
 656:.\Gesture.c   **** 		theta = theta - (ANGLE_180<<1);
 657:.\Gesture.c   **** 	}
 658:.\Gesture.c   **** 	
 659:.\Gesture.c   **** 	/* y = radius * sin(theta)
 660:.\Gesture.c   **** 		Multiplication by MAX_X_Y is for scaling 
 661:.\Gesture.c   **** 		Shift right by 8 is to remove the sin(theta) normalization to 256 */
 662:.\Gesture.c   **** 	y = (((int32)radius) * GetSinTheta(theta) * MAX_X_Y )>> 8;
 663:.\Gesture.c   **** 	
 664:.\Gesture.c   **** 	return y;
 665:.\Gesture.c   **** }
 666:.\Gesture.c   **** 
 667:.\Gesture.c   **** /*******************************************************************************
 668:.\Gesture.c   **** * Function Name: Gestures_GetSector
 669:.\Gesture.c   **** ********************************************************************************
 670:.\Gesture.c   **** *
 671:.\Gesture.c   **** * Summary:
 672:.\Gesture.c   **** * This function calculates the sector in which finger is present. There are a 
 673:.\Gesture.c   **** *	total of 5 sectors. 
 674:.\Gesture.c   **** *
 675:.\Gesture.c   **** * Parameters:
 676:.\Gesture.c   **** * radius - Polar coordinate radius  (0 to 4)
 677:.\Gesture.c   **** * theta - Polar coordinate theta (-90 to 90);
 678:.\Gesture.c   **** *			1 count = 2 degrees;
 679:.\Gesture.c   **** *
 680:.\Gesture.c   **** * Return:
ARM GAS  C:\Users\JAVIER~1\AppData\Local\Temp\ccyEBIku.s 			page 17


 681:.\Gesture.c   **** * uint32 - sector number
 682:.\Gesture.c   **** *	0 - middle sector (radius = 0) 
 683:.\Gesture.c   **** *	1 - up sector (radius > 0, 0 < theta < 45)
 684:.\Gesture.c   **** *	2 - left sector (radius > 0, 45 < theta < 90)
 685:.\Gesture.c   **** *	3 - down sector (radius > 0, -45 > theta > -90)
 686:.\Gesture.c   **** *	4 - right sector (radius > 0, 0 > theta > -45)
 687:.\Gesture.c   **** *
 688:.\Gesture.c   **** *******************************************************************************/
 689:.\Gesture.c   **** uint32 Gestures_GetSector(uint32 radius, int32 theta)
 690:.\Gesture.c   **** {
 691:.\Gesture.c   **** 	uint32 sector = INVALID_SECTOR;
 692:.\Gesture.c   **** 	
 693:.\Gesture.c   **** 	/* Process only for valid theta */
 694:.\Gesture.c   **** 	if(theta != INVALID_ANGLE)
 695:.\Gesture.c   **** 	{
 696:.\Gesture.c   **** 		/* If radius = 0, sector is 0 (CENTRE button) */
 697:.\Gesture.c   **** 		if(radius == 0)
 698:.\Gesture.c   **** 		{
 699:.\Gesture.c   **** 			sector = 0;
 700:.\Gesture.c   **** 		}
 701:.\Gesture.c   **** 		else
 702:.\Gesture.c   **** 		{
 703:.\Gesture.c   **** 			/* Calculate sector based on theta if radius != 0 */
 704:.\Gesture.c   **** 			if(theta >= 0)
 705:.\Gesture.c   **** 			{
 706:.\Gesture.c   **** 				sector = 1 + (theta/ANGLE_90);
 707:.\Gesture.c   **** 			}
 708:.\Gesture.c   **** 			else
 709:.\Gesture.c   **** 			{
 710:.\Gesture.c   **** 				sector = (uint32)((int32)4 + (theta/ANGLE_90));
 711:.\Gesture.c   **** 			}			
 712:.\Gesture.c   **** 		}
 713:.\Gesture.c   **** 	}
 714:.\Gesture.c   **** 	
 715:.\Gesture.c   **** 	return sector;
 716:.\Gesture.c   **** }
 717:.\Gesture.c   **** 
 718:.\Gesture.c   **** /*******************************************************************************
 719:.\Gesture.c   **** * Function Name: Gestures_LookUpGesture
 720:.\Gesture.c   **** ********************************************************************************
 721:.\Gesture.c   **** *
 722:.\Gesture.c   **** * Summary:
 723:.\Gesture.c   **** * This function returns the gesture based on radius detected at first touch and
 724:.\Gesture.c   **** *	a unique sum of prime products term
 725:.\Gesture.c   **** *
 726:.\Gesture.c   **** * Parameters:
 727:.\Gesture.c   **** * sectorHistorySum - unique sum term for each gesture (combination of 3 previous 
 728:.\Gesture.c   **** *						sector states and sector weights)
 729:.\Gesture.c   **** * firstRadius - radius value when the sector was first touched during the activity
 730:.\Gesture.c   **** *
 731:.\Gesture.c   **** * Return:
 732:.\Gesture.c   **** * tGestureId - gesture ID (refer to Gestures.h for details)
 733:.\Gesture.c   **** *
 734:.\Gesture.c   **** *******************************************************************************/
 735:.\Gesture.c   **** static tGestureId Gestures_LookUpGesture(uint32 sectorHistorySum, uint32 firstRadius)
 736:.\Gesture.c   **** {
 228              		.loc 1 736 0
ARM GAS  C:\Users\JAVIER~1\AppData\Local\Temp\ccyEBIku.s 			page 18


 229              		.cfi_startproc
 230              	.LVL37:
 737:.\Gesture.c   **** 	tGestureId gesture = GESTURE_INVALID;
 738:.\Gesture.c   **** 	
 739:.\Gesture.c   **** 	/* Lookup gestures based on the unique sum term for each gesture.
 740:.\Gesture.c   **** 		The unique sum term is calculated from the last/recent three 
 741:.\Gesture.c   **** 		sector changes recorded from the time finger is active
 742:.\Gesture.c   **** 	
 743:.\Gesture.c   **** 		The following logic is applied to determine the sum and make it unique - 
 744:.\Gesture.c   **** 		1. Assign a unique prime number as weights to each sector
 745:.\Gesture.c   **** 		2. Assign a unique prime number as weights for each of the past 3 states
 746:.\Gesture.c   **** 		3. The weights should be unique for sector and past states 
 747:.\Gesture.c   **** 		4. When two unique primes are multipled and added, they provide a unique sum
 748:.\Gesture.c   **** 		5. The sector weights are multiplied with the state weight and added together 
 749:.\Gesture.c   **** 			with other sector-state product recorded (total three). This sum will be unique
 750:.\Gesture.c   **** 		6. This unique sum can then be used to identify the finger movement between sectors
 751:.\Gesture.c   **** 			with a history of three sectors */
 752:.\Gesture.c   **** 	switch(sectorHistorySum)
 231              		.loc 1 752 0
 232 0000 2223     		mov	r3, #34
 233 0002 FF33     		add	r3, r3, #255
 234 0004 9842     		cmp	r0, r3
 235 0006 31D0     		beq	.L27
 236 0008 0FD8     		bhi	.L28
 237 000a E928     		cmp	r0, #233
 238 000c 34D0     		beq	.L29
 239 000e 04D8     		bhi	.L30
 240 0010 B628     		cmp	r0, #182
 241 0012 25D0     		beq	.L31
 242 0014 CE28     		cmp	r0, #206
 243 0016 35D0     		beq	.L36
 244 0018 20E0     		b	.L26
 245              	.L30:
 246 001a 0223     		mov	r3, #2
 247 001c FF33     		add	r3, r3, #255
 248 001e 9842     		cmp	r0, r3
 249 0020 24D0     		beq	.L27
 250 0022 0F33     		add	r3, r3, #15
 251 0024 9842     		cmp	r0, r3
 252 0026 1FD0     		beq	.L33
 253 0028 18E0     		b	.L26
 254              	.L28:
 255 002a 5023     		mov	r3, #80
 256 002c FF33     		add	r3, r3, #255
 257 002e 9842     		cmp	r0, r3
 258 0030 1CD0     		beq	.L27
 259 0032 07D8     		bhi	.L34
 260 0034 1B3B     		sub	r3, r3, #27
 261 0036 9842     		cmp	r0, r3
 262 0038 14D0     		beq	.L35
 263 003a 4623     		mov	r3, #70
 264 003c FF33     		add	r3, r3, #255
 265 003e 9842     		cmp	r0, r3
 266 0040 1AD0     		beq	.L29
 267 0042 0BE0     		b	.L26
 268              	.L34:
 269 0044 6823     		mov	r3, #104
ARM GAS  C:\Users\JAVIER~1\AppData\Local\Temp\ccyEBIku.s 			page 19


 270 0046 FF33     		add	r3, r3, #255
 271 0048 9842     		cmp	r0, r3
 272 004a 15D0     		beq	.L29
 273 004c 8A23     		mov	r3, #138
 274 004e FF33     		add	r3, r3, #255
 275 0050 9842     		cmp	r0, r3
 276 0052 0BD0     		beq	.L27
 277 0054 6623     		mov	r3, #102
 278 0056 FF33     		add	r3, r3, #255
 279 0058 9842     		cmp	r0, r3
 280 005a 0DD0     		beq	.L29
 281              	.L26:
 737:.\Gesture.c   **** 	tGestureId gesture = GESTURE_INVALID;
 282              		.loc 1 737 0
 283 005c 1020     		mov	r0, #16
 284              	.LVL38:
 285 005e 1AE0     		b	.L32
 286              	.LVL39:
 287              	.L31:
 753:.\Gesture.c   **** 	{
 754:.\Gesture.c   **** 		case SECTOR_1_0_3:
 755:.\Gesture.c   **** 			gesture = GESTURE_DOWN_SWIPE;
 756:.\Gesture.c   **** 		break;
 757:.\Gesture.c   **** 		
 758:.\Gesture.c   **** 		case SECTOR_3_0_1:
 759:.\Gesture.c   **** 			gesture = GESTURE_UP_SWIPE;
 288              		.loc 1 759 0
 289 0060 0720     		mov	r0, #7
 290              	.LVL40:
 760:.\Gesture.c   **** 		break;
 291              		.loc 1 760 0
 292 0062 18E0     		b	.L32
 293              	.LVL41:
 294              	.L35:
 761:.\Gesture.c   **** 		
 762:.\Gesture.c   **** 		case SECTOR_2_0_4:
 763:.\Gesture.c   **** 			gesture = GESTURE_RIGHT_SWIPE;
 295              		.loc 1 763 0
 296 0064 0620     		mov	r0, #6
 297              	.LVL42:
 764:.\Gesture.c   **** 		break;
 298              		.loc 1 764 0
 299 0066 16E0     		b	.L32
 300              	.LVL43:
 301              	.L33:
 765:.\Gesture.c   **** 		
 766:.\Gesture.c   **** 		case SECTOR_4_0_2:
 767:.\Gesture.c   **** 			gesture = GESTURE_LEFT_SWIPE;
 302              		.loc 1 767 0
 303 0068 0520     		mov	r0, #5
 304              	.LVL44:
 768:.\Gesture.c   **** 		break;
 305              		.loc 1 768 0
 306 006a 14E0     		b	.L32
 307              	.LVL45:
 308              	.L27:
 769:.\Gesture.c   **** 		
ARM GAS  C:\Users\JAVIER~1\AppData\Local\Temp\ccyEBIku.s 			page 20


 770:.\Gesture.c   **** 		case SECTOR_1_2_3:
 771:.\Gesture.c   **** 		case SECTOR_2_3_4:
 772:.\Gesture.c   **** 		case SECTOR_3_4_1:
 773:.\Gesture.c   **** 		case SECTOR_4_1_2:
 774:.\Gesture.c   **** 			if(firstRadius != INVALID_RADIUS)
 309              		.loc 1 774 0
 310 006c FF29     		cmp	r1, #255
 311 006e 0BD0     		beq	.L37
 775:.\Gesture.c   **** 			{
 776:.\Gesture.c   **** 				if(firstRadius < 3)
 312              		.loc 1 776 0
 313 0070 0229     		cmp	r1, #2
 314 0072 0BD8     		bhi	.L38
 777:.\Gesture.c   **** 				{
 778:.\Gesture.c   **** 					gesture = GESTURE_INNER_COUNTER_CLKWISE;
 315              		.loc 1 778 0
 316 0074 0B20     		mov	r0, #11
 317              	.LVL46:
 318 0076 0EE0     		b	.L32
 319              	.LVL47:
 320              	.L29:
 779:.\Gesture.c   **** 				}
 780:.\Gesture.c   **** 				else
 781:.\Gesture.c   **** 				{
 782:.\Gesture.c   **** 					gesture = GESTURE_OUTER_COUNTER_CLKWISE;
 783:.\Gesture.c   **** 				}
 784:.\Gesture.c   **** 			}
 785:.\Gesture.c   **** 		break;
 786:.\Gesture.c   **** 		
 787:.\Gesture.c   **** 		case SECTOR_1_4_3:
 788:.\Gesture.c   **** 		case SECTOR_4_3_2:
 789:.\Gesture.c   **** 		case SECTOR_3_2_1:
 790:.\Gesture.c   **** 		case SECTOR_2_1_4:
 791:.\Gesture.c   **** 			if(firstRadius != INVALID_RADIUS)
 321              		.loc 1 791 0
 322 0078 FF29     		cmp	r1, #255
 323 007a 09D0     		beq	.L39
 792:.\Gesture.c   **** 			{
 793:.\Gesture.c   **** 				if(firstRadius < 3)
 324              		.loc 1 793 0
 325 007c 0229     		cmp	r1, #2
 326 007e 09D8     		bhi	.L40
 794:.\Gesture.c   **** 				{
 795:.\Gesture.c   **** 					gesture = GESTURE_INNER_CLKWISE;
 327              		.loc 1 795 0
 328 0080 0A20     		mov	r0, #10
 329              	.LVL48:
 330 0082 08E0     		b	.L32
 331              	.LVL49:
 332              	.L36:
 755:.\Gesture.c   **** 		break;
 333              		.loc 1 755 0
 334 0084 0820     		mov	r0, #8
 335              	.LVL50:
 336 0086 06E0     		b	.L32
 337              	.LVL51:
 338              	.L37:
ARM GAS  C:\Users\JAVIER~1\AppData\Local\Temp\ccyEBIku.s 			page 21


 737:.\Gesture.c   **** 	
 339              		.loc 1 737 0
 340 0088 1020     		mov	r0, #16
 341              	.LVL52:
 342 008a 04E0     		b	.L32
 343              	.LVL53:
 344              	.L38:
 782:.\Gesture.c   **** 				}
 345              		.loc 1 782 0
 346 008c 0D20     		mov	r0, #13
 347              	.LVL54:
 348 008e 02E0     		b	.L32
 349              	.LVL55:
 350              	.L39:
 737:.\Gesture.c   **** 	
 351              		.loc 1 737 0
 352 0090 1020     		mov	r0, #16
 353              	.LVL56:
 354 0092 00E0     		b	.L32
 355              	.LVL57:
 356              	.L40:
 796:.\Gesture.c   **** 				}
 797:.\Gesture.c   **** 				else
 798:.\Gesture.c   **** 				{
 799:.\Gesture.c   **** 					gesture = GESTURE_OUTER_CLKWISE;
 357              		.loc 1 799 0
 358 0094 0C20     		mov	r0, #12
 359              	.LVL58:
 360              	.L32:
 800:.\Gesture.c   **** 				}
 801:.\Gesture.c   **** 			}
 802:.\Gesture.c   **** 		break;
 803:.\Gesture.c   **** 		
 804:.\Gesture.c   **** 		default:
 805:.\Gesture.c   **** 		break;		
 806:.\Gesture.c   **** 	}
 807:.\Gesture.c   **** 	
 808:.\Gesture.c   **** 	return gesture;
 809:.\Gesture.c   **** }
 361              		.loc 1 809 0
 362              		@ sp needed
 363 0096 7047     		bx	lr
 364              		.cfi_endproc
 365              	.LFE45:
 366              		.size	Gestures_LookUpGesture, .-Gestures_LookUpGesture
 367              		.section	.text.Gestures_ValidateButtons,"ax",%progbits
 368              		.align	2
 369              		.code	16
 370              		.thumb_func
 371              		.type	Gestures_ValidateButtons, %function
 372              	Gestures_ValidateButtons:
 373              	.LFB37:
 240:.\Gesture.c   **** 	static uint32 prevButtonStatus;
 374              		.loc 1 240 0
 375              		.cfi_startproc
 376              	.LVL59:
 377 0000 70B5     		push	{r4, r5, r6, lr}
ARM GAS  C:\Users\JAVIER~1\AppData\Local\Temp\ccyEBIku.s 			page 22


 378              		.cfi_def_cfa_offset 16
 379              		.cfi_offset 4, -16
 380              		.cfi_offset 5, -12
 381              		.cfi_offset 6, -8
 382              		.cfi_offset 14, -4
 383 0002 041C     		mov	r4, r0
 384 0004 0D1C     		mov	r5, r1
 245:.\Gesture.c   **** 	{
 385              		.loc 1 245 0
 386 0006 3023     		mov	r3, #48
 387 0008 0340     		and	r3, r0
 388 000a 302B     		cmp	r3, #48
 389 000c 01D1     		bne	.L42
 247:.\Gesture.c   **** 	}
 390              		.loc 1 247 0
 391 000e 203B     		sub	r3, r3, #32
 392 0010 9C43     		bic	r4, r3
 393              	.LVL60:
 394              	.L42:
 252:.\Gesture.c   **** 	{
 395              		.loc 1 252 0
 396 0012 0323     		mov	r3, #3
 397 0014 2340     		and	r3, r4
 398 0016 032B     		cmp	r3, #3
 399 0018 32D1     		bne	.L43
 256:.\Gesture.c   **** 		{
 400              		.loc 1 256 0
 401 001a A306     		lsl	r3, r4, #26
 402 001c 12D5     		bpl	.L44
 258:.\Gesture.c   **** 			/* Clear Right button mask if slider sector is left */
 403              		.loc 1 258 0
 404 001e 0623     		mov	r3, #6
 405 0020 2B40     		and	r3, r5
 406 0022 042B     		cmp	r3, #4
 407 0024 02D1     		bne	.L45
 261:.\Gesture.c   **** 			}
 408              		.loc 1 261 0
 409 0026 023B     		sub	r3, r3, #2
 410 0028 9C43     		bic	r4, r3
 411              	.LVL61:
 412 002a 29E0     		b	.L43
 413              	.L45:
 263:.\Gesture.c   **** 			/* Clear Left button mask if slider sector is Right */
 414              		.loc 1 263 0
 415 002c 002B     		cmp	r3, #0
 416 002e 02D1     		bne	.L46
 266:.\Gesture.c   **** 			}
 417              		.loc 1 266 0
 418 0030 0133     		add	r3, r3, #1
 419 0032 9C43     		bic	r4, r3
 420              	.LVL62:
 421 0034 24E0     		b	.L43
 422              	.L46:
 271:.\Gesture.c   **** 				buttonStatus |= prevButtonStatus & (LEFT_BTN_MASK | RIGHT_BTN_MASK);
 423              		.loc 1 271 0
 424 0036 0323     		mov	r3, #3
 425 0038 9C43     		bic	r4, r3
ARM GAS  C:\Users\JAVIER~1\AppData\Local\Temp\ccyEBIku.s 			page 23


 426              	.LVL63:
 272:.\Gesture.c   **** 			}
 427              		.loc 1 272 0
 428 003a 2F4A     		ldr	r2, .L55
 429 003c 1268     		ldr	r2, [r2]
 430 003e 1340     		and	r3, r2
 431 0040 1C43     		orr	r4, r3
 432              	.LVL64:
 433 0042 1DE0     		b	.L43
 434              	.L44:
 278:.\Gesture.c   **** 			{
 435              		.loc 1 278 0
 436 0044 0020     		mov	r0, #0
 437 0046 FFF7FEFF 		bl	CapSense_GetDiffCountData
 438              	.LVL65:
 439 004a 061C     		mov	r6, r0
 440 004c 0120     		mov	r0, #1
 441 004e FFF7FEFF 		bl	CapSense_GetDiffCountData
 442              	.LVL66:
 443 0052 8642     		cmp	r6, r0
 444 0054 02D9     		bls	.L47
 280:.\Gesture.c   **** 			}
 445              		.loc 1 280 0
 446 0056 0223     		mov	r3, #2
 447 0058 9C43     		bic	r4, r3
 448              	.LVL67:
 449 005a 11E0     		b	.L43
 450              	.L47:
 282:.\Gesture.c   **** 			{
 451              		.loc 1 282 0
 452 005c 0020     		mov	r0, #0
 453 005e FFF7FEFF 		bl	CapSense_GetDiffCountData
 454              	.LVL68:
 455 0062 061C     		mov	r6, r0
 456 0064 0120     		mov	r0, #1
 457 0066 FFF7FEFF 		bl	CapSense_GetDiffCountData
 458              	.LVL69:
 459 006a 8642     		cmp	r6, r0
 460 006c 02D2     		bcs	.L48
 284:.\Gesture.c   **** 			}
 461              		.loc 1 284 0
 462 006e 0123     		mov	r3, #1
 463 0070 9C43     		bic	r4, r3
 464              	.LVL70:
 465 0072 05E0     		b	.L43
 466              	.L48:
 288:.\Gesture.c   **** 				buttonStatus |= prevButtonStatus & (LEFT_BTN_MASK | RIGHT_BTN_MASK);
 467              		.loc 1 288 0
 468 0074 0323     		mov	r3, #3
 469 0076 9C43     		bic	r4, r3
 470              	.LVL71:
 289:.\Gesture.c   **** 			}
 471              		.loc 1 289 0
 472 0078 1F4A     		ldr	r2, .L55
 473 007a 1268     		ldr	r2, [r2]
 474 007c 1340     		and	r3, r2
 475 007e 1C43     		orr	r4, r3
ARM GAS  C:\Users\JAVIER~1\AppData\Local\Temp\ccyEBIku.s 			page 24


 476              	.LVL72:
 477              	.L43:
 295:.\Gesture.c   **** 	{
 478              		.loc 1 295 0
 479 0080 0C23     		mov	r3, #12
 480 0082 2340     		and	r3, r4
 481 0084 0C2B     		cmp	r3, #12
 482 0086 32D1     		bne	.L49
 297:.\Gesture.c   **** 		{
 483              		.loc 1 297 0
 484 0088 A306     		lsl	r3, r4, #26
 485 008a 12D5     		bpl	.L50
 299:.\Gesture.c   **** 			{
 486              		.loc 1 299 0
 487 008c 0623     		mov	r3, #6
 488 008e 1D40     		and	r5, r3
 489              	.LVL73:
 490 0090 062D     		cmp	r5, #6
 491 0092 02D1     		bne	.L51
 301:.\Gesture.c   **** 			}
 492              		.loc 1 301 0
 493 0094 0233     		add	r3, r3, #2
 494 0096 9C43     		bic	r4, r3
 495              	.LVL74:
 496 0098 29E0     		b	.L49
 497              	.L51:
 303:.\Gesture.c   **** 			{
 498              		.loc 1 303 0
 499 009a 022D     		cmp	r5, #2
 500 009c 02D1     		bne	.L52
 305:.\Gesture.c   **** 			}
 501              		.loc 1 305 0
 502 009e 0423     		mov	r3, #4
 503 00a0 9C43     		bic	r4, r3
 504              	.LVL75:
 505 00a2 24E0     		b	.L49
 506              	.L52:
 309:.\Gesture.c   **** 				buttonStatus |= prevButtonStatus & (UP_BTN_MASK | DOWN_BTN_MASK);
 507              		.loc 1 309 0
 508 00a4 0C23     		mov	r3, #12
 509 00a6 9C43     		bic	r4, r3
 510              	.LVL76:
 310:.\Gesture.c   **** 			}
 511              		.loc 1 310 0
 512 00a8 134A     		ldr	r2, .L55
 513 00aa 1268     		ldr	r2, [r2]
 514 00ac 1340     		and	r3, r2
 515 00ae 1C43     		orr	r4, r3
 516              	.LVL77:
 517 00b0 1DE0     		b	.L49
 518              	.LVL78:
 519              	.L50:
 315:.\Gesture.c   **** 			{
 520              		.loc 1 315 0
 521 00b2 0220     		mov	r0, #2
 522 00b4 FFF7FEFF 		bl	CapSense_GetDiffCountData
 523              	.LVL79:
ARM GAS  C:\Users\JAVIER~1\AppData\Local\Temp\ccyEBIku.s 			page 25


 524 00b8 051C     		mov	r5, r0
 525              	.LVL80:
 526 00ba 0320     		mov	r0, #3
 527 00bc FFF7FEFF 		bl	CapSense_GetDiffCountData
 528              	.LVL81:
 529 00c0 8542     		cmp	r5, r0
 530 00c2 02D9     		bls	.L53
 317:.\Gesture.c   **** 			}
 531              		.loc 1 317 0
 532 00c4 0823     		mov	r3, #8
 533 00c6 9C43     		bic	r4, r3
 534              	.LVL82:
 535 00c8 11E0     		b	.L49
 536              	.L53:
 319:.\Gesture.c   **** 			{
 537              		.loc 1 319 0
 538 00ca 0220     		mov	r0, #2
 539 00cc FFF7FEFF 		bl	CapSense_GetDiffCountData
 540              	.LVL83:
 541 00d0 051C     		mov	r5, r0
 542 00d2 0320     		mov	r0, #3
 543 00d4 FFF7FEFF 		bl	CapSense_GetDiffCountData
 544              	.LVL84:
 545 00d8 8542     		cmp	r5, r0
 546 00da 02D2     		bcs	.L54
 321:.\Gesture.c   **** 			}
 547              		.loc 1 321 0
 548 00dc 0423     		mov	r3, #4
 549 00de 9C43     		bic	r4, r3
 550              	.LVL85:
 551 00e0 05E0     		b	.L49
 552              	.L54:
 325:.\Gesture.c   **** 				buttonStatus |= prevButtonStatus & (UP_BTN_MASK | DOWN_BTN_MASK);
 553              		.loc 1 325 0
 554 00e2 0C23     		mov	r3, #12
 555 00e4 9C43     		bic	r4, r3
 556              	.LVL86:
 326:.\Gesture.c   **** 			}
 557              		.loc 1 326 0
 558 00e6 044A     		ldr	r2, .L55
 559 00e8 1268     		ldr	r2, [r2]
 560 00ea 1340     		and	r3, r2
 561 00ec 1C43     		orr	r4, r3
 562              	.LVL87:
 563              	.L49:
 332:.\Gesture.c   **** 	
 564              		.loc 1 332 0
 565 00ee 024B     		ldr	r3, .L55
 566 00f0 1C60     		str	r4, [r3]
 336:.\Gesture.c   **** 
 567              		.loc 1 336 0
 568 00f2 201C     		mov	r0, r4
 569              		@ sp needed
 570              	.LVL88:
 571 00f4 70BD     		pop	{r4, r5, r6, pc}
 572              	.L56:
 573 00f6 C046     		.align	2
ARM GAS  C:\Users\JAVIER~1\AppData\Local\Temp\ccyEBIku.s 			page 26


 574              	.L55:
 575 00f8 00000000 		.word	.LANCHOR0
 576              		.cfi_endproc
 577              	.LFE37:
 578              		.size	Gestures_ValidateButtons, .-Gestures_ValidateButtons
 579              		.section	.text.GetSinTheta,"ax",%progbits
 580              		.align	2
 581              		.global	GetSinTheta
 582              		.code	16
 583              		.thumb_func
 584              		.type	GetSinTheta, %function
 585              	GetSinTheta:
 586              	.LFB40:
 509:.\Gesture.c   **** 	int32 sinTheta = INVALID_SINE;
 587              		.loc 1 509 0
 588              		.cfi_startproc
 589              	.LVL89:
 513:.\Gesture.c   **** 	{
 590              		.loc 1 513 0
 591 0000 FA28     		cmp	r0, #250
 592 0002 1BD0     		beq	.L62
 517:.\Gesture.c   **** 		{			
 593              		.loc 1 517 0
 594 0004 0028     		cmp	r0, #0
 595 0006 0DDA     		bge	.L59
 519:.\Gesture.c   **** 			
 596              		.loc 1 519 0
 597 0008 4342     		neg	r3, r0
 598              	.LVL90:
 522:.\Gesture.c   **** 			{
 599              		.loc 1 522 0
 600 000a 2D2B     		cmp	r3, #45
 601 000c 05DD     		ble	.L60
 524:.\Gesture.c   **** 			}
 602              		.loc 1 524 0
 603 000e 5A30     		add	r0, r0, #90
 604 0010 4000     		lsl	r0, r0, #1
 605 0012 0C4B     		ldr	r3, .L63
 606              	.LVL91:
 607 0014 185E     		ldrsh	r0, [r3, r0]
 608 0016 4042     		neg	r0, r0
 609              	.LVL92:
 610 0018 12E0     		b	.L58
 611              	.LVL93:
 612              	.L60:
 528:.\Gesture.c   **** 			}
 613              		.loc 1 528 0
 614 001a 5B00     		lsl	r3, r3, #1
 615              	.LVL94:
 616 001c 094A     		ldr	r2, .L63
 617 001e D05E     		ldrsh	r0, [r2, r3]
 618              	.LVL95:
 619 0020 4042     		neg	r0, r0
 620              	.LVL96:
 621 0022 0DE0     		b	.L58
 622              	.LVL97:
 623              	.L59:
ARM GAS  C:\Users\JAVIER~1\AppData\Local\Temp\ccyEBIku.s 			page 27


 534:.\Gesture.c   **** 			{
 624              		.loc 1 534 0
 625 0024 2D28     		cmp	r0, #45
 626 0026 05DD     		ble	.L61
 536:.\Gesture.c   **** 			}
 627              		.loc 1 536 0
 628 0028 5A23     		mov	r3, #90
 629 002a 181A     		sub	r0, r3, r0
 630              	.LVL98:
 631 002c 4000     		lsl	r0, r0, #1
 632 002e 054B     		ldr	r3, .L63
 633 0030 185E     		ldrsh	r0, [r3, r0]
 634              	.LVL99:
 635 0032 05E0     		b	.L58
 636              	.LVL100:
 637              	.L61:
 540:.\Gesture.c   **** 			}
 638              		.loc 1 540 0
 639 0034 4000     		lsl	r0, r0, #1
 640              	.LVL101:
 641 0036 034B     		ldr	r3, .L63
 642 0038 185E     		ldrsh	r0, [r3, r0]
 643              	.LVL102:
 644 003a 01E0     		b	.L58
 645              	.LVL103:
 646              	.L62:
 510:.\Gesture.c   **** 	
 647              		.loc 1 510 0
 648 003c FA20     		mov	r0, #250
 649              	.LVL104:
 650 003e 8000     		lsl	r0, r0, #2
 651              	.LVL105:
 652              	.L58:
 547:.\Gesture.c   **** 
 653              		.loc 1 547 0
 654              		@ sp needed
 655 0040 7047     		bx	lr
 656              	.L64:
 657 0042 C046     		.align	2
 658              	.L63:
 659 0044 4C000000 		.word	.LANCHOR1
 660              		.cfi_endproc
 661              	.LFE40:
 662              		.size	GetSinTheta, .-GetSinTheta
 663              		.section	.text.GetCosTheta,"ax",%progbits
 664              		.align	2
 665              		.global	GetCosTheta
 666              		.code	16
 667              		.thumb_func
 668              		.type	GetCosTheta, %function
 669              	GetCosTheta:
 670              	.LFB41:
 565:.\Gesture.c   **** 	int32 cosTheta = INVALID_SINE;
 671              		.loc 1 565 0
 672              		.cfi_startproc
 673              	.LVL106:
 569:.\Gesture.c   **** 	{
ARM GAS  C:\Users\JAVIER~1\AppData\Local\Temp\ccyEBIku.s 			page 28


 674              		.loc 1 569 0
 675 0000 FA28     		cmp	r0, #250
 676 0002 10D0     		beq	.L69
 575:.\Gesture.c   **** 		{
 677              		.loc 1 575 0
 678 0004 0028     		cmp	r0, #0
 679 0006 00DA     		bge	.L67
 577:.\Gesture.c   **** 		}
 680              		.loc 1 577 0
 681 0008 4042     		neg	r0, r0
 682              	.LVL107:
 683              	.L67:
 580:.\Gesture.c   **** 		{
 684              		.loc 1 580 0
 685 000a 2D28     		cmp	r0, #45
 686 000c 05DD     		ble	.L68
 582:.\Gesture.c   **** 		}
 687              		.loc 1 582 0
 688 000e 2D38     		sub	r0, r0, #45
 689              	.LVL108:
 690 0010 4000     		lsl	r0, r0, #1
 691              	.LVL109:
 692 0012 064B     		ldr	r3, .L70
 693 0014 185E     		ldrsh	r0, [r3, r0]
 694 0016 4042     		neg	r0, r0
 695              	.LVL110:
 696 0018 07E0     		b	.L66
 697              	.LVL111:
 698              	.L68:
 586:.\Gesture.c   **** 		}
 699              		.loc 1 586 0
 700 001a 2D23     		mov	r3, #45
 701 001c 181A     		sub	r0, r3, r0
 702              	.LVL112:
 703 001e 4000     		lsl	r0, r0, #1
 704 0020 024B     		ldr	r3, .L70
 705 0022 185E     		ldrsh	r0, [r3, r0]
 706              	.LVL113:
 707 0024 01E0     		b	.L66
 708              	.LVL114:
 709              	.L69:
 566:.\Gesture.c   **** 	
 710              		.loc 1 566 0
 711 0026 FA20     		mov	r0, #250
 712              	.LVL115:
 713 0028 8000     		lsl	r0, r0, #2
 714              	.LVL116:
 715              	.L66:
 591:.\Gesture.c   **** 
 716              		.loc 1 591 0
 717              		@ sp needed
 718 002a 7047     		bx	lr
 719              	.L71:
 720              		.align	2
 721              	.L70:
 722 002c 4C000000 		.word	.LANCHOR1
 723              		.cfi_endproc
ARM GAS  C:\Users\JAVIER~1\AppData\Local\Temp\ccyEBIku.s 			page 29


 724              	.LFE41:
 725              		.size	GetCosTheta, .-GetCosTheta
 726              		.section	.text.Gestures_CalculateX,"ax",%progbits
 727              		.align	2
 728              		.global	Gestures_CalculateX
 729              		.code	16
 730              		.thumb_func
 731              		.type	Gestures_CalculateX, %function
 732              	Gestures_CalculateX:
 733              	.LFB42:
 610:.\Gesture.c   **** 	int32 x;
 734              		.loc 1 610 0
 735              		.cfi_startproc
 736              	.LVL117:
 737 0000 10B5     		push	{r4, lr}
 738              		.cfi_def_cfa_offset 8
 739              		.cfi_offset 4, -8
 740              		.cfi_offset 14, -4
 741 0002 041C     		mov	r4, r0
 614:.\Gesture.c   **** 	
 742              		.loc 1 614 0
 743 0004 081C     		mov	r0, r1
 744              	.LVL118:
 745 0006 1630     		add	r0, r0, #22
 746              	.LVL119:
 617:.\Gesture.c   **** 	{
 747              		.loc 1 617 0
 748 0008 5A28     		cmp	r0, #90
 749 000a 01DD     		ble	.L73
 620:.\Gesture.c   **** 	}
 750              		.loc 1 620 0
 751 000c 9E39     		sub	r1, r1, #158
 752 000e 081C     		mov	r0, r1
 753              	.LVL120:
 754              	.L73:
 626:.\Gesture.c   **** 
 755              		.loc 1 626 0
 756 0010 FFF7FEFF 		bl	GetCosTheta
 757              	.LVL121:
 758 0014 6043     		mul	r0, r4
 759 0016 8000     		lsl	r0, r0, #2
 760 0018 0012     		asr	r0, r0, #8
 761              	.LVL122:
 630:.\Gesture.c   **** 
 762              		.loc 1 630 0
 763              		@ sp needed
 764              	.LVL123:
 765 001a 10BD     		pop	{r4, pc}
 766              		.cfi_endproc
 767              	.LFE42:
 768              		.size	Gestures_CalculateX, .-Gestures_CalculateX
 769              		.section	.text.Gestures_CalculateY,"ax",%progbits
 770              		.align	2
 771              		.global	Gestures_CalculateY
 772              		.code	16
 773              		.thumb_func
 774              		.type	Gestures_CalculateY, %function
ARM GAS  C:\Users\JAVIER~1\AppData\Local\Temp\ccyEBIku.s 			page 30


 775              	Gestures_CalculateY:
 776              	.LFB43:
 649:.\Gesture.c   **** 	int32 y;
 777              		.loc 1 649 0
 778              		.cfi_startproc
 779              	.LVL124:
 780 0000 10B5     		push	{r4, lr}
 781              		.cfi_def_cfa_offset 8
 782              		.cfi_offset 4, -8
 783              		.cfi_offset 14, -4
 784 0002 041C     		mov	r4, r0
 652:.\Gesture.c   **** 	
 785              		.loc 1 652 0
 786 0004 081C     		mov	r0, r1
 787              	.LVL125:
 788 0006 1630     		add	r0, r0, #22
 789              	.LVL126:
 654:.\Gesture.c   **** 	{
 790              		.loc 1 654 0
 791 0008 5A28     		cmp	r0, #90
 792 000a 01DD     		ble	.L75
 656:.\Gesture.c   **** 	}
 793              		.loc 1 656 0
 794 000c 9E39     		sub	r1, r1, #158
 795 000e 081C     		mov	r0, r1
 796              	.LVL127:
 797              	.L75:
 662:.\Gesture.c   **** 	
 798              		.loc 1 662 0
 799 0010 FFF7FEFF 		bl	GetSinTheta
 800              	.LVL128:
 801 0014 6043     		mul	r0, r4
 802 0016 8000     		lsl	r0, r0, #2
 803 0018 0012     		asr	r0, r0, #8
 804              	.LVL129:
 665:.\Gesture.c   **** 
 805              		.loc 1 665 0
 806              		@ sp needed
 807              	.LVL130:
 808 001a 10BD     		pop	{r4, pc}
 809              		.cfi_endproc
 810              	.LFE43:
 811              		.size	Gestures_CalculateY, .-Gestures_CalculateY
 812              		.global	__aeabi_idiv
 813              		.section	.text.Gestures_GetSector,"ax",%progbits
 814              		.align	2
 815              		.global	Gestures_GetSector
 816              		.code	16
 817              		.thumb_func
 818              		.type	Gestures_GetSector, %function
 819              	Gestures_GetSector:
 820              	.LFB44:
 690:.\Gesture.c   **** 	uint32 sector = INVALID_SECTOR;
 821              		.loc 1 690 0
 822              		.cfi_startproc
 823              	.LVL131:
 824 0000 08B5     		push	{r3, lr}
ARM GAS  C:\Users\JAVIER~1\AppData\Local\Temp\ccyEBIku.s 			page 31


 825              		.cfi_def_cfa_offset 8
 826              		.cfi_offset 3, -8
 827              		.cfi_offset 14, -4
 828              	.LVL132:
 694:.\Gesture.c   **** 	{
 829              		.loc 1 694 0
 830 0002 FA29     		cmp	r1, #250
 831 0004 0DD0     		beq	.L79
 697:.\Gesture.c   **** 		{
 832              		.loc 1 697 0
 833 0006 0028     		cmp	r0, #0
 834 0008 0DD0     		beq	.L80
 835 000a 081E     		sub	r0, r1, #0
 836              	.LVL133:
 704:.\Gesture.c   **** 			{
 837              		.loc 1 704 0
 838 000c 04DB     		blt	.L78
 706:.\Gesture.c   **** 			}
 839              		.loc 1 706 0
 840 000e 2D21     		mov	r1, #45
 841              	.LVL134:
 842 0010 FFF7FEFF 		bl	__aeabi_idiv
 843              	.LVL135:
 844 0014 0130     		add	r0, r0, #1
 845              	.LVL136:
 846 0016 07E0     		b	.L77
 847              	.LVL137:
 848              	.L78:
 710:.\Gesture.c   **** 			}			
 849              		.loc 1 710 0
 850 0018 2D21     		mov	r1, #45
 851 001a FFF7FEFF 		bl	__aeabi_idiv
 852              	.LVL138:
 853 001e 0430     		add	r0, r0, #4
 854              	.LVL139:
 855 0020 02E0     		b	.L77
 856              	.LVL140:
 857              	.L79:
 691:.\Gesture.c   **** 	
 858              		.loc 1 691 0
 859 0022 FF20     		mov	r0, #255
 860              	.LVL141:
 861 0024 00E0     		b	.L77
 862              	.LVL142:
 863              	.L80:
 699:.\Gesture.c   **** 		}
 864              		.loc 1 699 0
 865 0026 0020     		mov	r0, #0
 866              	.LVL143:
 867              	.L77:
 716:.\Gesture.c   **** 
 868              		.loc 1 716 0
 869              		@ sp needed
 870 0028 08BD     		pop	{r3, pc}
 871              		.cfi_endproc
 872              	.LFE44:
 873              		.size	Gestures_GetSector, .-Gestures_GetSector
ARM GAS  C:\Users\JAVIER~1\AppData\Local\Temp\ccyEBIku.s 			page 32


 874 002a C046     		.section	.text.Gestures_Process,"ax",%progbits
 875              		.align	2
 876              		.code	16
 877              		.thumb_func
 878              		.type	Gestures_Process, %function
 879              	Gestures_Process:
 880              	.LFB46:
 810:.\Gesture.c   **** 
 811:.\Gesture.c   **** /*******************************************************************************
 812:.\Gesture.c   **** * Function Name: Gestures_Process
 813:.\Gesture.c   **** ********************************************************************************
 814:.\Gesture.c   **** *
 815:.\Gesture.c   **** * Summary:
 816:.\Gesture.c   **** * This function processes the current activity on Gesture Pad and returns the
 817:.\Gesture.c   **** *	gesture detected
 818:.\Gesture.c   **** *
 819:.\Gesture.c   **** * Parameters:
 820:.\Gesture.c   **** * radius - Polar coordinate radius  (0 to 4)
 821:.\Gesture.c   **** * theta - Polar coordinate theta (-90 to 90);
 822:.\Gesture.c   **** *			1 count = 2 degrees;
 823:.\Gesture.c   **** *
 824:.\Gesture.c   **** * Return:
 825:.\Gesture.c   **** * tGestureId - gesture ID (refer to Gestures.h for details)
 826:.\Gesture.c   **** *
 827:.\Gesture.c   **** *******************************************************************************/
 828:.\Gesture.c   **** tGestureId Gestures_Process(uint32 radius, int32 theta)
 829:.\Gesture.c   **** {
 881              		.loc 1 829 0
 882              		.cfi_startproc
 883              	.LVL144:
 884 0000 F8B5     		push	{r3, r4, r5, r6, r7, lr}
 885              		.cfi_def_cfa_offset 24
 886              		.cfi_offset 3, -24
 887              		.cfi_offset 4, -20
 888              		.cfi_offset 5, -16
 889              		.cfi_offset 6, -12
 890              		.cfi_offset 7, -8
 891              		.cfi_offset 14, -4
 892 0002 051C     		mov	r5, r0
 893 0004 0C1C     		mov	r4, r1
 894              	.LVL145:
 830:.\Gesture.c   **** 	tGestureId gesture = GESTURE_NONE;
 831:.\Gesture.c   **** 	static tGestureId stickyGesture = GESTURE_NONE;
 832:.\Gesture.c   **** 	static uint32 tapCounter, firstRadius, prevRadius;
 833:.\Gesture.c   **** 	static int32 firstTheta, prevTheta;
 834:.\Gesture.c   **** 	static uint32 processState = GESTURE_STATE_IDLE, debounceCounter;
 835:.\Gesture.c   **** 	static uint32 Gesture_sectorHistory[3] = {INVALID_SECTOR, INVALID_SECTOR, INVALID_SECTOR};
 836:.\Gesture.c   **** 	
 837:.\Gesture.c   **** 	int32 radiusChange, thetaChange;
 838:.\Gesture.c   **** 	uint32 sector, sectorHistorySum;
 839:.\Gesture.c   **** 	
 840:.\Gesture.c   **** 	/* Run the gesture recognition */
 841:.\Gesture.c   **** 	switch(processState)
 895              		.loc 1 841 0
 896 0006 C84B     		ldr	r3, .L126
 897 0008 1A68     		ldr	r2, [r3]
 898 000a 072A     		cmp	r2, #7
ARM GAS  C:\Users\JAVIER~1\AppData\Local\Temp\ccyEBIku.s 			page 33


 899 000c 00D9     		bls	.LCB955
 900 000e 83E1     		b	.L120	@long jump
 901              	.LCB955:
 902 0010 9300     		lsl	r3, r2, #2
 903 0012 C64A     		ldr	r2, .L126+4
 904 0014 D358     		ldr	r3, [r2, r3]
 905 0016 9F46     		mov	pc, r3
 906              		.section	.rodata
 907              		.align	2
 908              	.L84:
 909 002c 18030000 		.word	.L120
 910 0030 18000000 		.word	.L83
 911 0034 34000000 		.word	.L85
 912 0038 B6000000 		.word	.L86
 913 003c 3C010000 		.word	.L87
 914 0040 F6010000 		.word	.L88
 915 0044 B8020000 		.word	.L89
 916 0048 EA020000 		.word	.L90
 917              		.section	.text.Gestures_Process
 918              	.L83:
 842:.\Gesture.c   **** 	{
 843:.\Gesture.c   **** 		/* Stay in IDLE state if no finger is present or theta is invalid */
 844:.\Gesture.c   **** 		case GESTURE_STATE_IDLE:
 845:.\Gesture.c   **** 			if(theta != INVALID_ANGLE)
 919              		.loc 1 845 0
 920 0018 FA29     		cmp	r1, #250
 921 001a 00D1     		bne	.LCB968
 922 001c 7EE1     		b	.L121	@long jump
 923              	.LCB968:
 846:.\Gesture.c   **** 			{
 847:.\Gesture.c   **** 				/* Store the first radius, theta and sector details, when first valid theta is detected ==> fin
 848:.\Gesture.c   **** 				firstRadius = radius;
 924              		.loc 1 848 0
 925 001e C44B     		ldr	r3, .L126+8
 926 0020 5860     		str	r0, [r3, #4]
 849:.\Gesture.c   **** 				firstTheta = theta;				
 927              		.loc 1 849 0
 928 0022 9960     		str	r1, [r3, #8]
 850:.\Gesture.c   **** 				Gesture_sectorHistory[FIRST_SECTOR_INDEX] = Gestures_GetSector(radius, theta);
 929              		.loc 1 850 0
 930 0024 FFF7FEFF 		bl	Gestures_GetSector
 931              	.LVL146:
 932 0028 BF4B     		ldr	r3, .L126
 933 002a 5860     		str	r0, [r3, #4]
 851:.\Gesture.c   **** 				
 852:.\Gesture.c   **** 				/* Move the state to 1st sector process */
 853:.\Gesture.c   **** 				processState = GESTURE_STATE_1ST_SECTOR;
 934              		.loc 1 853 0
 935 002c 0222     		mov	r2, #2
 936 002e 1A60     		str	r2, [r3]
 830:.\Gesture.c   **** 	static tGestureId stickyGesture = GESTURE_NONE;
 937              		.loc 1 830 0
 938 0030 0020     		mov	r0, #0
 939 0032 88E1     		b	.L82
 940              	.LVL147:
 941              	.L85:
 854:.\Gesture.c   **** 			}
ARM GAS  C:\Users\JAVIER~1\AppData\Local\Temp\ccyEBIku.s 			page 34


 855:.\Gesture.c   **** 		break;
 856:.\Gesture.c   **** 		
 857:.\Gesture.c   **** 			/* 1st sector process - Buttons are processed in this state */
 858:.\Gesture.c   **** 		case GESTURE_STATE_1ST_SECTOR:
 859:.\Gesture.c   **** 			/* Check for valid theta */			
 860:.\Gesture.c   **** 			if(theta != INVALID_ANGLE)
 942              		.loc 1 860 0
 943 0034 FA29     		cmp	r1, #250
 944 0036 2ED0     		beq	.L91
 861:.\Gesture.c   **** 			{
 862:.\Gesture.c   **** 				/* If tap counter has crossed the long press time, report the button active status */
 863:.\Gesture.c   **** 				if(tapCounter > (TAP_TIME_1_SEC*10))
 945              		.loc 1 863 0
 946 0038 BD4B     		ldr	r3, .L126+8
 947 003a DB68     		ldr	r3, [r3, #12]
 948 003c FA22     		mov	r2, #250
 949 003e 9200     		lsl	r2, r2, #2
 950 0040 9342     		cmp	r3, r2
 951 0042 07D9     		bls	.L92
 864:.\Gesture.c   **** 				{
 865:.\Gesture.c   **** 					capsenseButtonStatus = sectorToButtonLookup[Gesture_sectorHistory[FIRST_SECTOR_INDEX]];
 952              		.loc 1 865 0
 953 0044 B84B     		ldr	r3, .L126
 954 0046 5B68     		ldr	r3, [r3, #4]
 955 0048 9B00     		lsl	r3, r3, #2
 956 004a BA4A     		ldr	r2, .L126+12
 957 004c 9A58     		ldr	r2, [r3, r2]
 958 004e BA4B     		ldr	r3, .L126+16
 959 0050 1A60     		str	r2, [r3]
 960 0052 02E0     		b	.L93
 961              	.L92:
 866:.\Gesture.c   **** 				}
 867:.\Gesture.c   **** 				else
 868:.\Gesture.c   **** 				{
 869:.\Gesture.c   **** 					tapCounter++;
 962              		.loc 1 869 0
 963 0054 0133     		add	r3, r3, #1
 964 0056 B64A     		ldr	r2, .L126+8
 965 0058 D360     		str	r3, [r2, #12]
 966              	.L93:
 870:.\Gesture.c   **** 				}
 871:.\Gesture.c   **** 				
 872:.\Gesture.c   **** 				/* Monitor the radius and theta change from first touch, if either of them change by a predefin
 873:.\Gesture.c   **** 					Move to 1st sector moved state as this state processes buttons */
 874:.\Gesture.c   **** 				radiusChange = firstRadius - radius;
 967              		.loc 1 874 0
 968 005a B54B     		ldr	r3, .L126+8
 969 005c 5A68     		ldr	r2, [r3, #4]
 970 005e 521B     		sub	r2, r2, r5
 971              	.LVL148:
 875:.\Gesture.c   **** 				if(radiusChange < 0)
 972              		.loc 1 875 0
 973 0060 00D5     		bpl	.L94
 876:.\Gesture.c   **** 				{
 877:.\Gesture.c   **** 					radiusChange = -radiusChange;
 974              		.loc 1 877 0
 975 0062 5242     		neg	r2, r2
ARM GAS  C:\Users\JAVIER~1\AppData\Local\Temp\ccyEBIku.s 			page 35


 976              	.LVL149:
 977              	.L94:
 878:.\Gesture.c   **** 				}
 879:.\Gesture.c   **** 				
 880:.\Gesture.c   **** 				thetaChange = firstTheta - theta;
 978              		.loc 1 880 0
 979 0064 B24B     		ldr	r3, .L126+8
 980 0066 9B68     		ldr	r3, [r3, #8]
 981 0068 1B1B     		sub	r3, r3, r4
 982              	.LVL150:
 881:.\Gesture.c   **** 				if(thetaChange < 0)
 983              		.loc 1 881 0
 984 006a 00D5     		bpl	.L95
 882:.\Gesture.c   **** 				{
 883:.\Gesture.c   **** 					thetaChange = -thetaChange;
 985              		.loc 1 883 0
 986 006c 5B42     		neg	r3, r3
 987              	.LVL151:
 988              	.L95:
 884:.\Gesture.c   **** 				}
 885:.\Gesture.c   **** 				
 886:.\Gesture.c   **** 				if((thetaChange >= THETA_CHANGE_THRESHOLD) || (radiusChange >= RADIUS_CHANGE_THRESHOLD))
 989              		.loc 1 886 0
 990 006e 152B     		cmp	r3, #21
 991 0070 01DC     		bgt	.L96
 992              		.loc 1 886 0 is_stmt 0 discriminator 1
 993 0072 012A     		cmp	r2, #1
 994 0074 05DD     		ble	.L97
 995              	.L96:
 887:.\Gesture.c   **** 				{
 888:.\Gesture.c   **** 					processState = GESTURE_STATE_1ST_SECTOR_MOVED;
 996              		.loc 1 888 0 is_stmt 1
 997 0076 0322     		mov	r2, #3
 998              	.LVL152:
 999 0078 AB4B     		ldr	r3, .L126
 1000              	.LVL153:
 1001 007a 1A60     		str	r2, [r3]
 889:.\Gesture.c   **** 					tapCounter = 0;
 1002              		.loc 1 889 0
 1003 007c 0022     		mov	r2, #0
 1004 007e AC4B     		ldr	r3, .L126+8
 1005 0080 DA60     		str	r2, [r3, #12]
 1006              	.L97:
 890:.\Gesture.c   **** 				}
 891:.\Gesture.c   **** 				
 892:.\Gesture.c   **** 				/* Accumulate radius change */				
 893:.\Gesture.c   **** 				radiusChange = radius - prevRadius;
 1007              		.loc 1 893 0
 1008 0082 AB4B     		ldr	r3, .L126+8
 1009 0084 1B69     		ldr	r3, [r3, #16]
 1010 0086 EB1A     		sub	r3, r5, r3
 1011              	.LVL154:
 894:.\Gesture.c   **** 				accRadius += radiusChange;
 1012              		.loc 1 894 0
 1013 0088 AC4A     		ldr	r2, .L126+20
 1014 008a 1168     		ldr	r1, [r2]
 1015              	.LVL155:
ARM GAS  C:\Users\JAVIER~1\AppData\Local\Temp\ccyEBIku.s 			page 36


 1016 008c 8C46     		mov	ip, r1
 1017 008e 6344     		add	r3, r3, ip
 1018              	.LVL156:
 1019 0090 1360     		str	r3, [r2]
 830:.\Gesture.c   **** 	static tGestureId stickyGesture = GESTURE_NONE;
 1020              		.loc 1 830 0
 1021 0092 0020     		mov	r0, #0
 1022              	.LVL157:
 1023 0094 57E1     		b	.L82
 1024              	.LVL158:
 1025              	.L91:
 895:.\Gesture.c   **** 			}
 896:.\Gesture.c   **** 			/* If theta becomes invalid i.e. touch is released, report tap on the particular sector/button *
 897:.\Gesture.c   **** 			else
 898:.\Gesture.c   **** 			{
 899:.\Gesture.c   **** 				if(tapCounter < TAP_TIME_1_SEC)
 1026              		.loc 1 899 0
 1027 0096 A64B     		ldr	r3, .L126+8
 1028 0098 DB68     		ldr	r3, [r3, #12]
 1029 009a 632B     		cmp	r3, #99
 1030 009c 06D8     		bhi	.L98
 900:.\Gesture.c   **** 				{
 901:.\Gesture.c   **** 					capsenseButtonStatus = sectorToButtonLookup[Gesture_sectorHistory[FIRST_SECTOR_INDEX]];
 1031              		.loc 1 901 0
 1032 009e A24B     		ldr	r3, .L126
 1033 00a0 5B68     		ldr	r3, [r3, #4]
 1034 00a2 9B00     		lsl	r3, r3, #2
 1035 00a4 A34A     		ldr	r2, .L126+12
 1036 00a6 9A58     		ldr	r2, [r3, r2]
 1037 00a8 A34B     		ldr	r3, .L126+16
 1038 00aa 1A60     		str	r2, [r3]
 1039              	.L98:
 902:.\Gesture.c   **** 				}
 903:.\Gesture.c   **** 				
 904:.\Gesture.c   **** 				/* Move to the gesture release state to clear the state machine variables for next cycle */
 905:.\Gesture.c   **** 				processState = GESTURE_STATE_SECTOR_RELEASE;
 1040              		.loc 1 905 0
 1041 00ac 0722     		mov	r2, #7
 1042 00ae 9E4B     		ldr	r3, .L126
 1043 00b0 1A60     		str	r2, [r3]
 830:.\Gesture.c   **** 	static tGestureId stickyGesture = GESTURE_NONE;
 1044              		.loc 1 830 0
 1045 00b2 0020     		mov	r0, #0
 1046              	.LVL159:
 1047 00b4 47E1     		b	.L82
 1048              	.LVL160:
 1049              	.L86:
 906:.\Gesture.c   **** 			}
 907:.\Gesture.c   **** 		break;
 908:.\Gesture.c   **** 		
 909:.\Gesture.c   **** 		/* 1st sector moved state - monitors sector change */
 910:.\Gesture.c   **** 		case GESTURE_STATE_1ST_SECTOR_MOVED:
 911:.\Gesture.c   **** 			if(theta != INVALID_ANGLE)
 1050              		.loc 1 911 0
 1051 00b6 FA29     		cmp	r1, #250
 1052 00b8 3BD0     		beq	.L99
 912:.\Gesture.c   **** 			{
ARM GAS  C:\Users\JAVIER~1\AppData\Local\Temp\ccyEBIku.s 			page 37


 913:.\Gesture.c   **** 				/* accumulate radius and theta for calculations */
 914:.\Gesture.c   **** 				thetaChange = theta - prevTheta;
 1053              		.loc 1 914 0
 1054 00ba 9D4B     		ldr	r3, .L126+8
 1055 00bc 5B69     		ldr	r3, [r3, #20]
 1056 00be CB1A     		sub	r3, r1, r3
 1057              	.LVL161:
 915:.\Gesture.c   **** 				
 916:.\Gesture.c   **** 				/* Logic to avoid theta change overflows at theta cross over junctions (180 and 0 degrees) */
 917:.\Gesture.c   **** 				if(thetaChange > ANGLE_90)
 1058              		.loc 1 917 0
 1059 00c0 2D2B     		cmp	r3, #45
 1060 00c2 01DD     		ble	.L100
 918:.\Gesture.c   **** 				{
 919:.\Gesture.c   **** 					thetaChange = thetaChange - 2*ANGLE_180;
 1061              		.loc 1 919 0
 1062 00c4 B43B     		sub	r3, r3, #180
 1063              	.LVL162:
 1064 00c6 03E0     		b	.L101
 1065              	.L100:
 920:.\Gesture.c   **** 				}
 921:.\Gesture.c   **** 				else if(thetaChange < -ANGLE_90)
 1066              		.loc 1 921 0
 1067 00c8 1A1C     		mov	r2, r3
 1068 00ca 2D32     		add	r2, r2, #45
 1069 00cc 00DA     		bge	.L101
 922:.\Gesture.c   **** 				{
 923:.\Gesture.c   **** 					thetaChange = 2*ANGLE_180 + thetaChange;
 1070              		.loc 1 923 0
 1071 00ce B433     		add	r3, r3, #180
 1072              	.LVL163:
 1073              	.L101:
 924:.\Gesture.c   **** 				}
 925:.\Gesture.c   **** 				
 926:.\Gesture.c   **** 				accTheta += thetaChange;
 1074              		.loc 1 926 0
 1075 00d0 9B4A     		ldr	r2, .L126+24
 1076 00d2 1168     		ldr	r1, [r2]
 1077              	.LVL164:
 1078 00d4 8C46     		mov	ip, r1
 1079 00d6 6344     		add	r3, r3, ip
 1080              	.LVL165:
 1081 00d8 1360     		str	r3, [r2]
 927:.\Gesture.c   **** 				
 928:.\Gesture.c   **** 				radiusChange = radius - prevRadius;
 1082              		.loc 1 928 0
 1083 00da 954B     		ldr	r3, .L126+8
 1084 00dc 1B69     		ldr	r3, [r3, #16]
 1085 00de EB1A     		sub	r3, r5, r3
 1086              	.LVL166:
 929:.\Gesture.c   **** 				accRadius += radiusChange;
 1087              		.loc 1 929 0
 1088 00e0 964A     		ldr	r2, .L126+20
 1089 00e2 1168     		ldr	r1, [r2]
 1090 00e4 8C46     		mov	ip, r1
 1091 00e6 6344     		add	r3, r3, ip
 1092              	.LVL167:
ARM GAS  C:\Users\JAVIER~1\AppData\Local\Temp\ccyEBIku.s 			page 38


 1093 00e8 1360     		str	r3, [r2]
 930:.\Gesture.c   **** 				
 931:.\Gesture.c   **** 				/* Monitor the sector */
 932:.\Gesture.c   **** 				sector = Gestures_GetSector(radius, theta);
 1094              		.loc 1 932 0
 1095 00ea 281C     		mov	r0, r5
 1096              	.LVL168:
 1097 00ec 211C     		mov	r1, r4
 1098 00ee FFF7FEFF 		bl	Gestures_GetSector
 1099              	.LVL169:
 933:.\Gesture.c   **** 				
 934:.\Gesture.c   **** 				/* If there is a change in sector, move to 2nd sector state or outward swipe state depending on
 935:.\Gesture.c   **** 					first active sector */
 936:.\Gesture.c   **** 				if(sector != Gesture_sectorHistory[FIRST_SECTOR_INDEX])
 1100              		.loc 1 936 0
 1101 00f2 8D4B     		ldr	r3, .L126
 1102 00f4 5A68     		ldr	r2, [r3, #4]
 1103 00f6 8242     		cmp	r2, r0
 1104 00f8 16D0     		beq	.L102
 937:.\Gesture.c   **** 				{
 938:.\Gesture.c   **** 					/* Sector change is accepted only after a debounce */
 939:.\Gesture.c   **** 					debounceCounter++;
 1105              		.loc 1 939 0
 1106 00fa 8D49     		ldr	r1, .L126+8
 1107 00fc 8B69     		ldr	r3, [r1, #24]
 1108 00fe 0133     		add	r3, r3, #1
 1109 0100 8B61     		str	r3, [r1, #24]
 940:.\Gesture.c   **** 					if(debounceCounter > SECTOR_DEBOUNCE)
 1110              		.loc 1 940 0
 1111 0102 032B     		cmp	r3, #3
 1112 0104 00D8     		bhi	.LCB1163
 1113 0106 0BE1     		b	.L122	@long jump
 1114              	.LCB1163:
 941:.\Gesture.c   **** 					{
 942:.\Gesture.c   **** 						/* If first sector was 0 and there is a sector change, report outward swipe */
 943:.\Gesture.c   **** 						if(Gesture_sectorHistory[FIRST_SECTOR_INDEX] == SECTOR_0)
 1115              		.loc 1 943 0
 1116 0108 002A     		cmp	r2, #0
 1117 010a 03D1     		bne	.L103
 944:.\Gesture.c   **** 						{
 945:.\Gesture.c   **** 							processState = GESTURE_STATE_OUTWARD_SWIPE;
 1118              		.loc 1 945 0
 1119 010c 0632     		add	r2, r2, #6
 1120 010e 864B     		ldr	r3, .L126
 1121 0110 1A60     		str	r2, [r3]
 1122 0112 02E0     		b	.L104
 1123              	.L103:
 946:.\Gesture.c   **** 						}
 947:.\Gesture.c   **** 						else
 948:.\Gesture.c   **** 						{
 949:.\Gesture.c   **** 							processState = GESTURE_STATE_2ND_SECTOR;
 1124              		.loc 1 949 0
 1125 0114 0422     		mov	r2, #4
 1126 0116 844B     		ldr	r3, .L126
 1127 0118 1A60     		str	r2, [r3]
 1128              	.L104:
 950:.\Gesture.c   **** 						}
ARM GAS  C:\Users\JAVIER~1\AppData\Local\Temp\ccyEBIku.s 			page 39


 951:.\Gesture.c   **** 						
 952:.\Gesture.c   **** 						/* Store the new sector */
 953:.\Gesture.c   **** 						Gesture_sectorHistory[SECOND_SECTOR_INDEX] = sector;
 1129              		.loc 1 953 0
 1130 011a 834B     		ldr	r3, .L126
 1131 011c 9860     		str	r0, [r3, #8]
 954:.\Gesture.c   **** 						debounceCounter = 0;
 1132              		.loc 1 954 0
 1133 011e 0022     		mov	r2, #0
 1134 0120 834B     		ldr	r3, .L126+8
 1135 0122 9A61     		str	r2, [r3, #24]
 830:.\Gesture.c   **** 	static tGestureId stickyGesture = GESTURE_NONE;
 1136              		.loc 1 830 0
 1137 0124 0020     		mov	r0, #0
 1138              	.LVL170:
 1139 0126 0EE1     		b	.L82
 1140              	.LVL171:
 1141              	.L102:
 955:.\Gesture.c   **** 					}
 956:.\Gesture.c   **** 				}
 957:.\Gesture.c   **** 				else
 958:.\Gesture.c   **** 				{
 959:.\Gesture.c   **** 					debounceCounter = 0;
 1142              		.loc 1 959 0
 1143 0128 0022     		mov	r2, #0
 1144 012a 814B     		ldr	r3, .L126+8
 1145 012c 9A61     		str	r2, [r3, #24]
 830:.\Gesture.c   **** 	static tGestureId stickyGesture = GESTURE_NONE;
 1146              		.loc 1 830 0
 1147 012e 0020     		mov	r0, #0
 1148              	.LVL172:
 1149 0130 09E1     		b	.L82
 1150              	.LVL173:
 1151              	.L99:
 960:.\Gesture.c   **** 				}
 961:.\Gesture.c   **** 			}
 962:.\Gesture.c   **** 			else
 963:.\Gesture.c   **** 			{
 964:.\Gesture.c   **** 				/* If the finger is released (theta invalid), move to gesture release state */
 965:.\Gesture.c   **** 				processState = GESTURE_STATE_SECTOR_RELEASE;
 1152              		.loc 1 965 0
 1153 0132 0722     		mov	r2, #7
 1154 0134 7C4B     		ldr	r3, .L126
 1155 0136 1A60     		str	r2, [r3]
 830:.\Gesture.c   **** 	static tGestureId stickyGesture = GESTURE_NONE;
 1156              		.loc 1 830 0
 1157 0138 0020     		mov	r0, #0
 1158              	.LVL174:
 1159 013a 04E1     		b	.L82
 1160              	.LVL175:
 1161              	.L87:
 966:.\Gesture.c   **** 			}
 967:.\Gesture.c   **** 		break;
 968:.\Gesture.c   **** 		
 969:.\Gesture.c   **** 		/* 2nd sector state, the state machine will remain in this state as long as finger is present and
 970:.\Gesture.c   **** 		case GESTURE_STATE_2ND_SECTOR:
 971:.\Gesture.c   **** 			/* Stay in state till a valid theta is present */
ARM GAS  C:\Users\JAVIER~1\AppData\Local\Temp\ccyEBIku.s 			page 40


 972:.\Gesture.c   **** 			if(theta != INVALID_ANGLE)
 1162              		.loc 1 972 0
 1163 013c FA29     		cmp	r1, #250
 1164 013e 55D0     		beq	.L105
 973:.\Gesture.c   **** 			{				
 974:.\Gesture.c   **** 				/* Accumulate theta and radius changes */
 975:.\Gesture.c   **** 				thetaChange = theta - prevTheta;
 1165              		.loc 1 975 0
 1166 0140 7B4B     		ldr	r3, .L126+8
 1167 0142 5B69     		ldr	r3, [r3, #20]
 1168 0144 CB1A     		sub	r3, r1, r3
 1169              	.LVL176:
 976:.\Gesture.c   **** 				
 977:.\Gesture.c   **** 				/* Theta overflow/underflow correction */
 978:.\Gesture.c   **** 				if(thetaChange > ANGLE_90)
 1170              		.loc 1 978 0
 1171 0146 2D2B     		cmp	r3, #45
 1172 0148 01DD     		ble	.L106
 979:.\Gesture.c   **** 				{
 980:.\Gesture.c   **** 					thetaChange = thetaChange - 2*ANGLE_180;
 1173              		.loc 1 980 0
 1174 014a B43B     		sub	r3, r3, #180
 1175              	.LVL177:
 1176 014c 03E0     		b	.L107
 1177              	.L106:
 981:.\Gesture.c   **** 				}
 982:.\Gesture.c   **** 				else if(thetaChange < -ANGLE_90)
 1178              		.loc 1 982 0
 1179 014e 1A1C     		mov	r2, r3
 1180 0150 2D32     		add	r2, r2, #45
 1181 0152 00DA     		bge	.L107
 983:.\Gesture.c   **** 				{
 984:.\Gesture.c   **** 					thetaChange = 2*ANGLE_180 + thetaChange;
 1182              		.loc 1 984 0
 1183 0154 B433     		add	r3, r3, #180
 1184              	.LVL178:
 1185              	.L107:
 985:.\Gesture.c   **** 				}
 986:.\Gesture.c   **** 				
 987:.\Gesture.c   **** 				accTheta += thetaChange;
 1186              		.loc 1 987 0
 1187 0156 7A4A     		ldr	r2, .L126+24
 1188 0158 1168     		ldr	r1, [r2]
 1189              	.LVL179:
 1190 015a 8C46     		mov	ip, r1
 1191 015c 6344     		add	r3, r3, ip
 1192              	.LVL180:
 1193 015e 1360     		str	r3, [r2]
 988:.\Gesture.c   **** 				
 989:.\Gesture.c   **** 				radiusChange = radius - prevRadius;
 1194              		.loc 1 989 0
 1195 0160 734B     		ldr	r3, .L126+8
 1196 0162 1B69     		ldr	r3, [r3, #16]
 1197 0164 EB1A     		sub	r3, r5, r3
 1198              	.LVL181:
 990:.\Gesture.c   **** 				accRadius += radiusChange;
 1199              		.loc 1 990 0
ARM GAS  C:\Users\JAVIER~1\AppData\Local\Temp\ccyEBIku.s 			page 41


 1200 0166 754A     		ldr	r2, .L126+20
 1201 0168 1168     		ldr	r1, [r2]
 1202 016a 8C46     		mov	ip, r1
 1203 016c 6344     		add	r3, r3, ip
 1204              	.LVL182:
 1205 016e 1360     		str	r3, [r2]
 991:.\Gesture.c   **** 				
 992:.\Gesture.c   **** 				/* Read the current sector */
 993:.\Gesture.c   **** 				sector = Gestures_GetSector(radius, theta);
 1206              		.loc 1 993 0
 1207 0170 281C     		mov	r0, r5
 1208              	.LVL183:
 1209 0172 211C     		mov	r1, r4
 1210 0174 FFF7FEFF 		bl	Gestures_GetSector
 1211              	.LVL184:
 994:.\Gesture.c   **** 				
 995:.\Gesture.c   **** 				/* Check if the sector has changed */
 996:.\Gesture.c   **** 				if(sector != Gesture_sectorHistory[SECOND_SECTOR_INDEX])
 1212              		.loc 1 996 0
 1213 0178 6B4B     		ldr	r3, .L126
 1214 017a 9B68     		ldr	r3, [r3, #8]
 1215 017c 8342     		cmp	r3, r0
 1216 017e 30D0     		beq	.L108
 997:.\Gesture.c   **** 				{
 998:.\Gesture.c   **** 					debounceCounter++;
 1217              		.loc 1 998 0
 1218 0180 6B49     		ldr	r1, .L126+8
 1219 0182 8A69     		ldr	r2, [r1, #24]
 1220 0184 0132     		add	r2, r2, #1
 1221 0186 8A61     		str	r2, [r1, #24]
 999:.\Gesture.c   **** 					
1000:.\Gesture.c   **** 					/* Debounce the sector change before processing the sector change related activities */
1001:.\Gesture.c   **** 					if(debounceCounter > SECTOR_DEBOUNCE)
 1222              		.loc 1 1001 0
 1223 0188 032A     		cmp	r2, #3
 1224 018a 00D8     		bhi	.LCB1277
 1225 018c CAE0     		b	.L123	@long jump
 1226              	.LCB1277:
1002:.\Gesture.c   **** 					{
1003:.\Gesture.c   **** 						/* If a sector change occurs, then this would be the third sector change.
1004:.\Gesture.c   **** 							Hence update the sector history and process gestures (we require a minimum 
1005:.\Gesture.c   **** 							three sectors to process a gesture). */
1006:.\Gesture.c   **** 						processState = GESTURE_STATE_3RD_SECTOR;
 1227              		.loc 1 1006 0
 1228 018e 664E     		ldr	r6, .L126
 1229 0190 0522     		mov	r2, #5
 1230 0192 3260     		str	r2, [r6]
1007:.\Gesture.c   **** 						Gesture_sectorHistory[THIRD_SECTOR_INDEX] = sector;
 1231              		.loc 1 1007 0
 1232 0194 F060     		str	r0, [r6, #12]
1008:.\Gesture.c   **** 						
1009:.\Gesture.c   **** 						/* Calculate the unique sector sum gesture detection */
1010:.\Gesture.c   **** 						sectorHistorySum = sectorLookup[Gesture_sectorHistory[THIRD_SECTOR_INDEX]] * THIRD_SECTOR_WEI
 1233              		.loc 1 1010 0
 1234 0196 6749     		ldr	r1, .L126+12
 1235 0198 8000     		lsl	r0, r0, #2
 1236              	.LVL185:
ARM GAS  C:\Users\JAVIER~1\AppData\Local\Temp\ccyEBIku.s 			page 42


 1237 019a 0818     		add	r0, r1, r0
 1238 019c 4769     		ldr	r7, [r0, #20]
 1239 019e F800     		lsl	r0, r7, #3
 1240 01a0 C019     		add	r0, r0, r7
 1241 01a2 4000     		lsl	r0, r0, #1
 1242 01a4 C019     		add	r0, r0, r7
1011:.\Gesture.c   **** 									+ sectorLookup[Gesture_sectorHistory[SECOND_SECTOR_INDEX]] * SECOND_SECTOR_WEIGHT
 1243              		.loc 1 1011 0
 1244 01a6 9B00     		lsl	r3, r3, #2
 1245 01a8 CB18     		add	r3, r1, r3
 1246 01aa 5A69     		ldr	r2, [r3, #20]
 1247 01ac 1301     		lsl	r3, r2, #4
 1248 01ae 9A18     		add	r2, r3, r2
 1249 01b0 8218     		add	r2, r0, r2
1012:.\Gesture.c   **** 									+ sectorLookup[Gesture_sectorHistory[FIRST_SECTOR_INDEX]] * FIRST_SECTOR_WEIGHT;
 1250              		.loc 1 1012 0
 1251 01b2 7368     		ldr	r3, [r6, #4]
 1252 01b4 9B00     		lsl	r3, r3, #2
 1253 01b6 CB18     		add	r3, r1, r3
 1254 01b8 5B69     		ldr	r3, [r3, #20]
 1255 01ba 5800     		lsl	r0, r3, #1
 1256 01bc C018     		add	r0, r0, r3
 1257 01be 8000     		lsl	r0, r0, #2
 1258 01c0 C318     		add	r3, r0, r3
1010:.\Gesture.c   **** 									+ sectorLookup[Gesture_sectorHistory[SECOND_SECTOR_INDEX]] * SECOND_SECTOR_WEIGHT
 1259              		.loc 1 1010 0
 1260 01c2 D018     		add	r0, r2, r3
 1261              	.LVL186:
1013:.\Gesture.c   **** 						
1014:.\Gesture.c   **** 						gesture = Gestures_LookUpGesture(sectorHistorySum, firstRadius);
 1262              		.loc 1 1014 0
 1263 01c4 5A4B     		ldr	r3, .L126+8
 1264 01c6 5968     		ldr	r1, [r3, #4]
 1265 01c8 FFF7FEFF 		bl	Gestures_LookUpGesture
 1266              	.LVL187:
 1267 01cc 021C     		mov	r2, r0
 1268              	.LVL188:
1015:.\Gesture.c   **** 						
1016:.\Gesture.c   **** 						/* Make the gesture as sticky for UP/DOWN swipe
1017:.\Gesture.c   **** 							sticky means the gesture will be reported as long as the finger is held in the sector */
1018:.\Gesture.c   ****                         #if (NO_OF_STICKY_GESTURES == 0)
1019:.\Gesture.c   ****                             if(STICKY_GESTURE_CONDITION)
1020:.\Gesture.c   ****                         #elif (NO_OF_STICKY_GESTURES == 1)
1021:.\Gesture.c   ****                             if(STICKY_GESTURE_CONDITION(gesture,STICKY_GESTURE_1))     
1022:.\Gesture.c   ****                         #elif (NO_OF_STICKY_GESTURES == 2)
1023:.\Gesture.c   ****                             if(STICKY_GESTURE_CONDITION(gesture,STICKY_GESTURE_1,STICKY_GESTURE_2))
 1269              		.loc 1 1023 0
 1270 01ce D31F     		sub	r3, r2, #7
 1271 01d0 DBB2     		uxtb	r3, r3
 1272 01d2 012B     		cmp	r3, #1
 1273 01d4 01D8     		bhi	.L109
1024:.\Gesture.c   ****                         #elif (NO_OF_STICKY_GESTURES == 3)
1025:.\Gesture.c   ****                             if(STICKY_GESTURE_CONDITION(gesture,STICKY_GESTURE_1,STICKY_GESTURE_2,S
1026:.\Gesture.c   ****                         #else        
1027:.\Gesture.c   ****                             if(STICKY_GESTURE_CONDITION(gesture,STICKY_GESTURE_1,STICKY_GESTURE_2,S
1028:.\Gesture.c   ****                         #endif						
1029:.\Gesture.c   **** 						{
ARM GAS  C:\Users\JAVIER~1\AppData\Local\Temp\ccyEBIku.s 			page 43


1030:.\Gesture.c   **** 							stickyGesture = gesture;
 1274              		.loc 1 1030 0
 1275 01d6 564B     		ldr	r3, .L126+8
 1276 01d8 1A77     		strb	r2, [r3, #28]
 1277              	.L109:
1031:.\Gesture.c   **** 						}
1032:.\Gesture.c   **** 						
1033:.\Gesture.c   **** 						debounceCounter = 0;
 1278              		.loc 1 1033 0
 1279 01da 0022     		mov	r2, #0
 1280              	.LVL189:
 1281 01dc 544B     		ldr	r3, .L126+8
 1282 01de 9A61     		str	r2, [r3, #24]
 1283 01e0 B1E0     		b	.L82
 1284              	.LVL190:
 1285              	.L108:
1034:.\Gesture.c   **** 					}
1035:.\Gesture.c   **** 				}
1036:.\Gesture.c   **** 				else
1037:.\Gesture.c   **** 				{
1038:.\Gesture.c   **** 					debounceCounter = 0;
 1286              		.loc 1 1038 0
 1287 01e2 0022     		mov	r2, #0
 1288 01e4 524B     		ldr	r3, .L126+8
 1289 01e6 9A61     		str	r2, [r3, #24]
 830:.\Gesture.c   **** 	static tGestureId stickyGesture = GESTURE_NONE;
 1290              		.loc 1 830 0
 1291 01e8 0020     		mov	r0, #0
 1292              	.LVL191:
 1293 01ea ACE0     		b	.L82
 1294              	.LVL192:
 1295              	.L105:
1039:.\Gesture.c   **** 				}
1040:.\Gesture.c   **** 			}
1041:.\Gesture.c   **** 			else
1042:.\Gesture.c   **** 			{
1043:.\Gesture.c   **** 				processState = GESTURE_STATE_SECTOR_RELEASE;
 1296              		.loc 1 1043 0
 1297 01ec 0722     		mov	r2, #7
 1298 01ee 4E4B     		ldr	r3, .L126
 1299 01f0 1A60     		str	r2, [r3]
 830:.\Gesture.c   **** 	static tGestureId stickyGesture = GESTURE_NONE;
 1300              		.loc 1 830 0
 1301 01f2 0020     		mov	r0, #0
 1302              	.LVL193:
 1303 01f4 A7E0     		b	.L82
 1304              	.LVL194:
 1305              	.L88:
1044:.\Gesture.c   **** 			}
1045:.\Gesture.c   **** 		break;
1046:.\Gesture.c   **** 		
1047:.\Gesture.c   **** 		/* 3rd sector state - This state is similar to 2nd sector state
1048:.\Gesture.c   **** 			Gesture will processed every time a sector change occurs */
1049:.\Gesture.c   **** 		case GESTURE_STATE_3RD_SECTOR:
1050:.\Gesture.c   **** 			if(theta != INVALID_ANGLE)
 1306              		.loc 1 1050 0
 1307 01f6 FA29     		cmp	r1, #250
ARM GAS  C:\Users\JAVIER~1\AppData\Local\Temp\ccyEBIku.s 			page 44


 1308 01f8 59D0     		beq	.L110
1051:.\Gesture.c   **** 			{
1052:.\Gesture.c   **** 				thetaChange = theta - prevTheta;
 1309              		.loc 1 1052 0
 1310 01fa 4D4B     		ldr	r3, .L126+8
 1311 01fc 5B69     		ldr	r3, [r3, #20]
 1312 01fe CB1A     		sub	r3, r1, r3
 1313              	.LVL195:
1053:.\Gesture.c   **** 				
1054:.\Gesture.c   **** 				if(thetaChange > ANGLE_90)
 1314              		.loc 1 1054 0
 1315 0200 2D2B     		cmp	r3, #45
 1316 0202 01DD     		ble	.L111
1055:.\Gesture.c   **** 				{
1056:.\Gesture.c   **** 					thetaChange = thetaChange - 2*ANGLE_180;
 1317              		.loc 1 1056 0
 1318 0204 B43B     		sub	r3, r3, #180
 1319              	.LVL196:
 1320 0206 03E0     		b	.L112
 1321              	.L111:
1057:.\Gesture.c   **** 				}
1058:.\Gesture.c   **** 				else if(thetaChange < -ANGLE_90)
 1322              		.loc 1 1058 0
 1323 0208 1A1C     		mov	r2, r3
 1324 020a 2D32     		add	r2, r2, #45
 1325 020c 00DA     		bge	.L112
1059:.\Gesture.c   **** 				{
1060:.\Gesture.c   **** 					thetaChange = 2*ANGLE_180 + thetaChange;
 1326              		.loc 1 1060 0
 1327 020e B433     		add	r3, r3, #180
 1328              	.LVL197:
 1329              	.L112:
1061:.\Gesture.c   **** 				}
1062:.\Gesture.c   **** 				
1063:.\Gesture.c   **** 				accTheta += thetaChange;
 1330              		.loc 1 1063 0
 1331 0210 4B4A     		ldr	r2, .L126+24
 1332 0212 1168     		ldr	r1, [r2]
 1333              	.LVL198:
 1334 0214 8C46     		mov	ip, r1
 1335 0216 6344     		add	r3, r3, ip
 1336              	.LVL199:
 1337 0218 1360     		str	r3, [r2]
1064:.\Gesture.c   **** 				
1065:.\Gesture.c   **** 				radiusChange = radius - prevRadius;
 1338              		.loc 1 1065 0
 1339 021a 454B     		ldr	r3, .L126+8
 1340 021c 1B69     		ldr	r3, [r3, #16]
 1341 021e EB1A     		sub	r3, r5, r3
 1342              	.LVL200:
1066:.\Gesture.c   **** 				accRadius += radiusChange;
 1343              		.loc 1 1066 0
 1344 0220 464A     		ldr	r2, .L126+20
 1345 0222 1168     		ldr	r1, [r2]
 1346 0224 8C46     		mov	ip, r1
 1347 0226 6344     		add	r3, r3, ip
 1348              	.LVL201:
ARM GAS  C:\Users\JAVIER~1\AppData\Local\Temp\ccyEBIku.s 			page 45


 1349 0228 1360     		str	r3, [r2]
1067:.\Gesture.c   **** 				
1068:.\Gesture.c   **** 				sector = Gestures_GetSector(radius, theta);
 1350              		.loc 1 1068 0
 1351 022a 281C     		mov	r0, r5
 1352              	.LVL202:
 1353 022c 211C     		mov	r1, r4
 1354 022e FFF7FEFF 		bl	Gestures_GetSector
 1355              	.LVL203:
1069:.\Gesture.c   **** 				
1070:.\Gesture.c   **** 				if(sector != Gesture_sectorHistory[THIRD_SECTOR_INDEX])
 1356              		.loc 1 1070 0
 1357 0232 3D4B     		ldr	r3, .L126
 1358 0234 DB68     		ldr	r3, [r3, #12]
 1359 0236 8342     		cmp	r3, r0
 1360 0238 34D0     		beq	.L113
1071:.\Gesture.c   **** 				{
1072:.\Gesture.c   **** 					debounceCounter++;
 1361              		.loc 1 1072 0
 1362 023a 3D49     		ldr	r1, .L126+8
 1363 023c 8A69     		ldr	r2, [r1, #24]
 1364 023e 0132     		add	r2, r2, #1
 1365 0240 8A61     		str	r2, [r1, #24]
1073:.\Gesture.c   **** 					if(debounceCounter > SECTOR_DEBOUNCE)
 1366              		.loc 1 1073 0
 1367 0242 032A     		cmp	r2, #3
 1368 0244 00D8     		bhi	.LCB1422
 1369 0246 7DE0     		b	.L124	@long jump
 1370              	.LCB1422:
1074:.\Gesture.c   **** 					{
1075:.\Gesture.c   **** 						Gesture_sectorHistory[FIRST_SECTOR_INDEX] = Gesture_sectorHistory[SECOND_SECTOR_INDEX];
 1371              		.loc 1 1075 0
 1372 0248 374A     		ldr	r2, .L126
 1373 024a 9168     		ldr	r1, [r2, #8]
 1374 024c 5160     		str	r1, [r2, #4]
1076:.\Gesture.c   **** 						Gesture_sectorHistory[SECOND_SECTOR_INDEX] = Gesture_sectorHistory[THIRD_SECTOR_INDEX];						
 1375              		.loc 1 1076 0
 1376 024e 9360     		str	r3, [r2, #8]
1077:.\Gesture.c   **** 						Gesture_sectorHistory[THIRD_SECTOR_INDEX] = sector;
 1377              		.loc 1 1077 0
 1378 0250 D060     		str	r0, [r2, #12]
1078:.\Gesture.c   **** 						
1079:.\Gesture.c   **** 						sectorHistorySum = sectorLookup[Gesture_sectorHistory[THIRD_SECTOR_INDEX]] * THIRD_SECTOR_WEI
 1379              		.loc 1 1079 0
 1380 0252 384E     		ldr	r6, .L126+12
 1381 0254 8000     		lsl	r0, r0, #2
 1382              	.LVL204:
 1383 0256 3018     		add	r0, r6, r0
 1384 0258 4769     		ldr	r7, [r0, #20]
 1385 025a F800     		lsl	r0, r7, #3
 1386 025c C019     		add	r0, r0, r7
 1387 025e 4000     		lsl	r0, r0, #1
 1388 0260 C019     		add	r0, r0, r7
1080:.\Gesture.c   **** 									+ sectorLookup[Gesture_sectorHistory[SECOND_SECTOR_INDEX]] * SECOND_SECTOR_WEIGHT
 1389              		.loc 1 1080 0
 1390 0262 9B00     		lsl	r3, r3, #2
 1391 0264 F318     		add	r3, r6, r3
ARM GAS  C:\Users\JAVIER~1\AppData\Local\Temp\ccyEBIku.s 			page 46


 1392 0266 5A69     		ldr	r2, [r3, #20]
 1393 0268 1301     		lsl	r3, r2, #4
 1394 026a 9A18     		add	r2, r3, r2
 1395 026c 8218     		add	r2, r0, r2
1081:.\Gesture.c   **** 									+ sectorLookup[Gesture_sectorHistory[FIRST_SECTOR_INDEX]] * FIRST_SECTOR_WEIGHT;
 1396              		.loc 1 1081 0
 1397 026e 8900     		lsl	r1, r1, #2
 1398 0270 7118     		add	r1, r6, r1
 1399 0272 4B69     		ldr	r3, [r1, #20]
 1400 0274 5800     		lsl	r0, r3, #1
 1401 0276 C018     		add	r0, r0, r3
 1402 0278 8000     		lsl	r0, r0, #2
 1403 027a C318     		add	r3, r0, r3
1079:.\Gesture.c   **** 									+ sectorLookup[Gesture_sectorHistory[SECOND_SECTOR_INDEX]] * SECOND_SECTOR_WEIGHT
 1404              		.loc 1 1079 0
 1405 027c D018     		add	r0, r2, r3
 1406              	.LVL205:
1082:.\Gesture.c   **** 						
1083:.\Gesture.c   **** 						gesture = Gestures_LookUpGesture(sectorHistorySum, firstRadius);
 1407              		.loc 1 1083 0
 1408 027e 2C4B     		ldr	r3, .L126+8
 1409 0280 5968     		ldr	r1, [r3, #4]
 1410 0282 FFF7FEFF 		bl	Gestures_LookUpGesture
 1411              	.LVL206:
 1412 0286 021C     		mov	r2, r0
 1413              	.LVL207:
1084:.\Gesture.c   **** 						
1085:.\Gesture.c   **** 						if((gesture == GESTURE_DOWN_SWIPE) || (gesture == GESTURE_UP_SWIPE))
 1414              		.loc 1 1085 0
 1415 0288 D31F     		sub	r3, r2, #7
 1416 028a DBB2     		uxtb	r3, r3
 1417 028c 012B     		cmp	r3, #1
 1418 028e 02D8     		bhi	.L114
1086:.\Gesture.c   **** 						{
1087:.\Gesture.c   **** 							stickyGesture = gesture;
 1419              		.loc 1 1087 0
 1420 0290 274B     		ldr	r3, .L126+8
 1421 0292 1A77     		strb	r2, [r3, #28]
 1422 0294 02E0     		b	.L115
 1423              	.L114:
1088:.\Gesture.c   **** 						}
1089:.\Gesture.c   **** 						else
1090:.\Gesture.c   **** 						{
1091:.\Gesture.c   **** 							stickyGesture = GESTURE_NONE;
 1424              		.loc 1 1091 0
 1425 0296 0022     		mov	r2, #0
 1426              	.LVL208:
 1427 0298 254B     		ldr	r3, .L126+8
 1428 029a 1A77     		strb	r2, [r3, #28]
 1429              	.L115:
1092:.\Gesture.c   **** 						}
1093:.\Gesture.c   **** 						
1094:.\Gesture.c   **** 						debounceCounter = 0;
 1430              		.loc 1 1094 0
 1431 029c 0022     		mov	r2, #0
 1432 029e 244B     		ldr	r3, .L126+8
 1433 02a0 9A61     		str	r2, [r3, #24]
ARM GAS  C:\Users\JAVIER~1\AppData\Local\Temp\ccyEBIku.s 			page 47


 1434 02a2 50E0     		b	.L82
 1435              	.LVL209:
 1436              	.L113:
1095:.\Gesture.c   **** 					}
1096:.\Gesture.c   **** 				}
1097:.\Gesture.c   **** 				else
1098:.\Gesture.c   **** 				{
1099:.\Gesture.c   **** 					debounceCounter = 0;
 1437              		.loc 1 1099 0
 1438 02a4 224B     		ldr	r3, .L126+8
 1439 02a6 0022     		mov	r2, #0
 1440 02a8 9A61     		str	r2, [r3, #24]
1100:.\Gesture.c   **** 					
1101:.\Gesture.c   **** 					if(stickyGesture != GESTURE_NONE)
 1441              		.loc 1 1101 0
 1442 02aa 187F     		ldrb	r0, [r3, #28]
 1443              	.LVL210:
 1444 02ac 4BE0     		b	.L82
 1445              	.LVL211:
 1446              	.L110:
1102:.\Gesture.c   **** 					{
1103:.\Gesture.c   **** 						gesture = stickyGesture;
1104:.\Gesture.c   **** 					}
1105:.\Gesture.c   **** 				}
1106:.\Gesture.c   **** 			}
1107:.\Gesture.c   **** 			else
1108:.\Gesture.c   **** 			{				
1109:.\Gesture.c   **** 				processState = GESTURE_STATE_SECTOR_RELEASE;
 1447              		.loc 1 1109 0
 1448 02ae 0722     		mov	r2, #7
 1449 02b0 1D4B     		ldr	r3, .L126
 1450 02b2 1A60     		str	r2, [r3]
 830:.\Gesture.c   **** 	static tGestureId stickyGesture = GESTURE_NONE;
 1451              		.loc 1 830 0
 1452 02b4 0020     		mov	r0, #0
 1453              	.LVL212:
 1454 02b6 46E0     		b	.L82
 1455              	.LVL213:
 1456              	.L89:
1110:.\Gesture.c   **** 			}
1111:.\Gesture.c   **** 		break;
1112:.\Gesture.c   **** 		
1113:.\Gesture.c   **** 		/* Outward swipe state, this state is triggered when first sector is 0
1114:.\Gesture.c   **** 			In this state, outward swipe gesture is reported till finger is removed */
1115:.\Gesture.c   **** 		case GESTURE_STATE_OUTWARD_SWIPE:
1116:.\Gesture.c   **** 			if(theta != INVALID_ANGLE)
 1457              		.loc 1 1116 0
 1458 02b8 FA29     		cmp	r1, #250
 1459 02ba 11D0     		beq	.L116
 1460              	.LVL214:
1117:.\Gesture.c   **** 			{
1118:.\Gesture.c   **** 				gesture = GESTURE_OUTWARD_SWIPE;
1119:.\Gesture.c   **** 				
1120:.\Gesture.c   **** 				thetaChange = theta - prevTheta;
 1461              		.loc 1 1120 0
 1462 02bc 1C4B     		ldr	r3, .L126+8
 1463 02be 5B69     		ldr	r3, [r3, #20]
ARM GAS  C:\Users\JAVIER~1\AppData\Local\Temp\ccyEBIku.s 			page 48


 1464 02c0 CB1A     		sub	r3, r1, r3
 1465              	.LVL215:
1121:.\Gesture.c   **** 				
1122:.\Gesture.c   **** 				if(thetaChange > ANGLE_90)
 1466              		.loc 1 1122 0
 1467 02c2 2D2B     		cmp	r3, #45
 1468 02c4 01DD     		ble	.L117
1123:.\Gesture.c   **** 				{
1124:.\Gesture.c   **** 					thetaChange = thetaChange - 2*ANGLE_180;
 1469              		.loc 1 1124 0
 1470 02c6 B43B     		sub	r3, r3, #180
 1471              	.LVL216:
 1472 02c8 03E0     		b	.L118
 1473              	.L117:
1125:.\Gesture.c   **** 				}
1126:.\Gesture.c   **** 				else if(thetaChange < -ANGLE_90)
 1474              		.loc 1 1126 0
 1475 02ca 1A1C     		mov	r2, r3
 1476 02cc 2D32     		add	r2, r2, #45
 1477 02ce 00DA     		bge	.L118
1127:.\Gesture.c   **** 				{
1128:.\Gesture.c   **** 					thetaChange = 2*ANGLE_180 + thetaChange;
 1478              		.loc 1 1128 0
 1479 02d0 B433     		add	r3, r3, #180
 1480              	.LVL217:
 1481              	.L118:
1129:.\Gesture.c   **** 				}
1130:.\Gesture.c   **** 				
1131:.\Gesture.c   **** 				accTheta += thetaChange;
 1482              		.loc 1 1131 0
 1483 02d2 1B4A     		ldr	r2, .L126+24
 1484 02d4 1168     		ldr	r1, [r2]
 1485              	.LVL218:
 1486 02d6 8C46     		mov	ip, r1
 1487 02d8 6344     		add	r3, r3, ip
 1488              	.LVL219:
 1489 02da 1360     		str	r3, [r2]
1118:.\Gesture.c   **** 				
 1490              		.loc 1 1118 0
 1491 02dc 0920     		mov	r0, #9
 1492              	.LVL220:
 1493 02de 32E0     		b	.L82
 1494              	.LVL221:
 1495              	.L116:
1132:.\Gesture.c   **** 			}
1133:.\Gesture.c   **** 			else
1134:.\Gesture.c   **** 			{
1135:.\Gesture.c   **** 				processState = GESTURE_STATE_SECTOR_RELEASE;
 1496              		.loc 1 1135 0
 1497 02e0 0722     		mov	r2, #7
 1498 02e2 114B     		ldr	r3, .L126
 1499 02e4 1A60     		str	r2, [r3]
 830:.\Gesture.c   **** 	static tGestureId stickyGesture = GESTURE_NONE;
 1500              		.loc 1 830 0
 1501 02e6 0020     		mov	r0, #0
 1502              	.LVL222:
 1503 02e8 2DE0     		b	.L82
ARM GAS  C:\Users\JAVIER~1\AppData\Local\Temp\ccyEBIku.s 			page 49


 1504              	.LVL223:
 1505              	.L90:
1136:.\Gesture.c   **** 			}
1137:.\Gesture.c   **** 		break;
1138:.\Gesture.c   **** 		
1139:.\Gesture.c   **** 		/* Gesture release state - this state clears all state machine variables for the next activation 
1140:.\Gesture.c   **** 		case GESTURE_STATE_SECTOR_RELEASE:			
1141:.\Gesture.c   **** 			debounceCounter = 0;
 1506              		.loc 1 1141 0
 1507 02ea 114A     		ldr	r2, .L126+8
 1508 02ec 0023     		mov	r3, #0
 1509 02ee 9361     		str	r3, [r2, #24]
1142:.\Gesture.c   **** 			tapCounter = 0;
 1510              		.loc 1 1142 0
 1511 02f0 D360     		str	r3, [r2, #12]
1143:.\Gesture.c   **** 			
1144:.\Gesture.c   **** 			Gesture_sectorHistory[SECOND_SECTOR_INDEX] = INVALID_SECTOR;
 1512              		.loc 1 1144 0
 1513 02f2 0D49     		ldr	r1, .L126
 1514              	.LVL224:
 1515 02f4 FF20     		mov	r0, #255
 1516              	.LVL225:
 1517 02f6 8860     		str	r0, [r1, #8]
1145:.\Gesture.c   **** 			Gesture_sectorHistory[FIRST_SECTOR_INDEX] = INVALID_SECTOR;
 1518              		.loc 1 1145 0
 1519 02f8 4860     		str	r0, [r1, #4]
1146:.\Gesture.c   **** 			Gesture_sectorHistory[THIRD_SECTOR_INDEX] = INVALID_SECTOR;
 1520              		.loc 1 1146 0
 1521 02fa C860     		str	r0, [r1, #12]
1147:.\Gesture.c   **** 			
1148:.\Gesture.c   **** 			firstRadius = INVALID_RADIUS;
 1522              		.loc 1 1148 0
 1523 02fc 5060     		str	r0, [r2, #4]
1149:.\Gesture.c   **** 			firstTheta = INVALID_ANGLE;
 1524              		.loc 1 1149 0
 1525 02fe 0538     		sub	r0, r0, #5
 1526 0300 9060     		str	r0, [r2, #8]
1150:.\Gesture.c   **** 			
1151:.\Gesture.c   **** 			accRadius = 0;
 1527              		.loc 1 1151 0
 1528 0302 0E48     		ldr	r0, .L126+20
 1529 0304 0360     		str	r3, [r0]
1152:.\Gesture.c   **** 			accTheta = 0;
 1530              		.loc 1 1152 0
 1531 0306 0E48     		ldr	r0, .L126+24
 1532 0308 0360     		str	r3, [r0]
1153:.\Gesture.c   **** 			
1154:.\Gesture.c   **** 			capsenseButtonStatus = 0;
 1533              		.loc 1 1154 0
 1534 030a 0B48     		ldr	r0, .L126+16
 1535 030c 0360     		str	r3, [r0]
1155:.\Gesture.c   **** 			
1156:.\Gesture.c   **** 			stickyGesture = GESTURE_NONE;
 1536              		.loc 1 1156 0
 1537 030e 1377     		strb	r3, [r2, #28]
1157:.\Gesture.c   **** 			
1158:.\Gesture.c   **** 			processState = GESTURE_STATE_IDLE;			
ARM GAS  C:\Users\JAVIER~1\AppData\Local\Temp\ccyEBIku.s 			page 50


 1538              		.loc 1 1158 0
 1539 0310 0133     		add	r3, r3, #1
 1540 0312 0B60     		str	r3, [r1]
 830:.\Gesture.c   **** 	static tGestureId stickyGesture = GESTURE_NONE;
 1541              		.loc 1 830 0
 1542 0314 0020     		mov	r0, #0
1159:.\Gesture.c   **** 		break;
 1543              		.loc 1 1159 0
 1544 0316 16E0     		b	.L82
 1545              	.LVL226:
 1546              	.L120:
 830:.\Gesture.c   **** 	static tGestureId stickyGesture = GESTURE_NONE;
 1547              		.loc 1 830 0
 1548 0318 0020     		mov	r0, #0
 1549              	.LVL227:
 1550 031a 14E0     		b	.L82
 1551              	.LVL228:
 1552              	.L121:
 1553 031c 0020     		mov	r0, #0
 1554              	.LVL229:
 1555 031e 12E0     		b	.L82
 1556              	.LVL230:
 1557              	.L122:
 1558 0320 0020     		mov	r0, #0
 1559              	.LVL231:
 1560 0322 10E0     		b	.L82
 1561              	.LVL232:
 1562              	.L123:
 1563 0324 0020     		mov	r0, #0
 1564              	.LVL233:
 1565 0326 0EE0     		b	.L82
 1566              	.L127:
 1567              		.align	2
 1568              	.L126:
 1569 0328 00000000 		.word	.LANCHOR2
 1570 032c 2C000000 		.word	.L84
 1571 0330 00000000 		.word	.LANCHOR0
 1572 0334 A8000000 		.word	.LANCHOR3
 1573 0338 00000000 		.word	capsenseButtonStatus
 1574 033c 00000000 		.word	accRadius
 1575 0340 00000000 		.word	accTheta
 1576              	.LVL234:
 1577              	.L124:
 1578 0344 0020     		mov	r0, #0
 1579              	.LVL235:
 1580              	.L82:
1160:.\Gesture.c   **** 					
1161:.\Gesture.c   **** 		default:
1162:.\Gesture.c   **** 		break;
1163:.\Gesture.c   **** 	}
1164:.\Gesture.c   **** 	
1165:.\Gesture.c   **** 	/* Invalidate first radius if there is significant variation in accumulated radius
1166:.\Gesture.c   **** 		This is done for invalidating circular gestures which uses first touch radius as the base for det
1167:.\Gesture.c   **** 	if(((accRadius > 1) || (accRadius < -1)))
 1581              		.loc 1 1167 0
 1582 0346 064B     		ldr	r3, .L128
 1583 0348 1B68     		ldr	r3, [r3]
ARM GAS  C:\Users\JAVIER~1\AppData\Local\Temp\ccyEBIku.s 			page 51


 1584 034a 0133     		add	r3, r3, #1
 1585 034c 022B     		cmp	r3, #2
 1586 034e 02D9     		bls	.L119
1168:.\Gesture.c   **** 	{
1169:.\Gesture.c   **** 		firstRadius = INVALID_RADIUS;						
 1587              		.loc 1 1169 0
 1588 0350 FF22     		mov	r2, #255
 1589 0352 044B     		ldr	r3, .L128+4
 1590 0354 5A60     		str	r2, [r3, #4]
 1591              	.L119:
1170:.\Gesture.c   **** 	}
1171:.\Gesture.c   **** 	
1172:.\Gesture.c   **** 	prevRadius = radius;
 1592              		.loc 1 1172 0
 1593 0356 034B     		ldr	r3, .L128+4
 1594 0358 1D61     		str	r5, [r3, #16]
1173:.\Gesture.c   **** 	prevTheta = theta;
 1595              		.loc 1 1173 0
 1596 035a 5C61     		str	r4, [r3, #20]
1174:.\Gesture.c   **** 	
1175:.\Gesture.c   **** 	return gesture;
1176:.\Gesture.c   **** }
 1597              		.loc 1 1176 0
 1598              		@ sp needed
 1599              	.LVL236:
 1600              	.LVL237:
 1601 035c F8BD     		pop	{r3, r4, r5, r6, r7, pc}
 1602              	.L129:
 1603 035e C046     		.align	2
 1604              	.L128:
 1605 0360 00000000 		.word	accRadius
 1606 0364 00000000 		.word	.LANCHOR0
 1607              		.cfi_endproc
 1608              	.LFE46:
 1609              		.size	Gestures_Process, .-Gestures_Process
 1610              		.global	__aeabi_uidiv
 1611              		.section	.text.DetectGesture,"ax",%progbits
 1612              		.align	2
 1613              		.global	DetectGesture
 1614              		.code	16
 1615              		.thumb_func
 1616              		.type	DetectGesture, %function
 1617              	DetectGesture:
 1618              	.LFB36:
 159:.\Gesture.c   **** 	tGestureId gestureId;
 1619              		.loc 1 159 0
 1620              		.cfi_startproc
 1621              	.LVL238:
 1622 0000 70B5     		push	{r4, r5, r6, lr}
 1623              		.cfi_def_cfa_offset 16
 1624              		.cfi_offset 4, -16
 1625              		.cfi_offset 5, -12
 1626              		.cfi_offset 6, -8
 1627              		.cfi_offset 14, -4
 1628              	.LVL239:
 164:.\Gesture.c   **** 	{
 1629              		.loc 1 164 0
ARM GAS  C:\Users\JAVIER~1\AppData\Local\Temp\ccyEBIku.s 			page 52


 1630 0002 0028     		cmp	r0, #0
 1631 0004 04D0     		beq	.L136
 167:.\Gesture.c   **** 	}
 1632              		.loc 1 167 0
 1633 0006 234B     		ldr	r3, .L137
 1634 0008 1B78     		ldrb	r3, [r3]
 1635 000a 1F25     		mov	r5, #31
 1636 000c 1D40     		and	r5, r3
 1637              	.LVL240:
 1638 000e 00E0     		b	.L131
 1639              	.LVL241:
 1640              	.L136:
 161:.\Gesture.c   **** 	
 1641              		.loc 1 161 0
 1642 0010 0025     		mov	r5, #0
 1643              	.LVL242:
 1644              	.L131:
 171:.\Gesture.c   **** 	
 1645              		.loc 1 171 0
 1646 0012 0020     		mov	r0, #0
 1647              	.LVL243:
 1648 0014 FFF7FEFF 		bl	CapSense_GetRadialCentroidPos
 1649              	.LVL244:
 1650 0018 061C     		mov	r6, r0
 1651 001a 041E     		sub	r4, r0, #0
 1652              	.LVL245:
 174:.\Gesture.c   **** 	{
 1653              		.loc 1 174 0
 1654 001c 1E4B     		ldr	r3, .L137+4
 1655 001e 9C42     		cmp	r4, r3
 1656 0020 09D0     		beq	.L132
 177:.\Gesture.c   **** 		
 1657              		.loc 1 177 0
 1658 0022 2023     		mov	r3, #32
 1659 0024 1D43     		orr	r5, r3
 1660              	.LVL246:
 180:.\Gesture.c   **** 		
 1661              		.loc 1 180 0
 1662 0026 1621     		mov	r1, #22
 1663 0028 FFF7FEFF 		bl	__aeabi_uidiv
 1664              	.LVL247:
 1665 002c 011C     		mov	r1, r0
 1666              	.LVL248:
 183:.\Gesture.c   **** 		{
 1667              		.loc 1 183 0
 1668 002e 2C2E     		cmp	r6, #44
 1669 0030 02D8     		bhi	.L133
 185:.\Gesture.c   **** 		}
 1670              		.loc 1 185 0
 1671 0032 0A34     		add	r4, r4, #10
 1672              	.LVL249:
 1673 0034 00E0     		b	.L133
 1674              	.LVL250:
 1675              	.L132:
 161:.\Gesture.c   **** 	
 1676              		.loc 1 161 0
 1677 0036 0021     		mov	r1, #0
ARM GAS  C:\Users\JAVIER~1\AppData\Local\Temp\ccyEBIku.s 			page 53


 1678              	.LVL251:
 1679              	.L133:
 195:.\Gesture.c   **** 	
 1680              		.loc 1 195 0
 1681 0038 281C     		mov	r0, r5
 1682 003a FFF7FEFF 		bl	Gestures_ValidateButtons
 1683              	.LVL252:
 1684 003e 061C     		mov	r6, r0
 1685              	.LVL253:
 198:.\Gesture.c   **** 	theta = Gestures_CalculateTheta(buttonStatus, sliderPos);
 1686              		.loc 1 198 0
 1687 0040 FFF7FEFF 		bl	Gestures_CalculateRadius
 1688              	.LVL254:
 1689 0044 051C     		mov	r5, r0
 1690 0046 154B     		ldr	r3, .L137+8
 1691 0048 1860     		str	r0, [r3]
 199:.\Gesture.c   **** 	
 1692              		.loc 1 199 0
 1693 004a 301C     		mov	r0, r6
 1694 004c 211C     		mov	r1, r4
 1695 004e FFF7FEFF 		bl	Gestures_CalculateTheta
 1696              	.LVL255:
 1697 0052 011C     		mov	r1, r0
 1698 0054 124C     		ldr	r4, .L137+12
 1699              	.LVL256:
 1700 0056 2060     		str	r0, [r4]
 202:.\Gesture.c   **** 	
 1701              		.loc 1 202 0
 1702 0058 281C     		mov	r0, r5
 1703 005a FFF7FEFF 		bl	Gestures_Process
 1704              	.LVL257:
 1705 005e 051C     		mov	r5, r0
 1706              	.LVL258:
 206:.\Gesture.c   **** 		{
 1707              		.loc 1 206 0
 1708 0060 2468     		ldr	r4, [r4]
 1709 0062 FA2C     		cmp	r4, #250
 1710 0064 0ED0     		beq	.L134
 208:.\Gesture.c   **** 			yPos = Gestures_CalculateY(radius, theta);
 1711              		.loc 1 208 0
 1712 0066 0D4B     		ldr	r3, .L137+8
 1713 0068 1E68     		ldr	r6, [r3]
 1714              	.LVL259:
 1715 006a 301C     		mov	r0, r6
 1716 006c 211C     		mov	r1, r4
 1717 006e FFF7FEFF 		bl	Gestures_CalculateX
 1718              	.LVL260:
 1719 0072 0C4B     		ldr	r3, .L137+16
 1720 0074 1860     		str	r0, [r3]
 209:.\Gesture.c   **** 		}
 1721              		.loc 1 209 0
 1722 0076 301C     		mov	r0, r6
 1723 0078 211C     		mov	r1, r4
 1724 007a FFF7FEFF 		bl	Gestures_CalculateY
 1725              	.LVL261:
 1726 007e 0A4B     		ldr	r3, .L137+20
 1727 0080 1860     		str	r0, [r3]
ARM GAS  C:\Users\JAVIER~1\AppData\Local\Temp\ccyEBIku.s 			page 54


 1728 0082 04E0     		b	.L135
 1729              	.LVL262:
 1730              	.L134:
 213:.\Gesture.c   **** 			yPos = 0;
 1731              		.loc 1 213 0
 1732 0084 0023     		mov	r3, #0
 1733 0086 074A     		ldr	r2, .L137+16
 1734 0088 1360     		str	r3, [r2]
 214:.\Gesture.c   **** 		}
 1735              		.loc 1 214 0
 1736 008a 074A     		ldr	r2, .L137+20
 1737 008c 1360     		str	r3, [r2]
 1738              	.LVL263:
 1739              	.L135:
 219:.\Gesture.c   **** 
 1740              		.loc 1 219 0
 1741 008e 281C     		mov	r0, r5
 1742              		@ sp needed
 1743              	.LVL264:
 1744 0090 70BD     		pop	{r4, r5, r6, pc}
 1745              	.L138:
 1746 0092 C046     		.align	2
 1747              	.L137:
 1748 0094 00000000 		.word	CapSense_sensorOnMask
 1749 0098 FFFF0000 		.word	65535
 1750 009c 00000000 		.word	radius
 1751 00a0 00000000 		.word	theta
 1752 00a4 00000000 		.word	xPos
 1753 00a8 00000000 		.word	yPos
 1754              		.cfi_endproc
 1755              	.LFE36:
 1756              		.size	DetectGesture, .-DetectGesture
 1757              		.global	sectorToButtonLookup
 1758              		.global	sectorLookup
 1759              		.global	sinLookUp
 1760              		.comm	theta,4,4
 1761              		.comm	radius,4,4
 1762              		.comm	yPos,4,4
 1763              		.comm	xPos,4,4
 1764              		.comm	capsenseButtonStatus,4,4
 1765              		.comm	accTheta,4,4
 1766              		.comm	accRadius,4,4
 1767              		.comm	sliderCentroid,2,2
 1768              		.section	.rodata
 1769              		.align	2
 1770              		.set	.LANCHOR1,. + 0
 1771              		.type	sinLookUp, %object
 1772              		.size	sinLookUp, 92
 1773              	sinLookUp:
 1774 004c 0000     		.short	0
 1775 004e 0900     		.short	9
 1776 0050 1200     		.short	18
 1777 0052 1B00     		.short	27
 1778 0054 2400     		.short	36
 1779 0056 2C00     		.short	44
 1780 0058 3500     		.short	53
 1781 005a 3E00     		.short	62
ARM GAS  C:\Users\JAVIER~1\AppData\Local\Temp\ccyEBIku.s 			page 55


 1782 005c 4700     		.short	71
 1783 005e 4F00     		.short	79
 1784 0060 5800     		.short	88
 1785 0062 6000     		.short	96
 1786 0064 6800     		.short	104
 1787 0066 7000     		.short	112
 1788 0068 7800     		.short	120
 1789 006a 8000     		.short	128
 1790 006c 8800     		.short	136
 1791 006e 8F00     		.short	143
 1792 0070 9600     		.short	150
 1793 0072 9E00     		.short	158
 1794 0074 A500     		.short	165
 1795 0076 AB00     		.short	171
 1796 0078 B200     		.short	178
 1797 007a B800     		.short	184
 1798 007c BE00     		.short	190
 1799 007e C400     		.short	196
 1800 0080 CA00     		.short	202
 1801 0082 CF00     		.short	207
 1802 0084 D400     		.short	212
 1803 0086 D900     		.short	217
 1804 0088 DE00     		.short	222
 1805 008a E200     		.short	226
 1806 008c E600     		.short	230
 1807 008e EA00     		.short	234
 1808 0090 ED00     		.short	237
 1809 0092 F100     		.short	241
 1810 0094 F300     		.short	243
 1811 0096 F600     		.short	246
 1812 0098 F800     		.short	248
 1813 009a FA00     		.short	250
 1814 009c FC00     		.short	252
 1815 009e FE00     		.short	254
 1816 00a0 FF00     		.short	255
 1817 00a2 FF00     		.short	255
 1818 00a4 0001     		.short	256
 1819 00a6 0001     		.short	256
 1820              		.align	2
 1821              		.set	.LANCHOR3,. + 0
 1822              		.type	sectorToButtonLookup, %object
 1823              		.size	sectorToButtonLookup, 20
 1824              	sectorToButtonLookup:
 1825 00a8 10000000 		.word	16
 1826 00ac 04000000 		.word	4
 1827 00b0 01000000 		.word	1
 1828 00b4 08000000 		.word	8
 1829 00b8 02000000 		.word	2
 1830              		.type	sectorLookup, %object
 1831              		.size	sectorLookup, 20
 1832              	sectorLookup:
 1833 00bc 02000000 		.word	2
 1834 00c0 03000000 		.word	3
 1835 00c4 05000000 		.word	5
 1836 00c8 07000000 		.word	7
 1837 00cc 0B000000 		.word	11
 1838              		.data
ARM GAS  C:\Users\JAVIER~1\AppData\Local\Temp\ccyEBIku.s 			page 56


 1839              		.align	2
 1840              		.set	.LANCHOR2,. + 0
 1841              		.type	processState.5756, %object
 1842              		.size	processState.5756, 4
 1843              	processState.5756:
 1844 0000 01000000 		.word	1
 1845              		.type	Gesture_sectorHistory.5758, %object
 1846              		.size	Gesture_sectorHistory.5758, 12
 1847              	Gesture_sectorHistory.5758:
 1848 0004 FF000000 		.word	255
 1849 0008 FF000000 		.word	255
 1850 000c FF000000 		.word	255
 1851              		.bss
 1852              		.align	2
 1853              		.set	.LANCHOR0,. + 0
 1854              		.type	prevButtonStatus.5683, %object
 1855              		.size	prevButtonStatus.5683, 4
 1856              	prevButtonStatus.5683:
 1857 0000 00000000 		.space	4
 1858              		.type	firstRadius.5752, %object
 1859              		.size	firstRadius.5752, 4
 1860              	firstRadius.5752:
 1861 0004 00000000 		.space	4
 1862              		.type	firstTheta.5754, %object
 1863              		.size	firstTheta.5754, 4
 1864              	firstTheta.5754:
 1865 0008 00000000 		.space	4
 1866              		.type	tapCounter.5751, %object
 1867              		.size	tapCounter.5751, 4
 1868              	tapCounter.5751:
 1869 000c 00000000 		.space	4
 1870              		.type	prevRadius.5753, %object
 1871              		.size	prevRadius.5753, 4
 1872              	prevRadius.5753:
 1873 0010 00000000 		.space	4
 1874              		.type	prevTheta.5755, %object
 1875              		.size	prevTheta.5755, 4
 1876              	prevTheta.5755:
 1877 0014 00000000 		.space	4
 1878              		.type	debounceCounter.5757, %object
 1879              		.size	debounceCounter.5757, 4
 1880              	debounceCounter.5757:
 1881 0018 00000000 		.space	4
 1882              		.type	stickyGesture.5750, %object
 1883              		.size	stickyGesture.5750, 1
 1884              	stickyGesture.5750:
 1885 001c 00       		.space	1
 1886 001d 000000   		.text
 1887              	.Letext0:
 1888              		.file 2 "Generated_Source\\PSoC4/cytypes.h"
 1889              		.file 3 ".\\Gesture.h"
 1890              		.file 4 "Generated_Source\\PSoC4/CapSense_CSHL.h"