ARM GAS  C:\Users\JAVIER~1\AppData\Local\Temp\ccAndZw6.s 			page 1


   1              		.cpu cortex-m0
   2              		.fpu softvfp
   3              		.eabi_attribute 20, 1
   4              		.eabi_attribute 21, 1
   5              		.eabi_attribute 23, 3
   6              		.eabi_attribute 24, 1
   7              		.eabi_attribute 25, 1
   8              		.eabi_attribute 26, 1
   9              		.eabi_attribute 30, 1
  10              		.eabi_attribute 34, 0
  11              		.eabi_attribute 18, 4
  12              		.code	16
  13              		.file	"HidReport.c"
  14              		.text
  15              	.Ltext0:
  16              		.cfi_sections	.debug_frame
  17              		.section	.text.ConvertGestureToHidReport,"ax",%progbits
  18              		.align	2
  19              		.global	ConvertGestureToHidReport
  20              		.code	16
  21              		.thumb_func
  22              		.type	ConvertGestureToHidReport, %function
  23              	ConvertGestureToHidReport:
  24              	.LFB36:
  25              		.file 1 ".\\HidReport.c"
   1:.\HidReport.c **** /*******************************************************************************
   2:.\HidReport.c **** * File Name: HidReport.c
   3:.\HidReport.c **** *
   4:.\HidReport.c **** * Version 1.0
   5:.\HidReport.c **** *
   6:.\HidReport.c **** * Description: This file contains routines for converting CapSense Gestures to
   7:.\HidReport.c **** *               HID report.
   8:.\HidReport.c **** *
   9:.\HidReport.c **** *******************************************************************************
  10:.\HidReport.c **** * Copyright (2015), Cypress Semiconductor Corporation.
  11:.\HidReport.c **** *******************************************************************************
  12:.\HidReport.c **** * This software, including source code, documentation and related materials
  13:.\HidReport.c **** * ("Software") is owned by Cypress Semiconductor Corporation (Cypress) and is
  14:.\HidReport.c **** * protected by and subject to worldwide patent protection (United States and 
  15:.\HidReport.c **** * foreign), United States copyright laws and international treaty provisions. 
  16:.\HidReport.c **** * Cypress hereby grants to licensee a personal, non-exclusive, non-transferable
  17:.\HidReport.c **** * license to copy, use, modify, create derivative works of, and compile the 
  18:.\HidReport.c **** * Cypress source code and derivative works for the sole purpose of creating 
  19:.\HidReport.c **** * custom software in support of licensee product, such licensee product to be
  20:.\HidReport.c **** * used only in conjunction with Cypress's integrated circuit as specified in the
  21:.\HidReport.c **** * applicable agreement. Any reproduction, modification, translation, compilation,
  22:.\HidReport.c **** * or representation of this Software except as specified above is prohibited 
  23:.\HidReport.c **** * without the express written permission of Cypress.
  24:.\HidReport.c **** * 
  25:.\HidReport.c **** * Disclaimer: THIS SOFTWARE IS PROVIDED AS-IS, WITH NO WARRANTY OF ANY KIND, 
  26:.\HidReport.c **** * EXPRESS OR IMPLIED, INCLUDING, BUT NOT LIMITED TO, NONINFRINGEMENT, IMPLIED 
  27:.\HidReport.c **** * WARRANTIES OF MERCHANTABILITY AND FITNESS FOR A PARTICULAR PURPOSE.
  28:.\HidReport.c **** * Cypress reserves the Right to make changes to the Software without notice. 
  29:.\HidReport.c **** * Cypress does not assume any liability arising out of the application or use
  30:.\HidReport.c **** * of Software or any product or circuit described in the Software. Cypress does
  31:.\HidReport.c **** * not authorize its products for use as critical components in any products 
  32:.\HidReport.c **** * where a malfunction or failure may reasonably be expected to result in 
ARM GAS  C:\Users\JAVIER~1\AppData\Local\Temp\ccAndZw6.s 			page 2


  33:.\HidReport.c **** * significant injury or death ("ACTIVE Risk Product"). By including Cypress's 
  34:.\HidReport.c **** * product in a ACTIVE Risk Product, the manufacturer of such system or application
  35:.\HidReport.c **** * assumes all risk of such use and in doing so indemnifies Cypress against all
  36:.\HidReport.c **** * liability. Use of this Software may be limited by and subject to the applicable
  37:.\HidReport.c **** * Cypress software license agreement.
  38:.\HidReport.c **** *******************************************************************************/
  39:.\HidReport.c **** 
  40:.\HidReport.c **** #include "HidReport.h"
  41:.\HidReport.c **** #include "main.h"
  42:.\HidReport.c **** #include "Gesture.h"
  43:.\HidReport.c **** #include "cytypes.h"
  44:.\HidReport.c **** #include "UART_SPI_UART.h"
  45:.\HidReport.c **** 
  46:.\HidReport.c **** 
  47:.\HidReport.c **** /*******************************************************************************
  48:.\HidReport.c **** *   Global Variable Declarations
  49:.\HidReport.c **** *******************************************************************************/
  50:.\HidReport.c **** 
  51:.\HidReport.c **** /* HID report arrays for keyboard & mouse. */
  52:.\HidReport.c **** /* Mouse data report array. The report format is as follows. 
  53:.\HidReport.c ****  * Byte0: Bit0 - Left button, Bit1 - Right button, Bit2 - Middle button, 
  54:.\HidReport.c ****  * 		  Bit3 to Bit7 - Not used.
  55:.\HidReport.c ****  * Byte1: X position relative to the current position of the cursor.
  56:.\HidReport.c ****  * Byte2: Y position relative to the current position of the cursor.
  57:.\HidReport.c ****  * Byte3: Vertical scroll bar position relative to the current position of the
  58:.\HidReport.c ****  * 		  scroll bar.
  59:.\HidReport.c ****  */
  60:.\HidReport.c **** int8 mouseReport[MOUSE_RPT_SIZE] = {0, 0, 0, 0};
  61:.\HidReport.c **** 
  62:.\HidReport.c **** /* Keyboard data report array. The report format is as follows. 
  63:.\HidReport.c ****  * Byte0: Modifier keys
  64:.\HidReport.c ****  * Byte1: Reserved (Not used).
  65:.\HidReport.c ****  * Byte2 to Byte7: Codes of keys 1 to 6.
  66:.\HidReport.c ****  * Refer to AN58726 to learn more about keyboard report format.
  67:.\HidReport.c ****  */
  68:.\HidReport.c **** uint8 keyboardReport[KEY_RPT_SIZE] = {0, 0, 0, 0, 0, 0, 0, 0};
  69:.\HidReport.c **** 
  70:.\HidReport.c **** 
  71:.\HidReport.c **** /*******************************************************************************
  72:.\HidReport.c **** *   External Variable Declarations
  73:.\HidReport.c **** *******************************************************************************/
  74:.\HidReport.c **** 
  75:.\HidReport.c **** /* Indicates the centroid value of the radial slider. */
  76:.\HidReport.c **** extern uint16 sliderCentroid;
  77:.\HidReport.c **** 
  78:.\HidReport.c **** 
  79:.\HidReport.c **** /*******************************************************************************
  80:.\HidReport.c **** * Function Name: ConvertGestureToHidReport
  81:.\HidReport.c **** ********************************************************************************
  82:.\HidReport.c **** *
  83:.\HidReport.c **** * Summary:
  84:.\HidReport.c **** * This function updates the keyboard and mouse report arrays based on the given
  85:.\HidReport.c **** * gesture id. 
  86:.\HidReport.c **** *
  87:.\HidReport.c **** * Parameters:
  88:.\HidReport.c **** * gestureId - Id of the detected gesture.
  89:.\HidReport.c **** *
ARM GAS  C:\Users\JAVIER~1\AppData\Local\Temp\ccAndZw6.s 			page 3


  90:.\HidReport.c **** * Return:
  91:.\HidReport.c **** * None
  92:.\HidReport.c **** *
  93:.\HidReport.c **** *******************************************************************************/
  94:.\HidReport.c **** void ConvertGestureToHidReport(tGestureId gestureId)
  95:.\HidReport.c **** {
  26              		.loc 1 95 0
  27              		.cfi_startproc
  28              	.LVL0:
  29 0000 38B5     		push	{r3, r4, r5, lr}
  30              		.cfi_def_cfa_offset 16
  31              		.cfi_offset 3, -16
  32              		.cfi_offset 4, -12
  33              		.cfi_offset 5, -8
  34              		.cfi_offset 14, -4
  35 0002 041C     		mov	r4, r0
  96:.\HidReport.c **** 	/* This variable is used to control the speed of the scroll bar movement. Refer
  97:.\HidReport.c **** 	 * to the usage in the switch-case statement below. 
  98:.\HidReport.c **** 	 */
  99:.\HidReport.c **** 	static uint32 scrollUpdateThreshold = 0;	
 100:.\HidReport.c **** 	
 101:.\HidReport.c **** 	static tGestureId prevGestureId = GESTURE_NONE;
 102:.\HidReport.c **** 	
 103:.\HidReport.c **** 	uint32 i;
 104:.\HidReport.c **** 
 105:.\HidReport.c **** 	/* Initialize keyboard & mouse report to zero before updating with valid
 106:.\HidReport.c **** 	 * values.
 107:.\HidReport.c **** 	 */	
 108:.\HidReport.c **** 	keyboardReport[KEY_RPT_MODIF_POS] = 0;
  36              		.loc 1 108 0
  37 0004 5B4B     		ldr	r3, .L22
  38 0006 0022     		mov	r2, #0
  39 0008 1A70     		strb	r2, [r3]
 109:.\HidReport.c **** 	keyboardReport[KEY_RPT_KEY1_POS] = 0;
  40              		.loc 1 109 0
  41 000a 9A70     		strb	r2, [r3, #2]
  42              	.LVL1:
 110:.\HidReport.c **** 	
 111:.\HidReport.c **** 	for(i = 0; i < MOUSE_RPT_SIZE; i++)
  43              		.loc 1 111 0
  44 000c 0023     		mov	r3, #0
  45 000e 04E0     		b	.L2
  46              	.LVL2:
  47              	.L3:
 112:.\HidReport.c **** 	{
 113:.\HidReport.c **** 		mouseReport[i] = 0;
  48              		.loc 1 113 0 discriminator 3
  49 0010 584A     		ldr	r2, .L22
  50 0012 D218     		add	r2, r2, r3
  51 0014 0021     		mov	r1, #0
  52 0016 1172     		strb	r1, [r2, #8]
 111:.\HidReport.c **** 	{
  53              		.loc 1 111 0 discriminator 3
  54 0018 0133     		add	r3, r3, #1
  55              	.LVL3:
  56              	.L2:
 111:.\HidReport.c **** 	{
ARM GAS  C:\Users\JAVIER~1\AppData\Local\Temp\ccAndZw6.s 			page 4


  57              		.loc 1 111 0 is_stmt 0 discriminator 1
  58 001a 032B     		cmp	r3, #3
  59 001c F8D9     		bls	.L3
 114:.\HidReport.c **** 	}
 115:.\HidReport.c **** 	
 116:.\HidReport.c **** 	/* Process Mouse buttons */
 117:.\HidReport.c **** 	switch (capsenseButtonStatus)
  60              		.loc 1 117 0 is_stmt 1
  61 001e 564B     		ldr	r3, .L22+4
  62              	.LVL4:
  63 0020 1B68     		ldr	r3, [r3]
  64 0022 022B     		cmp	r3, #2
  65 0024 0BD0     		beq	.L5
  66 0026 102B     		cmp	r3, #16
  67 0028 12D0     		beq	.L6
  68 002a 012B     		cmp	r3, #1
  69 002c 18D1     		bne	.L4
 118:.\HidReport.c **** 	{
 119:.\HidReport.c **** 		case LEFT_BTN_MASK:
 120:.\HidReport.c **** 			mouseReport[MOUSE_RPT_BTN_POS] |= MOUSE_RPT_LEFT_BTN_MASK; 
  70              		.loc 1 120 0
  71 002e 514A     		ldr	r2, .L22
  72 0030 117A     		ldrb	r1, [r2, #8]
  73 0032 0B43     		orr	r3, r1
  74 0034 1372     		strb	r3, [r2, #8]
 121:.\HidReport.c **** 			PRINT("Left Click\n\r");
  75              		.loc 1 121 0
  76 0036 5148     		ldr	r0, .L22+8
  77              	.LVL5:
  78 0038 FFF7FEFF 		bl	UART_UartPutString
  79              	.LVL6:
 122:.\HidReport.c **** 		break; 
  80              		.loc 1 122 0
  81 003c 10E0     		b	.L4
  82              	.LVL7:
  83              	.L5:
 123:.\HidReport.c **** 		
 124:.\HidReport.c **** 		case RIGHT_BTN_MASK:
 125:.\HidReport.c **** 			mouseReport[MOUSE_RPT_BTN_POS] |= MOUSE_RPT_RIGHT_BTN_MASK; 
  84              		.loc 1 125 0
  85 003e 4D4A     		ldr	r2, .L22
  86 0040 117A     		ldrb	r1, [r2, #8]
  87 0042 0223     		mov	r3, #2
  88 0044 0B43     		orr	r3, r1
  89 0046 1372     		strb	r3, [r2, #8]
 126:.\HidReport.c **** 			PRINT("Right Click\n\r");
  90              		.loc 1 126 0
  91 0048 4D48     		ldr	r0, .L22+12
  92              	.LVL8:
  93 004a FFF7FEFF 		bl	UART_UartPutString
  94              	.LVL9:
 127:.\HidReport.c **** 		break;
  95              		.loc 1 127 0
  96 004e 07E0     		b	.L4
  97              	.LVL10:
  98              	.L6:
 128:.\HidReport.c **** 			
ARM GAS  C:\Users\JAVIER~1\AppData\Local\Temp\ccAndZw6.s 			page 5


 129:.\HidReport.c **** 		case CENTRE_BTN_MASK:
 130:.\HidReport.c **** 			mouseReport[MOUSE_RPT_BTN_POS] |= MOUSE_RPT_MIDDLE_BTN_MASK; 
  99              		.loc 1 130 0
 100 0050 484A     		ldr	r2, .L22
 101 0052 117A     		ldrb	r1, [r2, #8]
 102 0054 0423     		mov	r3, #4
 103 0056 0B43     		orr	r3, r1
 104 0058 1372     		strb	r3, [r2, #8]
 131:.\HidReport.c **** 			PRINT("Middle Click\n\r");
 105              		.loc 1 131 0
 106 005a 4A48     		ldr	r0, .L22+16
 107              	.LVL11:
 108 005c FFF7FEFF 		bl	UART_UartPutString
 109              	.LVL12:
 110              	.L4:
 132:.\HidReport.c **** 		break;
 133:.\HidReport.c **** 			
 134:.\HidReport.c **** 		default:
 135:.\HidReport.c **** 			break;
 136:.\HidReport.c **** 	}
 137:.\HidReport.c **** 	
 138:.\HidReport.c **** 	/* Refer to the DetectGesture() function in Gesture.c file to learn more on how
 139:.\HidReport.c **** 	 * these gestures are detected. 
 140:.\HidReport.c **** 	 */
 141:.\HidReport.c **** 	switch(gestureId)
 111              		.loc 1 141 0
 112 0060 631F     		sub	r3, r4, #5
 113 0062 DAB2     		uxtb	r2, r3
 114 0064 082A     		cmp	r2, #8
 115 0066 00D9     		bls	.LCB86
 116 0068 80E0     		b	.L8	@long jump
 117              	.LCB86:
 118 006a 9300     		lsl	r3, r2, #2
 119 006c 464A     		ldr	r2, .L22+20
 120 006e D358     		ldr	r3, [r2, r3]
 121 0070 9F46     		mov	pc, r3
 122              		.section	.rodata
 123              		.align	2
 124              	.L10:
 125 0000 72000000 		.word	.L9
 126 0004 88000000 		.word	.L11
 127 0008 9E000000 		.word	.L12
 128 000c D6000000 		.word	.L13
 129 0010 0E010000 		.word	.L14
 130 0014 3E010000 		.word	.L15
 131 0018 46010000 		.word	.L16
 132 001c 4E010000 		.word	.L17
 133 0020 5E010000 		.word	.L18
 134              		.section	.text.ConvertGestureToHidReport
 135              	.L9:
 142:.\HidReport.c **** 	{		
 143:.\HidReport.c **** 	case GESTURE_LEFT_SWIPE:
 144:.\HidReport.c **** 		/* Left swipe sends out Ctrl + Shift + TAB keys to computer */
 145:.\HidReport.c **** 		PRINT("Left Swipe\n\r");
 136              		.loc 1 145 0
 137 0072 4648     		ldr	r0, .L22+24
 138 0074 FFF7FEFF 		bl	UART_UartPutString
ARM GAS  C:\Users\JAVIER~1\AppData\Local\Temp\ccAndZw6.s 			page 6


 139              	.LVL13:
 146:.\HidReport.c **** 		keyboardReport[KEY_RPT_MODIF_POS] |= (KEY_RPT_LEFT_CTRL_MASK | KEY_RPT_LEFT_SHIFT_MASK); 
 140              		.loc 1 146 0
 141 0078 3E4B     		ldr	r3, .L22
 142 007a 1978     		ldrb	r1, [r3]
 143 007c 0322     		mov	r2, #3
 144 007e 0A43     		orr	r2, r1
 145 0080 1A70     		strb	r2, [r3]
 147:.\HidReport.c **** 		keyboardReport[KEY_RPT_KEY1_POS] = KEY_RPT_TAB_CODE;
 146              		.loc 1 147 0
 147 0082 2B22     		mov	r2, #43
 148 0084 9A70     		strb	r2, [r3, #2]
 148:.\HidReport.c **** 		break;
 149              		.loc 1 148 0
 150 0086 71E0     		b	.L8
 151              	.L11:
 149:.\HidReport.c **** 		
 150:.\HidReport.c **** 	case GESTURE_RIGHT_SWIPE:
 151:.\HidReport.c **** 		/* Right swipe sends out Ctrl + TAB keys to computer */
 152:.\HidReport.c **** 		PRINT("Right Swipe\n\r");
 152              		.loc 1 152 0
 153 0088 4148     		ldr	r0, .L22+28
 154 008a FFF7FEFF 		bl	UART_UartPutString
 155              	.LVL14:
 153:.\HidReport.c **** 		keyboardReport[KEY_RPT_MODIF_POS] |= KEY_RPT_LEFT_CTRL_MASK; 
 156              		.loc 1 153 0
 157 008e 394B     		ldr	r3, .L22
 158 0090 1978     		ldrb	r1, [r3]
 159 0092 0122     		mov	r2, #1
 160 0094 0A43     		orr	r2, r1
 161 0096 1A70     		strb	r2, [r3]
 154:.\HidReport.c **** 		keyboardReport[KEY_RPT_KEY1_POS] = KEY_RPT_TAB_CODE;
 162              		.loc 1 154 0
 163 0098 2B22     		mov	r2, #43
 164 009a 9A70     		strb	r2, [r3, #2]
 155:.\HidReport.c **** 		break;
 165              		.loc 1 155 0
 166 009c 66E0     		b	.L8
 167              	.L12:
 156:.\HidReport.c **** 		
 157:.\HidReport.c **** 	case GESTURE_UP_SWIPE:
 158:.\HidReport.c **** 		/* Up swipe moves the vertical scroll bar up. User can release the touch after
 159:.\HidReport.c **** 		 * the gesture that would move the scroll bar once or user can continue 
 160:.\HidReport.c **** 		 * touching the Up button which would move the scroll bar up continuously. 
 161:.\HidReport.c **** 		 */
 162:.\HidReport.c **** 		if(prevGestureId != GESTURE_UP_SWIPE)
 168              		.loc 1 162 0
 169 009e 354B     		ldr	r3, .L22
 170 00a0 1B7B     		ldrb	r3, [r3, #12]
 171 00a2 072B     		cmp	r3, #7
 172 00a4 08D0     		beq	.L19
 163:.\HidReport.c **** 		{
 164:.\HidReport.c **** 			/* Start with higher speed the first time scroll gesture occurs. */
 165:.\HidReport.c **** 			scrollUpdateThreshold = 0;
 173              		.loc 1 165 0
 174 00a6 334B     		ldr	r3, .L22
 175 00a8 0022     		mov	r2, #0
ARM GAS  C:\Users\JAVIER~1\AppData\Local\Temp\ccAndZw6.s 			page 7


 176 00aa 1A61     		str	r2, [r3, #16]
 166:.\HidReport.c **** 			mouseReport[MOUSE_RPT_V_POS] = START_SCROLL_SPEED;
 177              		.loc 1 166 0
 178 00ac 0432     		add	r2, r2, #4
 179 00ae DA72     		strb	r2, [r3, #11]
 167:.\HidReport.c **** 			PRINT("Up Swipe\n\r");
 180              		.loc 1 167 0
 181 00b0 3848     		ldr	r0, .L22+32
 182 00b2 FFF7FEFF 		bl	UART_UartPutString
 183              	.LVL15:
 184 00b6 59E0     		b	.L8
 185              	.L19:
 168:.\HidReport.c **** 		}
 169:.\HidReport.c **** 		else if(++scrollUpdateThreshold >= CONT_SCROLL_UPDATE_FREQ)
 186              		.loc 1 169 0
 187 00b8 2E4A     		ldr	r2, .L22
 188 00ba 1369     		ldr	r3, [r2, #16]
 189 00bc 0133     		add	r3, r3, #1
 190 00be 1361     		str	r3, [r2, #16]
 191 00c0 092B     		cmp	r3, #9
 192 00c2 53D9     		bls	.L8
 170:.\HidReport.c **** 		{
 171:.\HidReport.c **** 			/* Control scroll speed by limiting the update rate */
 172:.\HidReport.c **** 			scrollUpdateThreshold = 0;
 193              		.loc 1 172 0
 194 00c4 151C     		mov	r5, r2
 195 00c6 0023     		mov	r3, #0
 196 00c8 1361     		str	r3, [r2, #16]
 173:.\HidReport.c **** 			PRINT("Up Swipe\n\r");
 197              		.loc 1 173 0
 198 00ca 3248     		ldr	r0, .L22+32
 199 00cc FFF7FEFF 		bl	UART_UartPutString
 200              	.LVL16:
 174:.\HidReport.c **** 			mouseReport[MOUSE_RPT_V_POS] = CONT_SCROLL_SPEED;
 201              		.loc 1 174 0
 202 00d0 0123     		mov	r3, #1
 203 00d2 EB72     		strb	r3, [r5, #11]
 204 00d4 4AE0     		b	.L8
 205              	.L13:
 175:.\HidReport.c **** 		}
 176:.\HidReport.c **** 		break;
 177:.\HidReport.c **** 		
 178:.\HidReport.c **** 	case GESTURE_DOWN_SWIPE:
 179:.\HidReport.c **** 		/* Down swipe moves the vertical scroll bar down. User can release the touch 
 180:.\HidReport.c **** 		 * after the gesture that would move the scroll bar once or user can continue 
 181:.\HidReport.c **** 		 * touching the Down button which would move the scroll bar down continuously. 
 182:.\HidReport.c **** 		 */
 183:.\HidReport.c **** 		if(prevGestureId != GESTURE_DOWN_SWIPE)
 206              		.loc 1 183 0
 207 00d6 274B     		ldr	r3, .L22
 208 00d8 1B7B     		ldrb	r3, [r3, #12]
 209 00da 082B     		cmp	r3, #8
 210 00dc 08D0     		beq	.L20
 184:.\HidReport.c **** 		{
 185:.\HidReport.c **** 			/* Start with higher speed the first time scroll gesture occurs. */
 186:.\HidReport.c **** 			scrollUpdateThreshold = 0;
 211              		.loc 1 186 0
ARM GAS  C:\Users\JAVIER~1\AppData\Local\Temp\ccAndZw6.s 			page 8


 212 00de 254B     		ldr	r3, .L22
 213 00e0 0022     		mov	r2, #0
 214 00e2 1A61     		str	r2, [r3, #16]
 187:.\HidReport.c **** 			mouseReport[MOUSE_RPT_V_POS] = -START_SCROLL_SPEED;
 215              		.loc 1 187 0
 216 00e4 FC32     		add	r2, r2, #252
 217 00e6 DA72     		strb	r2, [r3, #11]
 188:.\HidReport.c **** 			PRINT("Down Swipe\n\r");
 218              		.loc 1 188 0
 219 00e8 2B48     		ldr	r0, .L22+36
 220 00ea FFF7FEFF 		bl	UART_UartPutString
 221              	.LVL17:
 222 00ee 3DE0     		b	.L8
 223              	.L20:
 189:.\HidReport.c **** 		}
 190:.\HidReport.c **** 		else if(++scrollUpdateThreshold >= CONT_SCROLL_UPDATE_FREQ)
 224              		.loc 1 190 0
 225 00f0 204A     		ldr	r2, .L22
 226 00f2 1369     		ldr	r3, [r2, #16]
 227 00f4 0133     		add	r3, r3, #1
 228 00f6 1361     		str	r3, [r2, #16]
 229 00f8 092B     		cmp	r3, #9
 230 00fa 37D9     		bls	.L8
 191:.\HidReport.c **** 		{
 192:.\HidReport.c **** 			/* Control scroll speed by limiting the update rate */
 193:.\HidReport.c **** 			scrollUpdateThreshold = 0;
 231              		.loc 1 193 0
 232 00fc 151C     		mov	r5, r2
 233 00fe 0023     		mov	r3, #0
 234 0100 1361     		str	r3, [r2, #16]
 194:.\HidReport.c **** 			PRINT("Down Swipe\n\r");
 235              		.loc 1 194 0
 236 0102 2548     		ldr	r0, .L22+36
 237 0104 FFF7FEFF 		bl	UART_UartPutString
 238              	.LVL18:
 195:.\HidReport.c **** 			mouseReport[MOUSE_RPT_V_POS] = -CONT_SCROLL_SPEED;
 239              		.loc 1 195 0
 240 0108 FF23     		mov	r3, #255
 241 010a EB72     		strb	r3, [r5, #11]
 242 010c 2EE0     		b	.L8
 243              	.L14:
 196:.\HidReport.c **** 		}
 197:.\HidReport.c **** 		break;
 198:.\HidReport.c **** 		
 199:.\HidReport.c **** 	case GESTURE_OUTWARD_SWIPE:
 200:.\HidReport.c **** 		if(prevGestureId != GESTURE_OUTWARD_SWIPE)
 244              		.loc 1 200 0
 245 010e 194B     		ldr	r3, .L22
 246 0110 1B7B     		ldrb	r3, [r3, #12]
 247 0112 092B     		cmp	r3, #9
 248 0114 02D0     		beq	.L21
 201:.\HidReport.c **** 		{				
 202:.\HidReport.c **** 			PRINT("Outward Swipe\n\r");
 249              		.loc 1 202 0
 250 0116 2148     		ldr	r0, .L22+40
 251 0118 FFF7FEFF 		bl	UART_UartPutString
 252              	.LVL19:
ARM GAS  C:\Users\JAVIER~1\AppData\Local\Temp\ccAndZw6.s 			page 9


 253              	.L21:
 203:.\HidReport.c **** 		}
 204:.\HidReport.c **** 		mouseReport[MOUSE_RPT_X_POS] = (int8)xPos/2;
 254              		.loc 1 204 0
 255 011c 154A     		ldr	r2, .L22
 256 011e 204B     		ldr	r3, .L22+44
 257 0120 1B78     		ldrb	r3, [r3]
 258 0122 5BB2     		sxtb	r3, r3
 259 0124 D90F     		lsr	r1, r3, #31
 260 0126 CB18     		add	r3, r1, r3
 261 0128 5B10     		asr	r3, r3, #1
 262 012a 5372     		strb	r3, [r2, #9]
 205:.\HidReport.c **** 		mouseReport[MOUSE_RPT_Y_POS] = -(int8)yPos/2;
 263              		.loc 1 205 0
 264 012c 1D4B     		ldr	r3, .L22+48
 265 012e 1B78     		ldrb	r3, [r3]
 266 0130 5BB2     		sxtb	r3, r3
 267 0132 5B42     		neg	r3, r3
 268 0134 D90F     		lsr	r1, r3, #31
 269 0136 CB18     		add	r3, r1, r3
 270 0138 5B10     		asr	r3, r3, #1
 271 013a 9372     		strb	r3, [r2, #10]
 206:.\HidReport.c **** 		break;
 272              		.loc 1 206 0
 273 013c 16E0     		b	.L8
 274              	.L15:
 207:.\HidReport.c **** 
 208:.\HidReport.c **** 	case GESTURE_INNER_CLKWISE:
 209:.\HidReport.c **** 		PRINT("Inner Clockwise\n\r");
 275              		.loc 1 209 0
 276 013e 1A48     		ldr	r0, .L22+52
 277 0140 FFF7FEFF 		bl	UART_UartPutString
 278              	.LVL20:
 210:.\HidReport.c **** 		break;
 279              		.loc 1 210 0
 280 0144 12E0     		b	.L8
 281              	.L16:
 211:.\HidReport.c **** 		
 212:.\HidReport.c **** 	case GESTURE_INNER_COUNTER_CLKWISE:
 213:.\HidReport.c **** 		PRINT("Inner Counter-Clockwise\n\r");
 282              		.loc 1 213 0
 283 0146 1948     		ldr	r0, .L22+56
 284 0148 FFF7FEFF 		bl	UART_UartPutString
 285              	.LVL21:
 214:.\HidReport.c **** 		break;
 286              		.loc 1 214 0
 287 014c 0EE0     		b	.L8
 288              	.L17:
 215:.\HidReport.c **** 		
 216:.\HidReport.c **** 	case GESTURE_OUTER_CLKWISE:
 217:.\HidReport.c **** 		if(prevGestureId != GESTURE_OUTER_CLKWISE)
 289              		.loc 1 217 0
 290 014e 094B     		ldr	r3, .L22
 291 0150 1B7B     		ldrb	r3, [r3, #12]
 292 0152 0C2B     		cmp	r3, #12
 293 0154 0AD0     		beq	.L8
 218:.\HidReport.c **** 		{
ARM GAS  C:\Users\JAVIER~1\AppData\Local\Temp\ccAndZw6.s 			page 10


 219:.\HidReport.c **** 			PRINT("Outer Clockwise\n\r");
 294              		.loc 1 219 0
 295 0156 1648     		ldr	r0, .L22+60
 296 0158 FFF7FEFF 		bl	UART_UartPutString
 297              	.LVL22:
 298 015c 06E0     		b	.L8
 299              	.L18:
 220:.\HidReport.c **** 		}
 221:.\HidReport.c **** 		break;
 222:.\HidReport.c **** 		
 223:.\HidReport.c **** 	case GESTURE_OUTER_COUNTER_CLKWISE:
 224:.\HidReport.c **** 		if(prevGestureId != GESTURE_OUTER_COUNTER_CLKWISE)
 300              		.loc 1 224 0
 301 015e 054B     		ldr	r3, .L22
 302 0160 1B7B     		ldrb	r3, [r3, #12]
 303 0162 0D2B     		cmp	r3, #13
 304 0164 02D0     		beq	.L8
 225:.\HidReport.c **** 		{
 226:.\HidReport.c **** 			PRINT("Outer Counter-Clockwise\n\r");
 305              		.loc 1 226 0
 306 0166 1348     		ldr	r0, .L22+64
 307 0168 FFF7FEFF 		bl	UART_UartPutString
 308              	.LVL23:
 309              	.L8:
 227:.\HidReport.c **** 		}
 228:.\HidReport.c **** 		break;
 229:.\HidReport.c **** 		
 230:.\HidReport.c **** 	default:
 231:.\HidReport.c **** 		break;
 232:.\HidReport.c **** 	}	
 233:.\HidReport.c **** 	
 234:.\HidReport.c **** 	prevGestureId = gestureId;
 310              		.loc 1 234 0
 311 016c 014B     		ldr	r3, .L22
 312 016e 1C73     		strb	r4, [r3, #12]
 235:.\HidReport.c **** }
 313              		.loc 1 235 0
 314              		@ sp needed
 315 0170 38BD     		pop	{r3, r4, r5, pc}
 316              	.L23:
 317 0172 C046     		.align	2
 318              	.L22:
 319 0174 00000000 		.word	.LANCHOR0
 320 0178 00000000 		.word	capsenseButtonStatus
 321 017c 00000000 		.word	.LC2
 322 0180 10000000 		.word	.LC4
 323 0184 20000000 		.word	.LC6
 324 0188 00000000 		.word	.L10
 325 018c 30000000 		.word	.LC9
 326 0190 40000000 		.word	.LC11
 327 0194 50000000 		.word	.LC13
 328 0198 5C000000 		.word	.LC15
 329 019c 6C000000 		.word	.LC17
 330 01a0 00000000 		.word	xPos
 331 01a4 00000000 		.word	yPos
 332 01a8 7C000000 		.word	.LC21
 333 01ac 90000000 		.word	.LC23
ARM GAS  C:\Users\JAVIER~1\AppData\Local\Temp\ccAndZw6.s 			page 11


 334 01b0 AC000000 		.word	.LC25
 335 01b4 C0000000 		.word	.LC27
 336              		.cfi_endproc
 337              	.LFE36:
 338              		.size	ConvertGestureToHidReport, .-ConvertGestureToHidReport
 339              		.global	keyboardReport
 340              		.global	mouseReport
 341              		.section	.rodata.str1.4,"aMS",%progbits,1
 342              		.align	2
 343              	.LC2:
 344 0000 4C656674 		.ascii	"Left Click\012\015\000"
 344      20436C69 
 344      636B0A0D 
 344      00
 345 000d 000000   		.space	3
 346              	.LC4:
 347 0010 52696768 		.ascii	"Right Click\012\015\000"
 347      7420436C 
 347      69636B0A 
 347      0D00
 348 001e 0000     		.space	2
 349              	.LC6:
 350 0020 4D696464 		.ascii	"Middle Click\012\015\000"
 350      6C652043 
 350      6C69636B 
 350      0A0D00
 351 002f 00       		.space	1
 352              	.LC9:
 353 0030 4C656674 		.ascii	"Left Swipe\012\015\000"
 353      20537769 
 353      70650A0D 
 353      00
 354 003d 000000   		.space	3
 355              	.LC11:
 356 0040 52696768 		.ascii	"Right Swipe\012\015\000"
 356      74205377 
 356      6970650A 
 356      0D00
 357 004e 0000     		.space	2
 358              	.LC13:
 359 0050 55702053 		.ascii	"Up Swipe\012\015\000"
 359      77697065 
 359      0A0D00
 360 005b 00       		.space	1
 361              	.LC15:
 362 005c 446F776E 		.ascii	"Down Swipe\012\015\000"
 362      20537769 
 362      70650A0D 
 362      00
 363 0069 000000   		.space	3
 364              	.LC17:
 365 006c 4F757477 		.ascii	"Outward Swipe\012\015\000"
 365      61726420 
 365      53776970 
 365      650A0D00 
 366              	.LC21:
 367 007c 496E6E65 		.ascii	"Inner Clockwise\012\015\000"
ARM GAS  C:\Users\JAVIER~1\AppData\Local\Temp\ccAndZw6.s 			page 12


 367      7220436C 
 367      6F636B77 
 367      6973650A 
 367      0D00
 368 008e 0000     		.space	2
 369              	.LC23:
 370 0090 496E6E65 		.ascii	"Inner Counter-Clockwise\012\015\000"
 370      7220436F 
 370      756E7465 
 370      722D436C 
 370      6F636B77 
 371 00aa 0000     		.space	2
 372              	.LC25:
 373 00ac 4F757465 		.ascii	"Outer Clockwise\012\015\000"
 373      7220436C 
 373      6F636B77 
 373      6973650A 
 373      0D00
 374 00be 0000     		.space	2
 375              	.LC27:
 376 00c0 4F757465 		.ascii	"Outer Counter-Clockwise\012\015\000"
 376      7220436F 
 376      756E7465 
 376      722D436C 
 376      6F636B77 
 377 00da 0000     		.bss
 378              		.align	2
 379              		.set	.LANCHOR0,. + 0
 380              		.type	keyboardReport, %object
 381              		.size	keyboardReport, 8
 382              	keyboardReport:
 383 0000 00000000 		.space	8
 383      00000000 
 384              		.type	mouseReport, %object
 385              		.size	mouseReport, 4
 386              	mouseReport:
 387 0008 00000000 		.space	4
 388              		.type	prevGestureId.5263, %object
 389              		.size	prevGestureId.5263, 1
 390              	prevGestureId.5263:
 391 000c 00       		.space	1
 392 000d 000000   		.space	3
 393              		.type	scrollUpdateThreshold.5262, %object
 394              		.size	scrollUpdateThreshold.5262, 4
 395              	scrollUpdateThreshold.5262:
 396 0010 00000000 		.space	4
 397              		.text
 398              	.Letext0:
 399              		.file 2 "Generated_Source\\PSoC4/cytypes.h"
 400              		.file 3 ".\\Gesture.h"
 401              		.file 4 "Generated_Source\\PSoC4/UART_SPI_UART.h"