ARM GAS  C:\Users\JAVIER~1\AppData\Local\Temp\cc7aakaO.s 			page 1


   1              		.cpu cortex-m0
   2              		.fpu softvfp
   3              		.eabi_attribute 20, 1
   4              		.eabi_attribute 21, 1
   5              		.eabi_attribute 23, 3
   6              		.eabi_attribute 24, 1
   7              		.eabi_attribute 25, 1
   8              		.eabi_attribute 26, 1
   9              		.eabi_attribute 30, 1
  10              		.eabi_attribute 34, 0
  11              		.eabi_attribute 18, 4
  12              		.code	16
  13              		.file	"LedControl.c"
  14              		.text
  15              	.Ltext0:
  16              		.cfi_sections	.debug_frame
  17              		.section	.text.SetLedColor,"ax",%progbits
  18              		.align	2
  19              		.global	SetLedColor
  20              		.code	16
  21              		.thumb_func
  22              		.type	SetLedColor, %function
  23              	SetLedColor:
  24              	.LFB38:
  25              		.file 1 ".\\LedControl.c"
   1:.\LedControl.c **** /*******************************************************************************
   2:.\LedControl.c **** * File Name: LedControl.c
   3:.\LedControl.c **** *
   4:.\LedControl.c **** * Version 1.0
   5:.\LedControl.c **** *
   6:.\LedControl.c **** * Description: This file contains routines for RGB LED control.
   7:.\LedControl.c **** *
   8:.\LedControl.c **** *******************************************************************************
   9:.\LedControl.c **** * Copyright (2015), Cypress Semiconductor Corporation.
  10:.\LedControl.c **** *******************************************************************************
  11:.\LedControl.c **** * This software, including source code, documentation and related materials
  12:.\LedControl.c **** * ("Software") is owned by Cypress Semiconductor Corporation (Cypress) and is
  13:.\LedControl.c **** * protected by and subject to worldwide patent protection (United States and 
  14:.\LedControl.c **** * foreign), United States copyright laws and international treaty provisions. 
  15:.\LedControl.c **** * Cypress hereby grants to licensee a personal, non-exclusive, non-transferable
  16:.\LedControl.c **** * license to copy, use, modify, create derivative works of, and compile the 
  17:.\LedControl.c **** * Cypress source code and derivative works for the sole purpose of creating 
  18:.\LedControl.c **** * custom software in support of licensee product, such licensee product to be
  19:.\LedControl.c **** * used only in conjunction with Cypress's integrated circuit as specified in the
  20:.\LedControl.c **** * applicable agreement. Any reproduction, modification, translation, compilation,
  21:.\LedControl.c **** * or representation of this Software except as specified above is prohibited 
  22:.\LedControl.c **** * without the express written permission of Cypress.
  23:.\LedControl.c **** * 
  24:.\LedControl.c **** * Disclaimer: THIS SOFTWARE IS PROVIDED AS-IS, WITH NO WARRANTY OF ANY KIND, 
  25:.\LedControl.c **** * EXPRESS OR IMPLIED, INCLUDING, BUT NOT LIMITED TO, NONINFRINGEMENT, IMPLIED 
  26:.\LedControl.c **** * WARRANTIES OF MERCHANTABILITY AND FITNESS FOR A PARTICULAR PURPOSE.
  27:.\LedControl.c **** * Cypress reserves the Right to make changes to the Software without notice. 
  28:.\LedControl.c **** * Cypress does not assume any liability arising out of the application or use
  29:.\LedControl.c **** * of Software or any product or circuit described in the Software. Cypress does
  30:.\LedControl.c **** * not authorize its products for use as critical components in any products 
  31:.\LedControl.c **** * where a malfunction or failure may reasonably be expected to result in 
  32:.\LedControl.c **** * significant injury or death ("ACTIVE Risk Product"). By including Cypress's 
ARM GAS  C:\Users\JAVIER~1\AppData\Local\Temp\cc7aakaO.s 			page 2


  33:.\LedControl.c **** * product in a ACTIVE Risk Product, the manufacturer of such system or application
  34:.\LedControl.c **** * assumes all risk of such use and in doing so indemnifies Cypress against all
  35:.\LedControl.c **** * liability. Use of this Software may be limited by and subject to the applicable
  36:.\LedControl.c **** * Cypress software license agreement.
  37:.\LedControl.c **** *******************************************************************************/
  38:.\LedControl.c **** 
  39:.\LedControl.c **** #include "project.h"
  40:.\LedControl.c **** #include "LedControl.h"
  41:.\LedControl.c **** #include "main.h"
  42:.\LedControl.c **** 
  43:.\LedControl.c **** 
  44:.\LedControl.c **** /*******************************************************************************
  45:.\LedControl.c **** *	Static Variable Declarations
  46:.\LedControl.c **** ********************************************************************************/
  47:.\LedControl.c **** 
  48:.\LedControl.c **** static bool isRgbLedOn = false;
  49:.\LedControl.c **** static tLedColor ledColor = INIT_LED_COLOR;
  50:.\LedControl.c **** static tBrightLevel brightness = INIT_BRIGHT_LEVEL;
  51:.\LedControl.c **** 
  52:.\LedControl.c **** 
  53:.\LedControl.c **** /*******************************************************************************
  54:.\LedControl.c **** *   External Variable Declarations
  55:.\LedControl.c **** *******************************************************************************/
  56:.\LedControl.c **** 
  57:.\LedControl.c **** 
  58:.\LedControl.c **** /* Indicates the shift or delta in the slider centroid, accumulated over
  59:.\LedControl.c ****  * multiple scans. 
  60:.\LedControl.c ****  */
  61:.\LedControl.c **** extern uint32 accSliderDelta;
  62:.\LedControl.c **** 
  63:.\LedControl.c **** 
  64:.\LedControl.c **** /*******************************************************************************
  65:.\LedControl.c **** * Function Name: UpdateLedColor
  66:.\LedControl.c **** ********************************************************************************
  67:.\LedControl.c **** * Summary:
  68:.\LedControl.c **** *  Changes the color of the onboard RGB LED depending on the gesture 
  69:.\LedControl.c **** *  value passed to the function. This function also saves the new LED color 
  70:.\LedControl.c **** *  information in the global variable prevLEDColor.
  71:.\LedControl.c **** *
  72:.\LedControl.c **** * Parameters:
  73:.\LedControl.c **** *  gestureId - Id of the gesture detected.
  74:.\LedControl.c **** *
  75:.\LedControl.c **** * Return:
  76:.\LedControl.c **** *  None
  77:.\LedControl.c **** *
  78:.\LedControl.c **** *******************************************************************************/
  79:.\LedControl.c **** void UpdateLedColor(tGestureId gestureId)
  80:.\LedControl.c **** {
  81:.\LedControl.c **** 	if(capsenseButtonStatus == CENTRE_BTN_MASK)
  82:.\LedControl.c **** 	{
  83:.\LedControl.c **** 		/* Centre button is used to turn on/off the RGB LED */
  84:.\LedControl.c **** 		if(isRgbLedOn)
  85:.\LedControl.c **** 		{
  86:.\LedControl.c **** 			SetLedColor(COLOR_OFF, brightness); 
  87:.\LedControl.c **** 		}
  88:.\LedControl.c **** 		else
  89:.\LedControl.c **** 		{
ARM GAS  C:\Users\JAVIER~1\AppData\Local\Temp\cc7aakaO.s 			page 3


  90:.\LedControl.c **** 			SetLedColor(ledColor, brightness);
  91:.\LedControl.c **** 		}
  92:.\LedControl.c **** 	}
  93:.\LedControl.c **** 	else if(isRgbLedOn)
  94:.\LedControl.c **** 	{
  95:.\LedControl.c **** 		/* Check the gesture and control the output accordingly */	
  96:.\LedControl.c **** 		switch (gestureId)
  97:.\LedControl.c **** 		{		
  98:.\LedControl.c **** 		/* Change color in order of VIBGYOR. */
  99:.\LedControl.c **** 		case GESTURE_INNER_CLKWISE:
 100:.\LedControl.c **** 			switch (ledColor)
 101:.\LedControl.c **** 			{
 102:.\LedControl.c **** 			case COLOR_VIOLET:
 103:.\LedControl.c **** 				ledColor = COLOR_INDIGO;
 104:.\LedControl.c **** 				break;
 105:.\LedControl.c **** 			
 106:.\LedControl.c **** 			case COLOR_INDIGO:
 107:.\LedControl.c **** 				ledColor = COLOR_BLUE;
 108:.\LedControl.c **** 				break;
 109:.\LedControl.c **** 				
 110:.\LedControl.c **** 			case COLOR_BLUE:
 111:.\LedControl.c **** 				ledColor = COLOR_GREEN;
 112:.\LedControl.c **** 				break;
 113:.\LedControl.c **** 			
 114:.\LedControl.c **** 			case COLOR_GREEN:
 115:.\LedControl.c **** 				ledColor = COLOR_YELLOW;
 116:.\LedControl.c **** 				break;
 117:.\LedControl.c **** 			
 118:.\LedControl.c **** 			case COLOR_YELLOW:
 119:.\LedControl.c **** 				ledColor = COLOR_ORANGE;
 120:.\LedControl.c **** 				break;
 121:.\LedControl.c **** 			
 122:.\LedControl.c **** 			case COLOR_ORANGE:
 123:.\LedControl.c **** 				ledColor = COLOR_RED;
 124:.\LedControl.c **** 				break;
 125:.\LedControl.c **** 			
 126:.\LedControl.c **** 			case COLOR_RED:
 127:.\LedControl.c **** 				ledColor = COLOR_VIOLET;
 128:.\LedControl.c **** 				break;
 129:.\LedControl.c **** 
 130:.\LedControl.c **** 			default:
 131:.\LedControl.c **** 				ledColor = COLOR_VIOLET;
 132:.\LedControl.c **** 				break;
 133:.\LedControl.c **** 			}		
 134:.\LedControl.c **** 			break;
 135:.\LedControl.c **** 			
 136:.\LedControl.c **** 			/* Fine color change in reverse order of VIBGYOR. */
 137:.\LedControl.c **** 		case GESTURE_INNER_COUNTER_CLKWISE:
 138:.\LedControl.c **** 			switch (ledColor)
 139:.\LedControl.c **** 			{
 140:.\LedControl.c **** 			case COLOR_VIOLET:
 141:.\LedControl.c **** 				ledColor = COLOR_RED;
 142:.\LedControl.c **** 				break;
 143:.\LedControl.c **** 			
 144:.\LedControl.c **** 			case COLOR_INDIGO:
 145:.\LedControl.c **** 				ledColor = COLOR_VIOLET;
 146:.\LedControl.c **** 				break;
ARM GAS  C:\Users\JAVIER~1\AppData\Local\Temp\cc7aakaO.s 			page 4


 147:.\LedControl.c **** 				
 148:.\LedControl.c **** 			case COLOR_BLUE:
 149:.\LedControl.c **** 				ledColor = COLOR_INDIGO;
 150:.\LedControl.c **** 				break;
 151:.\LedControl.c **** 			
 152:.\LedControl.c **** 			case COLOR_GREEN:
 153:.\LedControl.c **** 				ledColor = COLOR_BLUE;
 154:.\LedControl.c **** 				break;
 155:.\LedControl.c **** 			
 156:.\LedControl.c **** 			case COLOR_YELLOW:
 157:.\LedControl.c **** 				ledColor = COLOR_GREEN;
 158:.\LedControl.c **** 				break;
 159:.\LedControl.c **** 			
 160:.\LedControl.c **** 			case COLOR_ORANGE:
 161:.\LedControl.c **** 				ledColor = COLOR_YELLOW;
 162:.\LedControl.c **** 				break;
 163:.\LedControl.c **** 			
 164:.\LedControl.c **** 			case COLOR_RED:
 165:.\LedControl.c **** 				ledColor = COLOR_ORANGE;
 166:.\LedControl.c **** 				break;
 167:.\LedControl.c **** 
 168:.\LedControl.c **** 			default:
 169:.\LedControl.c **** 				ledColor = COLOR_RED;
 170:.\LedControl.c **** 				break;
 171:.\LedControl.c **** 			}	
 172:.\LedControl.c **** 				break;
 173:.\LedControl.c **** 		
 174:.\LedControl.c **** 		case GESTURE_OUTER_CLKWISE:													
 175:.\LedControl.c **** 			switch(brightness)
 176:.\LedControl.c **** 			{
 177:.\LedControl.c **** 				case BRIGHT_LEVEL_0:
 178:.\LedControl.c **** 					brightness = BRIGHT_LEVEL_1;
 179:.\LedControl.c **** 					break;
 180:.\LedControl.c **** 				
 181:.\LedControl.c **** 				case BRIGHT_LEVEL_1:
 182:.\LedControl.c **** 					brightness = BRIGHT_LEVEL_2;
 183:.\LedControl.c **** 					break;
 184:.\LedControl.c **** 				
 185:.\LedControl.c **** 				case BRIGHT_LEVEL_2:
 186:.\LedControl.c **** 					brightness = BRIGHT_LEVEL_3;
 187:.\LedControl.c **** 					break;
 188:.\LedControl.c **** 				
 189:.\LedControl.c **** 				case BRIGHT_LEVEL_3:
 190:.\LedControl.c **** 					brightness = BRIGHT_LEVEL_4;
 191:.\LedControl.c **** 					break;
 192:.\LedControl.c **** 				
 193:.\LedControl.c **** 				case BRIGHT_LEVEL_4:
 194:.\LedControl.c **** 					brightness = BRIGHT_LEVEL_5;
 195:.\LedControl.c **** 					break;
 196:.\LedControl.c **** 				
 197:.\LedControl.c **** 				case BRIGHT_LEVEL_5:
 198:.\LedControl.c **** 					brightness = BRIGHT_LEVEL_6;
 199:.\LedControl.c **** 					break;
 200:.\LedControl.c **** 				
 201:.\LedControl.c **** 				case BRIGHT_LEVEL_6:
 202:.\LedControl.c **** 					brightness = BRIGHT_LEVEL_7;
 203:.\LedControl.c **** 					break;
ARM GAS  C:\Users\JAVIER~1\AppData\Local\Temp\cc7aakaO.s 			page 5


 204:.\LedControl.c **** 				
 205:.\LedControl.c **** 				case BRIGHT_LEVEL_7:
 206:.\LedControl.c **** 					brightness = BRIGHT_LEVEL_8;
 207:.\LedControl.c **** 					break;
 208:.\LedControl.c **** 				
 209:.\LedControl.c **** 				case BRIGHT_LEVEL_8:
 210:.\LedControl.c **** 					brightness = BRIGHT_LEVEL_9;
 211:.\LedControl.c **** 					break;
 212:.\LedControl.c **** 				
 213:.\LedControl.c **** 				case BRIGHT_LEVEL_9:
 214:.\LedControl.c **** 				/* Saturate at the maximum brightness. */
 215:.\LedControl.c **** 					brightness = BRIGHT_LEVEL_9;
 216:.\LedControl.c **** 					break;
 217:.\LedControl.c **** 				
 218:.\LedControl.c **** 				default:
 219:.\LedControl.c **** 					/* Start with a default brightness of 70%. */
 220:.\LedControl.c **** 					brightness = BRIGHT_LEVEL_7;
 221:.\LedControl.c **** 					break;		
 222:.\LedControl.c **** 			}			
 223:.\LedControl.c **** 			break;
 224:.\LedControl.c **** 			
 225:.\LedControl.c **** 		case GESTURE_OUTER_COUNTER_CLKWISE:										
 226:.\LedControl.c **** 			switch(brightness)
 227:.\LedControl.c **** 			{
 228:.\LedControl.c **** 				case BRIGHT_LEVEL_0:
 229:.\LedControl.c **** 				
 230:.\LedControl.c **** 					/* Saturate at the minimum brightness. */
 231:.\LedControl.c **** 					brightness = BRIGHT_LEVEL_0;
 232:.\LedControl.c **** 					break;
 233:.\LedControl.c **** 				
 234:.\LedControl.c **** 				case BRIGHT_LEVEL_1:
 235:.\LedControl.c **** 					brightness = BRIGHT_LEVEL_0;
 236:.\LedControl.c **** 					break;
 237:.\LedControl.c **** 				
 238:.\LedControl.c **** 				case BRIGHT_LEVEL_2:
 239:.\LedControl.c **** 					brightness = BRIGHT_LEVEL_1;
 240:.\LedControl.c **** 					break;
 241:.\LedControl.c **** 				
 242:.\LedControl.c **** 				case BRIGHT_LEVEL_3:
 243:.\LedControl.c **** 					brightness = BRIGHT_LEVEL_2;
 244:.\LedControl.c **** 					break;
 245:.\LedControl.c **** 				
 246:.\LedControl.c **** 				case BRIGHT_LEVEL_4:
 247:.\LedControl.c **** 					brightness = BRIGHT_LEVEL_3;
 248:.\LedControl.c **** 					break;
 249:.\LedControl.c **** 				
 250:.\LedControl.c **** 				case BRIGHT_LEVEL_5:
 251:.\LedControl.c **** 					brightness = BRIGHT_LEVEL_4;
 252:.\LedControl.c **** 					break;
 253:.\LedControl.c **** 				
 254:.\LedControl.c **** 				case BRIGHT_LEVEL_6:
 255:.\LedControl.c **** 					brightness = BRIGHT_LEVEL_5;
 256:.\LedControl.c **** 					break;
 257:.\LedControl.c **** 				
 258:.\LedControl.c **** 				case BRIGHT_LEVEL_7:
 259:.\LedControl.c **** 					brightness = BRIGHT_LEVEL_6;
 260:.\LedControl.c **** 					break;
ARM GAS  C:\Users\JAVIER~1\AppData\Local\Temp\cc7aakaO.s 			page 6


 261:.\LedControl.c **** 				
 262:.\LedControl.c **** 				case BRIGHT_LEVEL_8:
 263:.\LedControl.c **** 					brightness = BRIGHT_LEVEL_7;
 264:.\LedControl.c **** 					break;
 265:.\LedControl.c **** 				
 266:.\LedControl.c **** 				case BRIGHT_LEVEL_9:
 267:.\LedControl.c **** 					brightness = BRIGHT_LEVEL_8;
 268:.\LedControl.c **** 					break;
 269:.\LedControl.c **** 				
 270:.\LedControl.c **** 				default:
 271:.\LedControl.c **** 					/* Start with a default brightness of 70%. */
 272:.\LedControl.c **** 					brightness = BRIGHT_LEVEL_7;
 273:.\LedControl.c **** 					break;
 274:.\LedControl.c **** 				}
 275:.\LedControl.c **** 				
 276:.\LedControl.c **** 				break;
 277:.\LedControl.c **** 					
 278:.\LedControl.c **** 			default:
 279:.\LedControl.c **** 				break;
 280:.\LedControl.c **** 		}
 281:.\LedControl.c **** 		
 282:.\LedControl.c **** 		/* Show the color on the RGB LED. */
 283:.\LedControl.c **** 		SetLedColor(ledColor, brightness);		
 284:.\LedControl.c **** 	}	
 285:.\LedControl.c **** }
 286:.\LedControl.c **** 
 287:.\LedControl.c **** 
 288:.\LedControl.c **** /******************************************************************************
 289:.\LedControl.c **** * Function Name: SetLedColor
 290:.\LedControl.c **** *******************************************************************************
 291:.\LedControl.c **** * Summary:
 292:.\LedControl.c **** *  Shows a specific color on the onboard RGB LED at a specified
 293:.\LedControl.c **** *  brightness level depending on the parameters.
 294:.\LedControl.c **** *
 295:.\LedControl.c **** * Parameters:
 296:.\LedControl.c **** *  color - LED color to be shown on the RGB LED.
 297:.\LedControl.c **** *  tempBrightness - Brightness level of the LED.
 298:.\LedControl.c **** *
 299:.\LedControl.c **** * Return:
 300:.\LedControl.c **** *  None
 301:.\LedControl.c **** *
 302:.\LedControl.c **** *******************************************************************************/
 303:.\LedControl.c **** void SetLedColor(tLedColor color, tBrightLevel tempBrightness)
 304:.\LedControl.c **** {
  26              		.loc 1 304 0
  27              		.cfi_startproc
  28              	.LVL0:
  29 0000 10B5     		push	{r4, lr}
  30              		.cfi_def_cfa_offset 8
  31              		.cfi_offset 4, -8
  32              		.cfi_offset 14, -4
 305:.\LedControl.c **** 	/* Show the color on the LED by controlling the PWMs. 
 306:.\LedControl.c **** 	 * Note that the colors are only approximate. */
 307:.\LedControl.c **** 	
 308:.\LedControl.c **** 	if(color == COLOR_OFF)
  33              		.loc 1 308 0
  34 0002 0028     		cmp	r0, #0
ARM GAS  C:\Users\JAVIER~1\AppData\Local\Temp\cc7aakaO.s 			page 7


  35 0004 03D1     		bne	.L2
 309:.\LedControl.c **** 	{
 310:.\LedControl.c **** 		isRgbLedOn = false; 
  36              		.loc 1 310 0
  37 0006 0022     		mov	r2, #0
  38 0008 394B     		ldr	r3, .L15
  39 000a 1A70     		strb	r2, [r3]
  40 000c 05E0     		b	.L3
  41              	.L2:
 311:.\LedControl.c **** 	}
 312:.\LedControl.c **** 	else 
 313:.\LedControl.c **** 	{
 314:.\LedControl.c **** 		isRgbLedOn = true;
  42              		.loc 1 314 0
  43 000e 384B     		ldr	r3, .L15
  44 0010 0122     		mov	r2, #1
  45 0012 1A70     		strb	r2, [r3]
 315:.\LedControl.c **** 		/* Copy the color and brightness values to the static variables */
 316:.\LedControl.c **** 		ledColor = color;
  46              		.loc 1 316 0
  47 0014 5870     		strb	r0, [r3, #1]
 317:.\LedControl.c **** 		brightness = tempBrightness;
  48              		.loc 1 317 0
  49 0016 374B     		ldr	r3, .L15+4
  50 0018 1980     		strh	r1, [r3]
  51              	.L3:
 318:.\LedControl.c **** 	}
 319:.\LedControl.c **** 	
 320:.\LedControl.c **** 	switch(color)
  52              		.loc 1 320 0
  53 001a 0828     		cmp	r0, #8
  54 001c 66D8     		bhi	.L1
  55 001e 8000     		lsl	r0, r0, #2
  56              	.LVL1:
  57 0020 354B     		ldr	r3, .L15+8
  58 0022 1B58     		ldr	r3, [r3, r0]
  59 0024 9F46     		mov	pc, r3
  60              		.section	.rodata
  61              		.align	2
  62              	.L6:
  63 0000 26000000 		.word	.L5
  64 0004 50000000 		.word	.L7
  65 0008 66000000 		.word	.L8
  66 000c 7E000000 		.word	.L9
  67 0010 94000000 		.word	.L10
  68 0014 AA000000 		.word	.L11
  69 0018 C0000000 		.word	.L12
  70 001c D8000000 		.word	.L13
  71 0020 3A000000 		.word	.L14
  72              		.section	.text.SetLedColor
  73              	.L5:
 321:.\LedControl.c **** 	{
 322:.\LedControl.c **** 	case COLOR_OFF:
 323:.\LedControl.c **** 		PWM_Red_WriteCompare(LED_OFF_PWM_PERIOD);
  74              		.loc 1 323 0
  75 0026 0020     		mov	r0, #0
  76 0028 FFF7FEFF 		bl	PWM_Red_WriteCompare
ARM GAS  C:\Users\JAVIER~1\AppData\Local\Temp\cc7aakaO.s 			page 8


  77              	.LVL2:
 324:.\LedControl.c **** 		PWM_Blue_WriteCompare(LED_OFF_PWM_PERIOD);
  78              		.loc 1 324 0
  79 002c 0020     		mov	r0, #0
  80 002e FFF7FEFF 		bl	PWM_Blue_WriteCompare
  81              	.LVL3:
 325:.\LedControl.c **** 		PWM_Green_WriteCompare(LED_OFF_PWM_PERIOD);
  82              		.loc 1 325 0
  83 0032 0020     		mov	r0, #0
  84 0034 FFF7FEFF 		bl	PWM_Green_WriteCompare
  85              	.LVL4:
 326:.\LedControl.c **** 		break;
  86              		.loc 1 326 0
  87 0038 58E0     		b	.L1
  88              	.LVL5:
  89              	.L14:
 327:.\LedControl.c **** 	
 328:.\LedControl.c **** 	case COLOR_WHITE:
 329:.\LedControl.c **** 		PWM_Red_WriteCompare(brightness);
  90              		.loc 1 329 0
  91 003a 2E4C     		ldr	r4, .L15+4
  92 003c 2088     		ldrh	r0, [r4]
  93 003e FFF7FEFF 		bl	PWM_Red_WriteCompare
  94              	.LVL6:
 330:.\LedControl.c **** 		PWM_Blue_WriteCompare(brightness);
  95              		.loc 1 330 0
  96 0042 2088     		ldrh	r0, [r4]
  97 0044 FFF7FEFF 		bl	PWM_Blue_WriteCompare
  98              	.LVL7:
 331:.\LedControl.c **** 		PWM_Green_WriteCompare(brightness);
  99              		.loc 1 331 0
 100 0048 2088     		ldrh	r0, [r4]
 101 004a FFF7FEFF 		bl	PWM_Green_WriteCompare
 102              	.LVL8:
 332:.\LedControl.c **** 		break;
 103              		.loc 1 332 0
 104 004e 4DE0     		b	.L1
 105              	.LVL9:
 106              	.L7:
 333:.\LedControl.c **** 	
 334:.\LedControl.c **** 	case COLOR_VIOLET:
 335:.\LedControl.c **** 		PWM_Red_WriteCompare(brightness);
 107              		.loc 1 335 0
 108 0050 284C     		ldr	r4, .L15+4
 109 0052 2088     		ldrh	r0, [r4]
 110 0054 FFF7FEFF 		bl	PWM_Red_WriteCompare
 111              	.LVL10:
 336:.\LedControl.c **** 		PWM_Blue_WriteCompare(brightness);
 112              		.loc 1 336 0
 113 0058 2088     		ldrh	r0, [r4]
 114 005a FFF7FEFF 		bl	PWM_Blue_WriteCompare
 115              	.LVL11:
 337:.\LedControl.c **** 		PWM_Green_WriteCompare(LED_OFF_PWM_PERIOD);
 116              		.loc 1 337 0
 117 005e 0020     		mov	r0, #0
 118 0060 FFF7FEFF 		bl	PWM_Green_WriteCompare
 119              	.LVL12:
ARM GAS  C:\Users\JAVIER~1\AppData\Local\Temp\cc7aakaO.s 			page 9


 338:.\LedControl.c **** 		break;
 120              		.loc 1 338 0
 121 0064 42E0     		b	.L1
 122              	.LVL13:
 123              	.L8:
 339:.\LedControl.c **** 	
 340:.\LedControl.c **** 	case COLOR_INDIGO:
 341:.\LedControl.c **** 		PWM_Red_WriteCompare(brightness/4);
 124              		.loc 1 341 0
 125 0066 234C     		ldr	r4, .L15+4
 126 0068 2088     		ldrh	r0, [r4]
 127 006a 8008     		lsr	r0, r0, #2
 128 006c FFF7FEFF 		bl	PWM_Red_WriteCompare
 129              	.LVL14:
 342:.\LedControl.c **** 		PWM_Blue_WriteCompare(brightness);
 130              		.loc 1 342 0
 131 0070 2088     		ldrh	r0, [r4]
 132 0072 FFF7FEFF 		bl	PWM_Blue_WriteCompare
 133              	.LVL15:
 343:.\LedControl.c **** 		PWM_Green_WriteCompare(LED_OFF_PWM_PERIOD);
 134              		.loc 1 343 0
 135 0076 0020     		mov	r0, #0
 136 0078 FFF7FEFF 		bl	PWM_Green_WriteCompare
 137              	.LVL16:
 344:.\LedControl.c **** 		break;
 138              		.loc 1 344 0
 139 007c 36E0     		b	.L1
 140              	.LVL17:
 141              	.L9:
 345:.\LedControl.c **** 		
 346:.\LedControl.c **** 	case COLOR_BLUE:
 347:.\LedControl.c **** 		PWM_Red_WriteCompare(LED_OFF_PWM_PERIOD);
 142              		.loc 1 347 0
 143 007e 0020     		mov	r0, #0
 144 0080 FFF7FEFF 		bl	PWM_Red_WriteCompare
 145              	.LVL18:
 348:.\LedControl.c **** 		PWM_Blue_WriteCompare(brightness);
 146              		.loc 1 348 0
 147 0084 1B4B     		ldr	r3, .L15+4
 148 0086 1888     		ldrh	r0, [r3]
 149 0088 FFF7FEFF 		bl	PWM_Blue_WriteCompare
 150              	.LVL19:
 349:.\LedControl.c **** 		PWM_Green_WriteCompare(LED_OFF_PWM_PERIOD);
 151              		.loc 1 349 0
 152 008c 0020     		mov	r0, #0
 153 008e FFF7FEFF 		bl	PWM_Green_WriteCompare
 154              	.LVL20:
 350:.\LedControl.c **** 		break;
 155              		.loc 1 350 0
 156 0092 2BE0     		b	.L1
 157              	.LVL21:
 158              	.L10:
 351:.\LedControl.c **** 	
 352:.\LedControl.c **** 	case COLOR_GREEN:
 353:.\LedControl.c **** 		PWM_Red_WriteCompare(LED_OFF_PWM_PERIOD);
 159              		.loc 1 353 0
 160 0094 0020     		mov	r0, #0
ARM GAS  C:\Users\JAVIER~1\AppData\Local\Temp\cc7aakaO.s 			page 10


 161 0096 FFF7FEFF 		bl	PWM_Red_WriteCompare
 162              	.LVL22:
 354:.\LedControl.c **** 		PWM_Blue_WriteCompare(LED_OFF_PWM_PERIOD);
 163              		.loc 1 354 0
 164 009a 0020     		mov	r0, #0
 165 009c FFF7FEFF 		bl	PWM_Blue_WriteCompare
 166              	.LVL23:
 355:.\LedControl.c **** 		PWM_Green_WriteCompare(brightness);
 167              		.loc 1 355 0
 168 00a0 144B     		ldr	r3, .L15+4
 169 00a2 1888     		ldrh	r0, [r3]
 170 00a4 FFF7FEFF 		bl	PWM_Green_WriteCompare
 171              	.LVL24:
 356:.\LedControl.c **** 		break;
 172              		.loc 1 356 0
 173 00a8 20E0     		b	.L1
 174              	.LVL25:
 175              	.L11:
 357:.\LedControl.c **** 	
 358:.\LedControl.c **** 	case COLOR_YELLOW:
 359:.\LedControl.c **** 		PWM_Red_WriteCompare(brightness);
 176              		.loc 1 359 0
 177 00aa 124C     		ldr	r4, .L15+4
 178 00ac 2088     		ldrh	r0, [r4]
 179 00ae FFF7FEFF 		bl	PWM_Red_WriteCompare
 180              	.LVL26:
 360:.\LedControl.c **** 		PWM_Blue_WriteCompare(LED_OFF_PWM_PERIOD);
 181              		.loc 1 360 0
 182 00b2 0020     		mov	r0, #0
 183 00b4 FFF7FEFF 		bl	PWM_Blue_WriteCompare
 184              	.LVL27:
 361:.\LedControl.c **** 		PWM_Green_WriteCompare(brightness);
 185              		.loc 1 361 0
 186 00b8 2088     		ldrh	r0, [r4]
 187 00ba FFF7FEFF 		bl	PWM_Green_WriteCompare
 188              	.LVL28:
 362:.\LedControl.c **** 		break;
 189              		.loc 1 362 0
 190 00be 15E0     		b	.L1
 191              	.LVL29:
 192              	.L12:
 363:.\LedControl.c **** 	
 364:.\LedControl.c **** 	case COLOR_ORANGE:
 365:.\LedControl.c **** 		PWM_Red_WriteCompare(brightness);
 193              		.loc 1 365 0
 194 00c0 0C4C     		ldr	r4, .L15+4
 195 00c2 2088     		ldrh	r0, [r4]
 196 00c4 FFF7FEFF 		bl	PWM_Red_WriteCompare
 197              	.LVL30:
 366:.\LedControl.c **** 		PWM_Blue_WriteCompare(LED_OFF_PWM_PERIOD);
 198              		.loc 1 366 0
 199 00c8 0020     		mov	r0, #0
 200 00ca FFF7FEFF 		bl	PWM_Blue_WriteCompare
 201              	.LVL31:
 367:.\LedControl.c **** 		PWM_Green_WriteCompare(brightness/2);	
 202              		.loc 1 367 0
 203 00ce 2088     		ldrh	r0, [r4]
ARM GAS  C:\Users\JAVIER~1\AppData\Local\Temp\cc7aakaO.s 			page 11


 204 00d0 4008     		lsr	r0, r0, #1
 205 00d2 FFF7FEFF 		bl	PWM_Green_WriteCompare
 206              	.LVL32:
 368:.\LedControl.c **** 		break;
 207              		.loc 1 368 0
 208 00d6 09E0     		b	.L1
 209              	.LVL33:
 210              	.L13:
 369:.\LedControl.c **** 		
 370:.\LedControl.c **** 	case COLOR_RED:
 371:.\LedControl.c **** 		PWM_Red_WriteCompare(brightness);
 211              		.loc 1 371 0
 212 00d8 064B     		ldr	r3, .L15+4
 213 00da 1888     		ldrh	r0, [r3]
 214 00dc FFF7FEFF 		bl	PWM_Red_WriteCompare
 215              	.LVL34:
 372:.\LedControl.c **** 		PWM_Blue_WriteCompare(LED_OFF_PWM_PERIOD);
 216              		.loc 1 372 0
 217 00e0 0020     		mov	r0, #0
 218 00e2 FFF7FEFF 		bl	PWM_Blue_WriteCompare
 219              	.LVL35:
 373:.\LedControl.c **** 		PWM_Green_WriteCompare(LED_OFF_PWM_PERIOD);
 220              		.loc 1 373 0
 221 00e6 0020     		mov	r0, #0
 222 00e8 FFF7FEFF 		bl	PWM_Green_WriteCompare
 223              	.LVL36:
 224              	.L1:
 374:.\LedControl.c **** 		break;
 375:.\LedControl.c **** 		
 376:.\LedControl.c **** 	default:
 377:.\LedControl.c **** 		break;
 378:.\LedControl.c **** 	}
 379:.\LedControl.c **** }
 225              		.loc 1 379 0
 226              		@ sp needed
 227 00ec 10BD     		pop	{r4, pc}
 228              	.L16:
 229 00ee C046     		.align	2
 230              	.L15:
 231 00f0 00000000 		.word	.LANCHOR0
 232 00f4 00000000 		.word	.LANCHOR1
 233 00f8 00000000 		.word	.L6
 234              		.cfi_endproc
 235              	.LFE38:
 236              		.size	SetLedColor, .-SetLedColor
 237              		.section	.text.UpdateLedColor,"ax",%progbits
 238              		.align	2
 239              		.global	UpdateLedColor
 240              		.code	16
 241              		.thumb_func
 242              		.type	UpdateLedColor, %function
 243              	UpdateLedColor:
 244              	.LFB37:
  80:.\LedControl.c **** 	if(capsenseButtonStatus == CENTRE_BTN_MASK)
 245              		.loc 1 80 0
 246              		.cfi_startproc
 247              	.LVL37:
ARM GAS  C:\Users\JAVIER~1\AppData\Local\Temp\cc7aakaO.s 			page 12


 248 0000 08B5     		push	{r3, lr}
 249              		.cfi_def_cfa_offset 8
 250              		.cfi_offset 3, -8
 251              		.cfi_offset 14, -4
  81:.\LedControl.c **** 	{
 252              		.loc 1 81 0
 253 0002 9D4B     		ldr	r3, .L73
 254 0004 1B68     		ldr	r3, [r3]
 255 0006 102B     		cmp	r3, #16
 256 0008 10D1     		bne	.L18
  84:.\LedControl.c **** 		{
 257              		.loc 1 84 0
 258 000a 9C4B     		ldr	r3, .L73+4
 259 000c 1B78     		ldrb	r3, [r3]
 260 000e 002B     		cmp	r3, #0
 261 0010 05D0     		beq	.L19
  86:.\LedControl.c **** 		}
 262              		.loc 1 86 0
 263 0012 9B4B     		ldr	r3, .L73+8
 264 0014 1988     		ldrh	r1, [r3]
 265 0016 0020     		mov	r0, #0
 266              	.LVL38:
 267 0018 FFF7FEFF 		bl	SetLedColor
 268              	.LVL39:
 269 001c 2AE1     		b	.L17
 270              	.LVL40:
 271              	.L19:
  90:.\LedControl.c **** 		}
 272              		.loc 1 90 0
 273 001e 974B     		ldr	r3, .L73+4
 274 0020 5878     		ldrb	r0, [r3, #1]
 275              	.LVL41:
 276 0022 974B     		ldr	r3, .L73+8
 277 0024 1988     		ldrh	r1, [r3]
 278 0026 FFF7FEFF 		bl	SetLedColor
 279              	.LVL42:
 280 002a 23E1     		b	.L17
 281              	.LVL43:
 282              	.L18:
  93:.\LedControl.c **** 	{
 283              		.loc 1 93 0
 284 002c 934B     		ldr	r3, .L73+4
 285 002e 1B78     		ldrb	r3, [r3]
 286 0030 002B     		cmp	r3, #0
 287 0032 00D1     		bne	.LCB244
 288 0034 1EE1     		b	.L17	@long jump
 289              	.LCB244:
  96:.\LedControl.c **** 		{		
 290              		.loc 1 96 0
 291 0036 0B28     		cmp	r0, #11
 292 0038 31D0     		beq	.L22
 293 003a 02D8     		bhi	.L23
 294 003c 0A28     		cmp	r0, #10
 295 003e 06D0     		beq	.L24
 296 0040 12E1     		b	.L21
 297              	.L23:
 298 0042 0C28     		cmp	r0, #12
ARM GAS  C:\Users\JAVIER~1\AppData\Local\Temp\cc7aakaO.s 			page 13


 299 0044 53D0     		beq	.L25
 300 0046 0D28     		cmp	r0, #13
 301 0048 00D1     		bne	.LCB258
 302 004a AEE0     		b	.L26	@long jump
 303              	.LCB258:
 304 004c 0CE1     		b	.L21
 305              	.L24:
 100:.\LedControl.c **** 			{
 306              		.loc 1 100 0
 307 004e 8B4B     		ldr	r3, .L73+4
 308 0050 5A78     		ldrb	r2, [r3, #1]
 309 0052 072A     		cmp	r2, #7
 310 0054 1FD8     		bhi	.L27
 311 0056 9300     		lsl	r3, r2, #2
 312 0058 8A4A     		ldr	r2, .L73+12
 313 005a D358     		ldr	r3, [r2, r3]
 314 005c 9F46     		mov	pc, r3
 315              		.section	.rodata
 316              		.align	2
 317              	.L29:
 318 0024 96000000 		.word	.L27
 319 0028 5E000000 		.word	.L28
 320 002c 66000000 		.word	.L30
 321 0030 6E000000 		.word	.L31
 322 0034 76000000 		.word	.L32
 323 0038 7E000000 		.word	.L33
 324 003c 86000000 		.word	.L34
 325 0040 8E000000 		.word	.L35
 326              		.section	.text.UpdateLedColor
 327              	.L28:
 103:.\LedControl.c **** 				break;
 328              		.loc 1 103 0
 329 005e 0222     		mov	r2, #2
 330 0060 864B     		ldr	r3, .L73+4
 331 0062 5A70     		strb	r2, [r3, #1]
 104:.\LedControl.c **** 			
 332              		.loc 1 104 0
 333 0064 00E1     		b	.L21
 334              	.L30:
 107:.\LedControl.c **** 				break;
 335              		.loc 1 107 0
 336 0066 0322     		mov	r2, #3
 337 0068 844B     		ldr	r3, .L73+4
 338 006a 5A70     		strb	r2, [r3, #1]
 108:.\LedControl.c **** 				
 339              		.loc 1 108 0
 340 006c FCE0     		b	.L21
 341              	.L31:
 111:.\LedControl.c **** 				break;
 342              		.loc 1 111 0
 343 006e 0422     		mov	r2, #4
 344 0070 824B     		ldr	r3, .L73+4
 345 0072 5A70     		strb	r2, [r3, #1]
 112:.\LedControl.c **** 			
 346              		.loc 1 112 0
 347 0074 F8E0     		b	.L21
 348              	.L32:
ARM GAS  C:\Users\JAVIER~1\AppData\Local\Temp\cc7aakaO.s 			page 14


 115:.\LedControl.c **** 				break;
 349              		.loc 1 115 0
 350 0076 0522     		mov	r2, #5
 351 0078 804B     		ldr	r3, .L73+4
 352 007a 5A70     		strb	r2, [r3, #1]
 116:.\LedControl.c **** 			
 353              		.loc 1 116 0
 354 007c F4E0     		b	.L21
 355              	.L33:
 119:.\LedControl.c **** 				break;
 356              		.loc 1 119 0
 357 007e 0622     		mov	r2, #6
 358 0080 7E4B     		ldr	r3, .L73+4
 359 0082 5A70     		strb	r2, [r3, #1]
 120:.\LedControl.c **** 			
 360              		.loc 1 120 0
 361 0084 F0E0     		b	.L21
 362              	.L34:
 123:.\LedControl.c **** 				break;
 363              		.loc 1 123 0
 364 0086 0722     		mov	r2, #7
 365 0088 7C4B     		ldr	r3, .L73+4
 366 008a 5A70     		strb	r2, [r3, #1]
 124:.\LedControl.c **** 			
 367              		.loc 1 124 0
 368 008c ECE0     		b	.L21
 369              	.L35:
 127:.\LedControl.c **** 				break;
 370              		.loc 1 127 0
 371 008e 0122     		mov	r2, #1
 372 0090 7A4B     		ldr	r3, .L73+4
 373 0092 5A70     		strb	r2, [r3, #1]
 128:.\LedControl.c **** 
 374              		.loc 1 128 0
 375 0094 E8E0     		b	.L21
 376              	.L27:
 131:.\LedControl.c **** 				break;
 377              		.loc 1 131 0
 378 0096 0122     		mov	r2, #1
 379 0098 784B     		ldr	r3, .L73+4
 380 009a 5A70     		strb	r2, [r3, #1]
 132:.\LedControl.c **** 			}		
 381              		.loc 1 132 0
 382 009c E4E0     		b	.L21
 383              	.L22:
 138:.\LedControl.c **** 			{
 384              		.loc 1 138 0
 385 009e 774B     		ldr	r3, .L73+4
 386 00a0 5A78     		ldrb	r2, [r3, #1]
 387 00a2 072A     		cmp	r2, #7
 388 00a4 1FD8     		bhi	.L36
 389 00a6 9300     		lsl	r3, r2, #2
 390 00a8 774A     		ldr	r2, .L73+16
 391 00aa D358     		ldr	r3, [r2, r3]
 392 00ac 9F46     		mov	pc, r3
 393              		.section	.rodata
 394              		.align	2
ARM GAS  C:\Users\JAVIER~1\AppData\Local\Temp\cc7aakaO.s 			page 15


 395              	.L38:
 396 0044 E6000000 		.word	.L36
 397 0048 AE000000 		.word	.L37
 398 004c B6000000 		.word	.L39
 399 0050 BE000000 		.word	.L40
 400 0054 C6000000 		.word	.L41
 401 0058 CE000000 		.word	.L42
 402 005c D6000000 		.word	.L43
 403 0060 DE000000 		.word	.L44
 404              		.section	.text.UpdateLedColor
 405              	.L37:
 141:.\LedControl.c **** 				break;
 406              		.loc 1 141 0
 407 00ae 0722     		mov	r2, #7
 408 00b0 724B     		ldr	r3, .L73+4
 409 00b2 5A70     		strb	r2, [r3, #1]
 142:.\LedControl.c **** 			
 410              		.loc 1 142 0
 411 00b4 D8E0     		b	.L21
 412              	.L39:
 145:.\LedControl.c **** 				break;
 413              		.loc 1 145 0
 414 00b6 0122     		mov	r2, #1
 415 00b8 704B     		ldr	r3, .L73+4
 416 00ba 5A70     		strb	r2, [r3, #1]
 146:.\LedControl.c **** 				
 417              		.loc 1 146 0
 418 00bc D4E0     		b	.L21
 419              	.L40:
 149:.\LedControl.c **** 				break;
 420              		.loc 1 149 0
 421 00be 0222     		mov	r2, #2
 422 00c0 6E4B     		ldr	r3, .L73+4
 423 00c2 5A70     		strb	r2, [r3, #1]
 150:.\LedControl.c **** 			
 424              		.loc 1 150 0
 425 00c4 D0E0     		b	.L21
 426              	.L41:
 153:.\LedControl.c **** 				break;
 427              		.loc 1 153 0
 428 00c6 0322     		mov	r2, #3
 429 00c8 6C4B     		ldr	r3, .L73+4
 430 00ca 5A70     		strb	r2, [r3, #1]
 154:.\LedControl.c **** 			
 431              		.loc 1 154 0
 432 00cc CCE0     		b	.L21
 433              	.L42:
 157:.\LedControl.c **** 				break;
 434              		.loc 1 157 0
 435 00ce 0422     		mov	r2, #4
 436 00d0 6A4B     		ldr	r3, .L73+4
 437 00d2 5A70     		strb	r2, [r3, #1]
 158:.\LedControl.c **** 			
 438              		.loc 1 158 0
 439 00d4 C8E0     		b	.L21
 440              	.L43:
 161:.\LedControl.c **** 				break;
ARM GAS  C:\Users\JAVIER~1\AppData\Local\Temp\cc7aakaO.s 			page 16


 441              		.loc 1 161 0
 442 00d6 0522     		mov	r2, #5
 443 00d8 684B     		ldr	r3, .L73+4
 444 00da 5A70     		strb	r2, [r3, #1]
 162:.\LedControl.c **** 			
 445              		.loc 1 162 0
 446 00dc C4E0     		b	.L21
 447              	.L44:
 165:.\LedControl.c **** 				break;
 448              		.loc 1 165 0
 449 00de 0622     		mov	r2, #6
 450 00e0 664B     		ldr	r3, .L73+4
 451 00e2 5A70     		strb	r2, [r3, #1]
 166:.\LedControl.c **** 
 452              		.loc 1 166 0
 453 00e4 C0E0     		b	.L21
 454              	.L36:
 169:.\LedControl.c **** 				break;
 455              		.loc 1 169 0
 456 00e6 0722     		mov	r2, #7
 457 00e8 644B     		ldr	r3, .L73+4
 458 00ea 5A70     		strb	r2, [r3, #1]
 170:.\LedControl.c **** 			}	
 459              		.loc 1 170 0
 460 00ec BCE0     		b	.L21
 461              	.L25:
 175:.\LedControl.c **** 			{
 462              		.loc 1 175 0
 463 00ee 644B     		ldr	r3, .L73+8
 464 00f0 1B88     		ldrh	r3, [r3]
 465 00f2 FA22     		mov	r2, #250
 466 00f4 5201     		lsl	r2, r2, #5
 467 00f6 9342     		cmp	r3, r2
 468 00f8 3AD0     		beq	.L46
 469 00fa 12D8     		bhi	.L47
 470 00fc FA22     		mov	r2, #250
 471 00fe 9200     		lsl	r2, r2, #2
 472 0100 9342     		cmp	r3, r2
 473 0102 26D0     		beq	.L48
 474 0104 04D8     		bhi	.L49
 475 0106 F53A     		sub	r2, r2, #245
 476 0108 FF3A     		sub	r2, r2, #255
 477 010a 9342     		cmp	r3, r2
 478 010c 1CD0     		beq	.L50
 479 010e 48E0     		b	.L45
 480              	.L49:
 481 0110 FA22     		mov	r2, #250
 482 0112 D200     		lsl	r2, r2, #3
 483 0114 9342     		cmp	r3, r2
 484 0116 21D0     		beq	.L51
 485 0118 FA22     		mov	r2, #250
 486 011a 1201     		lsl	r2, r2, #4
 487 011c 9342     		cmp	r3, r2
 488 011e 22D0     		beq	.L52
 489 0120 3FE0     		b	.L45
 490              	.L47:
 491 0122 5A4A     		ldr	r2, .L73+20
ARM GAS  C:\Users\JAVIER~1\AppData\Local\Temp\cc7aakaO.s 			page 17


 492 0124 9342     		cmp	r3, r2
 493 0126 30D0     		beq	.L53
 494 0128 07D8     		bhi	.L54
 495 012a 594A     		ldr	r2, .L73+24
 496 012c 9342     		cmp	r3, r2
 497 012e 23D0     		beq	.L55
 498 0130 FA22     		mov	r2, #250
 499 0132 9201     		lsl	r2, r2, #6
 500 0134 9342     		cmp	r3, r2
 501 0136 24D0     		beq	.L56
 502 0138 33E0     		b	.L45
 503              	.L54:
 504 013a 564A     		ldr	r2, .L73+28
 505 013c 9342     		cmp	r3, r2
 506 013e 28D0     		beq	.L57
 507 0140 554A     		ldr	r2, .L73+32
 508 0142 9342     		cmp	r3, r2
 509 0144 29D0     		beq	.L58
 510 0146 2CE0     		b	.L45
 511              	.L50:
 178:.\LedControl.c **** 					break;
 512              		.loc 1 178 0
 513 0148 FA22     		mov	r2, #250
 514 014a 9200     		lsl	r2, r2, #2
 515 014c 4C4B     		ldr	r3, .L73+8
 516 014e 1A80     		strh	r2, [r3]
 179:.\LedControl.c **** 				
 517              		.loc 1 179 0
 518 0150 8AE0     		b	.L21
 519              	.L48:
 182:.\LedControl.c **** 					break;
 520              		.loc 1 182 0
 521 0152 FA22     		mov	r2, #250
 522 0154 D200     		lsl	r2, r2, #3
 523 0156 4A4B     		ldr	r3, .L73+8
 524 0158 1A80     		strh	r2, [r3]
 183:.\LedControl.c **** 				
 525              		.loc 1 183 0
 526 015a 85E0     		b	.L21
 527              	.L51:
 186:.\LedControl.c **** 					break;
 528              		.loc 1 186 0
 529 015c FA22     		mov	r2, #250
 530 015e 1201     		lsl	r2, r2, #4
 531 0160 474B     		ldr	r3, .L73+8
 532 0162 1A80     		strh	r2, [r3]
 187:.\LedControl.c **** 				
 533              		.loc 1 187 0
 534 0164 80E0     		b	.L21
 535              	.L52:
 190:.\LedControl.c **** 					break;
 536              		.loc 1 190 0
 537 0166 FA22     		mov	r2, #250
 538 0168 5201     		lsl	r2, r2, #5
 539 016a 454B     		ldr	r3, .L73+8
 540 016c 1A80     		strh	r2, [r3]
 191:.\LedControl.c **** 				
ARM GAS  C:\Users\JAVIER~1\AppData\Local\Temp\cc7aakaO.s 			page 18


 541              		.loc 1 191 0
 542 016e 7BE0     		b	.L21
 543              	.L46:
 194:.\LedControl.c **** 					break;
 544              		.loc 1 194 0
 545 0170 474A     		ldr	r2, .L73+24
 546 0172 434B     		ldr	r3, .L73+8
 547 0174 1A80     		strh	r2, [r3]
 195:.\LedControl.c **** 				
 548              		.loc 1 195 0
 549 0176 77E0     		b	.L21
 550              	.L55:
 198:.\LedControl.c **** 					break;
 551              		.loc 1 198 0
 552 0178 FA22     		mov	r2, #250
 553 017a 9201     		lsl	r2, r2, #6
 554 017c 404B     		ldr	r3, .L73+8
 555 017e 1A80     		strh	r2, [r3]
 199:.\LedControl.c **** 				
 556              		.loc 1 199 0
 557 0180 72E0     		b	.L21
 558              	.L56:
 202:.\LedControl.c **** 					break;
 559              		.loc 1 202 0
 560 0182 424A     		ldr	r2, .L73+20
 561 0184 3E4B     		ldr	r3, .L73+8
 562 0186 1A80     		strh	r2, [r3]
 203:.\LedControl.c **** 				
 563              		.loc 1 203 0
 564 0188 6EE0     		b	.L21
 565              	.L53:
 206:.\LedControl.c **** 					break;
 566              		.loc 1 206 0
 567 018a 424A     		ldr	r2, .L73+28
 568 018c 3C4B     		ldr	r3, .L73+8
 569 018e 1A80     		strh	r2, [r3]
 207:.\LedControl.c **** 				
 570              		.loc 1 207 0
 571 0190 6AE0     		b	.L21
 572              	.L57:
 210:.\LedControl.c **** 					break;
 573              		.loc 1 210 0
 574 0192 414A     		ldr	r2, .L73+32
 575 0194 3A4B     		ldr	r3, .L73+8
 576 0196 1A80     		strh	r2, [r3]
 211:.\LedControl.c **** 				
 577              		.loc 1 211 0
 578 0198 66E0     		b	.L21
 579              	.L58:
 215:.\LedControl.c **** 					break;
 580              		.loc 1 215 0
 581 019a 3F4A     		ldr	r2, .L73+32
 582 019c 384B     		ldr	r3, .L73+8
 583 019e 1A80     		strh	r2, [r3]
 216:.\LedControl.c **** 				
 584              		.loc 1 216 0
 585 01a0 62E0     		b	.L21
ARM GAS  C:\Users\JAVIER~1\AppData\Local\Temp\cc7aakaO.s 			page 19


 586              	.L45:
 220:.\LedControl.c **** 					break;		
 587              		.loc 1 220 0
 588 01a2 3A4A     		ldr	r2, .L73+20
 589 01a4 364B     		ldr	r3, .L73+8
 590 01a6 1A80     		strh	r2, [r3]
 221:.\LedControl.c **** 			}			
 591              		.loc 1 221 0
 592 01a8 5EE0     		b	.L21
 593              	.L26:
 226:.\LedControl.c **** 			{
 594              		.loc 1 226 0
 595 01aa 354B     		ldr	r3, .L73+8
 596 01ac 1B88     		ldrh	r3, [r3]
 597 01ae FA22     		mov	r2, #250
 598 01b0 5201     		lsl	r2, r2, #5
 599 01b2 9342     		cmp	r3, r2
 600 01b4 3AD0     		beq	.L60
 601 01b6 12D8     		bhi	.L61
 602 01b8 FA22     		mov	r2, #250
 603 01ba 9200     		lsl	r2, r2, #2
 604 01bc 9342     		cmp	r3, r2
 605 01be 26D0     		beq	.L62
 606 01c0 04D8     		bhi	.L63
 607 01c2 F53A     		sub	r2, r2, #245
 608 01c4 FF3A     		sub	r2, r2, #255
 609 01c6 9342     		cmp	r3, r2
 610 01c8 1CD0     		beq	.L64
 611 01ca 4AE0     		b	.L59
 612              	.L63:
 613 01cc FA22     		mov	r2, #250
 614 01ce D200     		lsl	r2, r2, #3
 615 01d0 9342     		cmp	r3, r2
 616 01d2 21D0     		beq	.L65
 617 01d4 FA22     		mov	r2, #250
 618 01d6 1201     		lsl	r2, r2, #4
 619 01d8 9342     		cmp	r3, r2
 620 01da 22D0     		beq	.L66
 621 01dc 41E0     		b	.L59
 622              	.L61:
 623 01de 2B4A     		ldr	r2, .L73+20
 624 01e0 9342     		cmp	r3, r2
 625 01e2 31D0     		beq	.L67
 626 01e4 07D8     		bhi	.L68
 627 01e6 2A4A     		ldr	r2, .L73+24
 628 01e8 9342     		cmp	r3, r2
 629 01ea 24D0     		beq	.L69
 630 01ec FA22     		mov	r2, #250
 631 01ee 9201     		lsl	r2, r2, #6
 632 01f0 9342     		cmp	r3, r2
 633 01f2 25D0     		beq	.L70
 634 01f4 35E0     		b	.L59
 635              	.L68:
 636 01f6 274A     		ldr	r2, .L73+28
 637 01f8 9342     		cmp	r3, r2
 638 01fa 2AD0     		beq	.L71
 639 01fc 264A     		ldr	r2, .L73+32
ARM GAS  C:\Users\JAVIER~1\AppData\Local\Temp\cc7aakaO.s 			page 20


 640 01fe 9342     		cmp	r3, r2
 641 0200 2BD0     		beq	.L72
 642 0202 2EE0     		b	.L59
 643              	.L64:
 231:.\LedControl.c **** 					break;
 644              		.loc 1 231 0
 645 0204 FA22     		mov	r2, #250
 646 0206 5200     		lsl	r2, r2, #1
 647 0208 1D4B     		ldr	r3, .L73+8
 648 020a 1A80     		strh	r2, [r3]
 232:.\LedControl.c **** 				
 649              		.loc 1 232 0
 650 020c 2CE0     		b	.L21
 651              	.L62:
 235:.\LedControl.c **** 					break;
 652              		.loc 1 235 0
 653 020e FA22     		mov	r2, #250
 654 0210 5200     		lsl	r2, r2, #1
 655 0212 1B4B     		ldr	r3, .L73+8
 656 0214 1A80     		strh	r2, [r3]
 236:.\LedControl.c **** 				
 657              		.loc 1 236 0
 658 0216 27E0     		b	.L21
 659              	.L65:
 239:.\LedControl.c **** 					break;
 660              		.loc 1 239 0
 661 0218 FA22     		mov	r2, #250
 662 021a 9200     		lsl	r2, r2, #2
 663 021c 184B     		ldr	r3, .L73+8
 664 021e 1A80     		strh	r2, [r3]
 240:.\LedControl.c **** 				
 665              		.loc 1 240 0
 666 0220 22E0     		b	.L21
 667              	.L66:
 243:.\LedControl.c **** 					break;
 668              		.loc 1 243 0
 669 0222 FA22     		mov	r2, #250
 670 0224 D200     		lsl	r2, r2, #3
 671 0226 164B     		ldr	r3, .L73+8
 672 0228 1A80     		strh	r2, [r3]
 244:.\LedControl.c **** 				
 673              		.loc 1 244 0
 674 022a 1DE0     		b	.L21
 675              	.L60:
 247:.\LedControl.c **** 					break;
 676              		.loc 1 247 0
 677 022c FA22     		mov	r2, #250
 678 022e 1201     		lsl	r2, r2, #4
 679 0230 134B     		ldr	r3, .L73+8
 680 0232 1A80     		strh	r2, [r3]
 248:.\LedControl.c **** 				
 681              		.loc 1 248 0
 682 0234 18E0     		b	.L21
 683              	.L69:
 251:.\LedControl.c **** 					break;
 684              		.loc 1 251 0
 685 0236 FA22     		mov	r2, #250
ARM GAS  C:\Users\JAVIER~1\AppData\Local\Temp\cc7aakaO.s 			page 21


 686 0238 5201     		lsl	r2, r2, #5
 687 023a 114B     		ldr	r3, .L73+8
 688 023c 1A80     		strh	r2, [r3]
 252:.\LedControl.c **** 				
 689              		.loc 1 252 0
 690 023e 13E0     		b	.L21
 691              	.L70:
 255:.\LedControl.c **** 					break;
 692              		.loc 1 255 0
 693 0240 134A     		ldr	r2, .L73+24
 694 0242 0F4B     		ldr	r3, .L73+8
 695 0244 1A80     		strh	r2, [r3]
 256:.\LedControl.c **** 				
 696              		.loc 1 256 0
 697 0246 0FE0     		b	.L21
 698              	.L67:
 259:.\LedControl.c **** 					break;
 699              		.loc 1 259 0
 700 0248 FA22     		mov	r2, #250
 701 024a 9201     		lsl	r2, r2, #6
 702 024c 0C4B     		ldr	r3, .L73+8
 703 024e 1A80     		strh	r2, [r3]
 260:.\LedControl.c **** 				
 704              		.loc 1 260 0
 705 0250 0AE0     		b	.L21
 706              	.L71:
 263:.\LedControl.c **** 					break;
 707              		.loc 1 263 0
 708 0252 0E4A     		ldr	r2, .L73+20
 709 0254 0A4B     		ldr	r3, .L73+8
 710 0256 1A80     		strh	r2, [r3]
 264:.\LedControl.c **** 				
 711              		.loc 1 264 0
 712 0258 06E0     		b	.L21
 713              	.L72:
 267:.\LedControl.c **** 					break;
 714              		.loc 1 267 0
 715 025a 0E4A     		ldr	r2, .L73+28
 716 025c 084B     		ldr	r3, .L73+8
 717 025e 1A80     		strh	r2, [r3]
 268:.\LedControl.c **** 				
 718              		.loc 1 268 0
 719 0260 02E0     		b	.L21
 720              	.L59:
 272:.\LedControl.c **** 					break;
 721              		.loc 1 272 0
 722 0262 0A4A     		ldr	r2, .L73+20
 723 0264 064B     		ldr	r3, .L73+8
 724 0266 1A80     		strh	r2, [r3]
 725              	.L21:
 283:.\LedControl.c **** 	}	
 726              		.loc 1 283 0
 727 0268 044B     		ldr	r3, .L73+4
 728 026a 5878     		ldrb	r0, [r3, #1]
 729              	.LVL44:
 730 026c 044B     		ldr	r3, .L73+8
 731 026e 1988     		ldrh	r1, [r3]
ARM GAS  C:\Users\JAVIER~1\AppData\Local\Temp\cc7aakaO.s 			page 22


 732 0270 FFF7FEFF 		bl	SetLedColor
 733              	.LVL45:
 734              	.L17:
 285:.\LedControl.c **** 
 735              		.loc 1 285 0
 736              		@ sp needed
 737 0274 08BD     		pop	{r3, pc}
 738              	.L74:
 739 0276 C046     		.align	2
 740              	.L73:
 741 0278 00000000 		.word	capsenseButtonStatus
 742 027c 00000000 		.word	.LANCHOR0
 743 0280 00000000 		.word	.LANCHOR1
 744 0284 24000000 		.word	.L29
 745 0288 44000000 		.word	.L38
 746 028c 204E0000 		.word	20000
 747 0290 E02E0000 		.word	12000
 748 0294 C05D0000 		.word	24000
 749 0298 606D0000 		.word	28000
 750              		.cfi_endproc
 751              	.LFE37:
 752              		.size	UpdateLedColor, .-UpdateLedColor
 753              		.data
 754              		.align	1
 755              		.set	.LANCHOR1,. + 0
 756              		.type	brightness, %object
 757              		.size	brightness, 2
 758              	brightness:
 759 0000 F401     		.short	500
 760              		.bss
 761              		.set	.LANCHOR0,. + 0
 762              		.type	isRgbLedOn, %object
 763              		.size	isRgbLedOn, 1
 764              	isRgbLedOn:
 765 0000 00       		.space	1
 766              		.type	ledColor, %object
 767              		.size	ledColor, 1
 768              	ledColor:
 769 0001 00       		.space	1
 770              		.text
 771              	.Letext0:
 772              		.file 2 "Generated_Source\\PSoC4/cytypes.h"
 773              		.file 3 ".\\Gesture.h"
 774              		.file 4 ".\\LedControl.h"
 775              		.file 5 "Generated_Source\\PSoC4/PWM_Red.h"
 776              		.file 6 "Generated_Source\\PSoC4/PWM_Blue.h"
 777              		.file 7 "Generated_Source\\PSoC4/PWM_Green.h"