ARM GAS  C:\Users\JAVIER~1\AppData\Local\Temp\ccfijmG3.s 			page 1


   1              		.cpu cortex-m0
   2              		.fpu softvfp
   3              		.eabi_attribute 20, 1
   4              		.eabi_attribute 21, 1
   5              		.eabi_attribute 23, 3
   6              		.eabi_attribute 24, 1
   7              		.eabi_attribute 25, 1
   8              		.eabi_attribute 26, 1
   9              		.eabi_attribute 30, 1
  10              		.eabi_attribute 34, 0
  11              		.eabi_attribute 18, 4
  12              		.code	16
  13              		.file	"USBFS.c"
  14              		.text
  15              	.Ltext0:
  16              		.cfi_sections	.debug_frame
  17              		.section	.text.USBFS_Init,"ax",%progbits
  18              		.align	2
  19              		.global	USBFS_Init
  20              		.code	16
  21              		.thumb_func
  22              		.type	USBFS_Init, %function
  23              	USBFS_Init:
  24              	.LFB3:
  25              		.file 1 ".\\Generated_Source\\PSoC4\\USBFS.c"
   1:.\Generated_Source\PSoC4/USBFS.c **** /***************************************************************************//**
   2:.\Generated_Source\PSoC4/USBFS.c **** * \file USBFS.c
   3:.\Generated_Source\PSoC4/USBFS.c **** * \version 3.0
   4:.\Generated_Source\PSoC4/USBFS.c **** *
   5:.\Generated_Source\PSoC4/USBFS.c **** * \brief
   6:.\Generated_Source\PSoC4/USBFS.c **** *  This file contains the global USBFS API functions.
   7:.\Generated_Source\PSoC4/USBFS.c **** *
   8:.\Generated_Source\PSoC4/USBFS.c **** * Note:
   9:.\Generated_Source\PSoC4/USBFS.c **** *  Many of the functions use an endpoint number. SRAM arrays are sized with 9
  10:.\Generated_Source\PSoC4/USBFS.c **** *  elements, so they are indexed directly by epNumber.  The SIE and ARB
  11:.\Generated_Source\PSoC4/USBFS.c **** *  registers are indexed by variations of epNumber - 1.
  12:.\Generated_Source\PSoC4/USBFS.c **** *
  13:.\Generated_Source\PSoC4/USBFS.c **** ********************************************************************************
  14:.\Generated_Source\PSoC4/USBFS.c **** * \copyright
  15:.\Generated_Source\PSoC4/USBFS.c **** * Copyright 2008-2015, Cypress Semiconductor Corporation.  All rights reserved.
  16:.\Generated_Source\PSoC4/USBFS.c **** * You may use this file only in accordance with the license, terms, conditions,
  17:.\Generated_Source\PSoC4/USBFS.c **** * disclaimers, and limitations in the end user license agreement accompanying
  18:.\Generated_Source\PSoC4/USBFS.c **** * the software package with which this file was provided.
  19:.\Generated_Source\PSoC4/USBFS.c **** *******************************************************************************/
  20:.\Generated_Source\PSoC4/USBFS.c **** 
  21:.\Generated_Source\PSoC4/USBFS.c **** #include "USBFS_pvt.h"
  22:.\Generated_Source\PSoC4/USBFS.c **** #include "USBFS_cydmac.h"
  23:.\Generated_Source\PSoC4/USBFS.c **** #include "USBFS_hid.h"
  24:.\Generated_Source\PSoC4/USBFS.c **** 
  25:.\Generated_Source\PSoC4/USBFS.c **** 
  26:.\Generated_Source\PSoC4/USBFS.c **** /***************************************
  27:.\Generated_Source\PSoC4/USBFS.c **** * Global data allocation
  28:.\Generated_Source\PSoC4/USBFS.c **** ***************************************/
  29:.\Generated_Source\PSoC4/USBFS.c **** 
  30:.\Generated_Source\PSoC4/USBFS.c **** /** Indicates whether the USBFS has been initialized. The variable is
  31:.\Generated_Source\PSoC4/USBFS.c **** * initialized to 0 after device reset and set to 1 the first time USBFS_Start()
  32:.\Generated_Source\PSoC4/USBFS.c **** * is called. This allows the Component to restart without reinitialization after
ARM GAS  C:\Users\JAVIER~1\AppData\Local\Temp\ccfijmG3.s 			page 2


  33:.\Generated_Source\PSoC4/USBFS.c **** * the first call to the USBFS_Start() routine.
  34:.\Generated_Source\PSoC4/USBFS.c **** * If re-initialization of the Component is required, the variable should be set
  35:.\Generated_Source\PSoC4/USBFS.c **** * to 0 before the USBFS_Start() routine is called. Alternatively, the USBFS can
  36:.\Generated_Source\PSoC4/USBFS.c **** * be reinitialized by calling both USBFS_Init() and USBFS_InitComponent()
  37:.\Generated_Source\PSoC4/USBFS.c **** * functions.
  38:.\Generated_Source\PSoC4/USBFS.c **** */
  39:.\Generated_Source\PSoC4/USBFS.c **** uint8 USBFS_initVar = 0u;
  40:.\Generated_Source\PSoC4/USBFS.c **** 
  41:.\Generated_Source\PSoC4/USBFS.c **** #if (USBFS_EP_MANAGEMENT_DMA)
  42:.\Generated_Source\PSoC4/USBFS.c ****     #if (CY_PSOC4)
  43:.\Generated_Source\PSoC4/USBFS.c ****         static void USBFS_InitEpDma(void);
  44:.\Generated_Source\PSoC4/USBFS.c **** 
  45:.\Generated_Source\PSoC4/USBFS.c ****         /* DMA chanels assigend for endpoints. */
  46:.\Generated_Source\PSoC4/USBFS.c ****         const uint8 USBFS_DmaChan[USBFS_MAX_EP] =
  47:.\Generated_Source\PSoC4/USBFS.c ****         {
  48:.\Generated_Source\PSoC4/USBFS.c ****             0u,
  49:.\Generated_Source\PSoC4/USBFS.c ****             0u,
  50:.\Generated_Source\PSoC4/USBFS.c ****             0u,
  51:.\Generated_Source\PSoC4/USBFS.c ****             0u,
  52:.\Generated_Source\PSoC4/USBFS.c ****             0u,
  53:.\Generated_Source\PSoC4/USBFS.c ****             0u,
  54:.\Generated_Source\PSoC4/USBFS.c ****             0u,
  55:.\Generated_Source\PSoC4/USBFS.c ****             0u,
  56:.\Generated_Source\PSoC4/USBFS.c ****             0u,
  57:.\Generated_Source\PSoC4/USBFS.c ****         };        
  58:.\Generated_Source\PSoC4/USBFS.c ****     #else
  59:.\Generated_Source\PSoC4/USBFS.c ****         /* DMA chanels assigend for endpoints. */
  60:.\Generated_Source\PSoC4/USBFS.c ****         uint8 USBFS_DmaChan[USBFS_MAX_EP];
  61:.\Generated_Source\PSoC4/USBFS.c ****         
  62:.\Generated_Source\PSoC4/USBFS.c ****         /* DMA TDs require for PSoC 3/5LP operation. */
  63:.\Generated_Source\PSoC4/USBFS.c ****         uint8 USBFS_DmaTd[USBFS_MAX_EP];
  64:.\Generated_Source\PSoC4/USBFS.c ****     #endif /* (CY_PSOC4) */
  65:.\Generated_Source\PSoC4/USBFS.c **** #endif /* (USBFS_EP_MANAGEMENT_DMA) */
  66:.\Generated_Source\PSoC4/USBFS.c **** 
  67:.\Generated_Source\PSoC4/USBFS.c **** #if (USBFS_EP_MANAGEMENT_DMA_AUTO)
  68:.\Generated_Source\PSoC4/USBFS.c **** #if (CY_PSOC4)
  69:.\Generated_Source\PSoC4/USBFS.c ****     /* Number of DMA bursts. */
  70:.\Generated_Source\PSoC4/USBFS.c ****     uint8  USBFS_DmaEpBurstCnt   [USBFS_MAX_EP];
  71:.\Generated_Source\PSoC4/USBFS.c ****     
  72:.\Generated_Source\PSoC4/USBFS.c ****     /* Number of bytes to transfer in last DMA burst. */
  73:.\Generated_Source\PSoC4/USBFS.c ****     uint8  USBFS_DmaEpLastBurstEl[USBFS_MAX_EP];
  74:.\Generated_Source\PSoC4/USBFS.c **** 
  75:.\Generated_Source\PSoC4/USBFS.c ****     /* Storage for arrays above. */
  76:.\Generated_Source\PSoC4/USBFS.c ****     uint8  USBFS_DmaEpBurstCntBackup  [USBFS_MAX_EP];
  77:.\Generated_Source\PSoC4/USBFS.c ****     uint32 USBFS_DmaEpBufferAddrBackup[USBFS_MAX_EP];
  78:.\Generated_Source\PSoC4/USBFS.c ****      
  79:.\Generated_Source\PSoC4/USBFS.c ****     /* DMA trigger mux output for usb.dma_req[0-7]. */
  80:.\Generated_Source\PSoC4/USBFS.c ****     const uint8 USBFS_DmaReqOut[USBFS_MAX_EP] =
  81:.\Generated_Source\PSoC4/USBFS.c ****     {
  82:.\Generated_Source\PSoC4/USBFS.c ****         0u,
  83:.\Generated_Source\PSoC4/USBFS.c ****         USBFS_ep1_dma__TR_OUTPUT,
  84:.\Generated_Source\PSoC4/USBFS.c ****         USBFS_ep2_dma__TR_OUTPUT,
  85:.\Generated_Source\PSoC4/USBFS.c ****         0u,
  86:.\Generated_Source\PSoC4/USBFS.c ****         0u,
  87:.\Generated_Source\PSoC4/USBFS.c ****         0u,
  88:.\Generated_Source\PSoC4/USBFS.c ****         0u,
  89:.\Generated_Source\PSoC4/USBFS.c ****         0u,
ARM GAS  C:\Users\JAVIER~1\AppData\Local\Temp\ccfijmG3.s 			page 3


  90:.\Generated_Source\PSoC4/USBFS.c ****         0u,
  91:.\Generated_Source\PSoC4/USBFS.c ****     };
  92:.\Generated_Source\PSoC4/USBFS.c **** 
  93:.\Generated_Source\PSoC4/USBFS.c ****     /* DMA trigger mux output for usb.dma_burstend[0-7]. */
  94:.\Generated_Source\PSoC4/USBFS.c ****     const uint8 USBFS_DmaBurstEndOut[USBFS_MAX_EP] =
  95:.\Generated_Source\PSoC4/USBFS.c ****     {
  96:.\Generated_Source\PSoC4/USBFS.c ****         0u,
  97:.\Generated_Source\PSoC4/USBFS.c ****         USBFS_BURSTEND_0_TR_OUTPUT,
  98:.\Generated_Source\PSoC4/USBFS.c ****         USBFS_BURSTEND_1_TR_OUTPUT,
  99:.\Generated_Source\PSoC4/USBFS.c ****         USBFS_BURSTEND_2_TR_OUTPUT,
 100:.\Generated_Source\PSoC4/USBFS.c ****         USBFS_BURSTEND_3_TR_OUTPUT,
 101:.\Generated_Source\PSoC4/USBFS.c ****         USBFS_BURSTEND_4_TR_OUTPUT,
 102:.\Generated_Source\PSoC4/USBFS.c ****         USBFS_BURSTEND_5_TR_OUTPUT,
 103:.\Generated_Source\PSoC4/USBFS.c ****         USBFS_BURSTEND_6_TR_OUTPUT,
 104:.\Generated_Source\PSoC4/USBFS.c ****         USBFS_BURSTEND_7_TR_OUTPUT
 105:.\Generated_Source\PSoC4/USBFS.c ****     };
 106:.\Generated_Source\PSoC4/USBFS.c ****     
 107:.\Generated_Source\PSoC4/USBFS.c **** #else
 108:.\Generated_Source\PSoC4/USBFS.c ****     #if (USBFS_EP_DMA_AUTO_OPT == 0u)
 109:.\Generated_Source\PSoC4/USBFS.c ****         static uint8 clearInDataRdyStatus = USBFS_ARB_EPX_CFG_DEFAULT;
 110:.\Generated_Source\PSoC4/USBFS.c ****         uint8 USBFS_DmaNextTd[USBFS_MAX_EP];
 111:.\Generated_Source\PSoC4/USBFS.c ****         const uint8 USBFS_epX_TD_TERMOUT_EN[USBFS_MAX_EP] =
 112:.\Generated_Source\PSoC4/USBFS.c ****         {
 113:.\Generated_Source\PSoC4/USBFS.c ****             0u,
 114:.\Generated_Source\PSoC4/USBFS.c ****             0u,
 115:.\Generated_Source\PSoC4/USBFS.c ****             0u,
 116:.\Generated_Source\PSoC4/USBFS.c ****             0u,
 117:.\Generated_Source\PSoC4/USBFS.c ****             0u,
 118:.\Generated_Source\PSoC4/USBFS.c ****             0u,
 119:.\Generated_Source\PSoC4/USBFS.c ****             0u,
 120:.\Generated_Source\PSoC4/USBFS.c ****             0u,
 121:.\Generated_Source\PSoC4/USBFS.c ****             0u,
 122:.\Generated_Source\PSoC4/USBFS.c ****         };
 123:.\Generated_Source\PSoC4/USBFS.c **** 
 124:.\Generated_Source\PSoC4/USBFS.c ****         volatile uint16 USBFS_inLength[USBFS_MAX_EP];
 125:.\Generated_Source\PSoC4/USBFS.c ****         const uint8 *USBFS_inDataPointer[USBFS_MAX_EP];
 126:.\Generated_Source\PSoC4/USBFS.c ****         volatile uint8 USBFS_inBufFull[USBFS_MAX_EP];
 127:.\Generated_Source\PSoC4/USBFS.c ****     #endif /* (USBFS_EP_DMA_AUTO_OPT == 0u) */
 128:.\Generated_Source\PSoC4/USBFS.c **** #endif /* (CY_PSOC4) */
 129:.\Generated_Source\PSoC4/USBFS.c **** #endif /* (USBFS_EP_MANAGEMENT_DMA_AUTO) */
 130:.\Generated_Source\PSoC4/USBFS.c **** 
 131:.\Generated_Source\PSoC4/USBFS.c **** 
 132:.\Generated_Source\PSoC4/USBFS.c **** /*******************************************************************************
 133:.\Generated_Source\PSoC4/USBFS.c **** * Function Name: USBFS_Start
 134:.\Generated_Source\PSoC4/USBFS.c **** ****************************************************************************//**
 135:.\Generated_Source\PSoC4/USBFS.c **** *
 136:.\Generated_Source\PSoC4/USBFS.c **** *   This function performs all required initialization for the USBFS component.
 137:.\Generated_Source\PSoC4/USBFS.c **** *   After this function call, the USB device initiates communication with the
 138:.\Generated_Source\PSoC4/USBFS.c **** *   host by pull-up D+ line. This is the preferred method to begin component
 139:.\Generated_Source\PSoC4/USBFS.c **** *   operation.
 140:.\Generated_Source\PSoC4/USBFS.c **** *
 141:.\Generated_Source\PSoC4/USBFS.c **** *   Note that global interrupts have to be enabled because interrupts are
 142:.\Generated_Source\PSoC4/USBFS.c **** *   required for USBFS component operation.
 143:.\Generated_Source\PSoC4/USBFS.c **** *
 144:.\Generated_Source\PSoC4/USBFS.c **** *   PSoC 4200L devices: when USBFS component configured to DMA with Automatic
 145:.\Generated_Source\PSoC4/USBFS.c **** *   Buffer Management, the DMA interrupt priority is changed to the highest
 146:.\Generated_Source\PSoC4/USBFS.c **** *   (priority 0) inside this function.
ARM GAS  C:\Users\JAVIER~1\AppData\Local\Temp\ccfijmG3.s 			page 4


 147:.\Generated_Source\PSoC4/USBFS.c **** *
 148:.\Generated_Source\PSoC4/USBFS.c **** *   PSoC 3/PSoC 5LP devices: when USBFS component configured to DMA with
 149:.\Generated_Source\PSoC4/USBFS.c **** *   Automatic Buffer Management, the Arbiter interrupt priority is changed to
 150:.\Generated_Source\PSoC4/USBFS.c **** *   the highest (priority 0) inside this function.
 151:.\Generated_Source\PSoC4/USBFS.c **** *
 152:.\Generated_Source\PSoC4/USBFS.c **** *  \param device
 153:.\Generated_Source\PSoC4/USBFS.c **** *          Contains the device number of the desired device descriptor.
 154:.\Generated_Source\PSoC4/USBFS.c **** *          The device number can be found in the Device Descriptor Tab of
 155:.\Generated_Source\PSoC4/USBFS.c **** *          "Configure" dialog, under the settings of desired Device Descriptor,
 156:.\Generated_Source\PSoC4/USBFS.c **** *          in the "Device Number" field.
 157:.\Generated_Source\PSoC4/USBFS.c **** *  \param mode:
 158:.\Generated_Source\PSoC4/USBFS.c **** *   The operating voltage. This determines whether the voltage regulator
 159:.\Generated_Source\PSoC4/USBFS.c **** *   is enabled for 5V operation or if pass through mode is used for 3.3V
 160:.\Generated_Source\PSoC4/USBFS.c **** *   operation. Symbolic names and their associated values are given in the
 161:.\Generated_Source\PSoC4/USBFS.c **** *   following list.
 162:.\Generated_Source\PSoC4/USBFS.c **** *
 163:.\Generated_Source\PSoC4/USBFS.c **** *       *USBFS_3V_OPERATION* - Disable voltage regulator and pass-
 164:.\Generated_Source\PSoC4/USBFS.c **** *                                      through Vcc for pull-up
 165:.\Generated_Source\PSoC4/USBFS.c **** *
 166:.\Generated_Source\PSoC4/USBFS.c **** *       *USBFS_5V_OPERATION* - Enable voltage regulator and use
 167:.\Generated_Source\PSoC4/USBFS.c **** *                                      regulator for pull-up
 168:.\Generated_Source\PSoC4/USBFS.c **** *
 169:.\Generated_Source\PSoC4/USBFS.c **** *       *USBFS_DWR_POWER_OPERATION* - Enable or disable the voltage
 170:.\Generated_Source\PSoC4/USBFS.c **** *                                      regulator depending on the power supply
 171:.\Generated_Source\PSoC4/USBFS.c **** *                                      voltage configuration in the DWR tab.
 172:.\Generated_Source\PSoC4/USBFS.c **** *                                      For PSoC 3/5LP devices, the VDDD supply
 173:.\Generated_Source\PSoC4/USBFS.c **** *                                      voltage is considered and for PSoC 4A-L,
 174:.\Generated_Source\PSoC4/USBFS.c **** *                                      the VBUS supply voltage is considered.*
 175:.\Generated_Source\PSoC4/USBFS.c **** * \globalvars
 176:.\Generated_Source\PSoC4/USBFS.c **** *  \ref USBFS_initVar
 177:.\Generated_Source\PSoC4/USBFS.c **** *
 178:.\Generated_Source\PSoC4/USBFS.c **** * \sideeffect
 179:.\Generated_Source\PSoC4/USBFS.c **** *   This function will reset all communication states to default.
 180:.\Generated_Source\PSoC4/USBFS.c **** *
 181:.\Generated_Source\PSoC4/USBFS.c **** * \reentrant
 182:.\Generated_Source\PSoC4/USBFS.c **** *  No.
 183:.\Generated_Source\PSoC4/USBFS.c **** *
 184:.\Generated_Source\PSoC4/USBFS.c **** *******************************************************************************/
 185:.\Generated_Source\PSoC4/USBFS.c **** void USBFS_Start(uint8 device, uint8 mode) 
 186:.\Generated_Source\PSoC4/USBFS.c **** {
 187:.\Generated_Source\PSoC4/USBFS.c ****     if (0u == USBFS_initVar)
 188:.\Generated_Source\PSoC4/USBFS.c ****     {
 189:.\Generated_Source\PSoC4/USBFS.c ****         USBFS_Init();
 190:.\Generated_Source\PSoC4/USBFS.c ****         USBFS_initVar = 1u;
 191:.\Generated_Source\PSoC4/USBFS.c ****     }
 192:.\Generated_Source\PSoC4/USBFS.c **** 
 193:.\Generated_Source\PSoC4/USBFS.c ****     USBFS_InitComponent(device, mode);
 194:.\Generated_Source\PSoC4/USBFS.c **** }
 195:.\Generated_Source\PSoC4/USBFS.c **** 
 196:.\Generated_Source\PSoC4/USBFS.c **** 
 197:.\Generated_Source\PSoC4/USBFS.c **** /*******************************************************************************
 198:.\Generated_Source\PSoC4/USBFS.c **** * Function Name: USBFS_Init
 199:.\Generated_Source\PSoC4/USBFS.c **** ****************************************************************************//**
 200:.\Generated_Source\PSoC4/USBFS.c **** *
 201:.\Generated_Source\PSoC4/USBFS.c **** * This function initializes or restores the component according to the
 202:.\Generated_Source\PSoC4/USBFS.c **** * customizer Configure dialog settings. It is not necessary to call
 203:.\Generated_Source\PSoC4/USBFS.c **** * USBFS_Init() because the USBFS_Start() routine calls
ARM GAS  C:\Users\JAVIER~1\AppData\Local\Temp\ccfijmG3.s 			page 5


 204:.\Generated_Source\PSoC4/USBFS.c **** * this function and is the preferred method to begin component operation.
 205:.\Generated_Source\PSoC4/USBFS.c **** *
 206:.\Generated_Source\PSoC4/USBFS.c **** * \reentrant
 207:.\Generated_Source\PSoC4/USBFS.c **** *  No.
 208:.\Generated_Source\PSoC4/USBFS.c **** *
 209:.\Generated_Source\PSoC4/USBFS.c **** *******************************************************************************/
 210:.\Generated_Source\PSoC4/USBFS.c **** void USBFS_Init(void) 
 211:.\Generated_Source\PSoC4/USBFS.c **** {
  26              		.loc 1 211 0
  27              		.cfi_startproc
  28 0000 10B5     		push	{r4, lr}
  29              		.cfi_def_cfa_offset 8
  30              		.cfi_offset 4, -8
  31              		.cfi_offset 14, -4
 212:.\Generated_Source\PSoC4/USBFS.c **** #if (CY_PSOC4)
 213:.\Generated_Source\PSoC4/USBFS.c ****     /* Enable clock to USB IP. */
 214:.\Generated_Source\PSoC4/USBFS.c ****     USBFS_USB_CLK_EN_REG = USBFS_USB_CLK_CSR_CLK_EN;
  32              		.loc 1 214 0
  33 0002 0122     		mov	r2, #1
  34 0004 244B     		ldr	r3, .L3
  35 0006 1A60     		str	r2, [r3]
 215:.\Generated_Source\PSoC4/USBFS.c **** 
 216:.\Generated_Source\PSoC4/USBFS.c ****     /* The internal regulator (CR1.REG_ENABLE) is enabled in
 217:.\Generated_Source\PSoC4/USBFS.c ****     * USBFS_InitComponent() if it is required.
 218:.\Generated_Source\PSoC4/USBFS.c ****     */
 219:.\Generated_Source\PSoC4/USBFS.c **** 
 220:.\Generated_Source\PSoC4/USBFS.c ****     /* Enable USBIO control on drive mode of D+ and D- pins. */
 221:.\Generated_Source\PSoC4/USBFS.c ****     USBFS_USBIO_CR1_REG &= ~ (uint32) USBFS_USBIO_CR1_IOMODE;
  36              		.loc 1 221 0
  37 0008 244A     		ldr	r2, .L3+4
  38 000a 1368     		ldr	r3, [r2]
  39 000c 2021     		mov	r1, #32
  40 000e 8B43     		bic	r3, r1
  41 0010 1360     		str	r3, [r2]
 222:.\Generated_Source\PSoC4/USBFS.c **** 
 223:.\Generated_Source\PSoC4/USBFS.c ****     /* Set number of LF CLK to detect UBS bus reset. */
 224:.\Generated_Source\PSoC4/USBFS.c ****     USBFS_BUS_RST_CNT_REG = USBFS_DEFUALT_BUS_RST_CNT;
  42              		.loc 1 224 0
  43 0012 0A22     		mov	r2, #10
  44 0014 224B     		ldr	r3, .L3+8
  45 0016 1A60     		str	r2, [r3]
 225:.\Generated_Source\PSoC4/USBFS.c **** 
 226:.\Generated_Source\PSoC4/USBFS.c ****     /* Select VBUS detection source and clear PHY isolate. The application level
 227:.\Generated_Source\PSoC4/USBFS.c ****     * must ensure that VBUS is valid. There is no need to wait 2us before VBUS is valid.
 228:.\Generated_Source\PSoC4/USBFS.c ****     */
 229:.\Generated_Source\PSoC4/USBFS.c ****     USBFS_POWER_CTRL_REG = USBFS_DEFAULT_POWER_CTRL_VBUS;
  46              		.loc 1 229 0
  47 0018 224C     		ldr	r4, .L3+12
  48 001a 234B     		ldr	r3, .L3+16
  49 001c 2360     		str	r3, [r4]
 230:.\Generated_Source\PSoC4/USBFS.c **** 
 231:.\Generated_Source\PSoC4/USBFS.c ****     /* Enable PHY detector and single-ended and differential receivers. */
 232:.\Generated_Source\PSoC4/USBFS.c ****     USBFS_POWER_CTRL_REG |= USBFS_DEFAULT_POWER_CTRL_PHY;
  50              		.loc 1 232 0
  51 001e 2368     		ldr	r3, [r4]
  52 0020 224A     		ldr	r2, .L3+20
  53 0022 1343     		orr	r3, r2
ARM GAS  C:\Users\JAVIER~1\AppData\Local\Temp\ccfijmG3.s 			page 6


  54 0024 2360     		str	r3, [r4]
 233:.\Generated_Source\PSoC4/USBFS.c **** 
 234:.\Generated_Source\PSoC4/USBFS.c ****     /* Suspend clear sequence. */
 235:.\Generated_Source\PSoC4/USBFS.c ****     USBFS_POWER_CTRL_REG &= (uint32) ~USBFS_POWER_CTRL_SUSPEND;
  55              		.loc 1 235 0
  56 0026 2368     		ldr	r3, [r4]
  57 0028 0422     		mov	r2, #4
  58 002a 9343     		bic	r3, r2
  59 002c 2360     		str	r3, [r4]
 236:.\Generated_Source\PSoC4/USBFS.c ****     CyDelayUs(USBFS_WAIT_SUSPEND_DEL_DISABLE);
  60              		.loc 1 236 0
  61 002e 0220     		mov	r0, #2
  62 0030 FFF7FEFF 		bl	CyDelayUs
  63              	.LVL0:
 237:.\Generated_Source\PSoC4/USBFS.c ****     USBFS_POWER_CTRL_REG &= (uint32) ~USBFS_POWER_CTRL_SUSPEND_DEL;
  64              		.loc 1 237 0
  65 0034 2368     		ldr	r3, [r4]
  66 0036 0822     		mov	r2, #8
  67 0038 9343     		bic	r3, r2
  68 003a 2360     		str	r3, [r4]
 238:.\Generated_Source\PSoC4/USBFS.c **** 
 239:.\Generated_Source\PSoC4/USBFS.c ****     /* Sets IMO lock options and clear all other bits. */
 240:.\Generated_Source\PSoC4/USBFS.c ****     USBFS_CR1_REG = USBFS_DEFUALT_CR1;
  69              		.loc 1 240 0
  70 003c FFF7FEFF 		bl	CySysClkImoGetUsbLock
  71              	.LVL1:
  72 0040 0028     		cmp	r0, #0
  73 0042 00D0     		beq	.L2
  74 0044 0220     		mov	r0, #2
  75              	.L2:
  76              		.loc 1 240 0 is_stmt 0 discriminator 4
  77 0046 1A4B     		ldr	r3, .L3+24
  78 0048 1860     		str	r0, [r3]
 241:.\Generated_Source\PSoC4/USBFS.c **** 
 242:.\Generated_Source\PSoC4/USBFS.c ****     /* Configure level (hi, lo, med) for each interrupt source. */
 243:.\Generated_Source\PSoC4/USBFS.c ****     USBFS_INTR_LVL_SEL_REG = USBFS_DEFAULT_INTR_LVL_SEL;
  79              		.loc 1 243 0 is_stmt 1 discriminator 4
  80 004a 1A4A     		ldr	r2, .L3+28
  81 004c 1A4B     		ldr	r3, .L3+32
  82 004e 1A60     		str	r2, [r3]
 244:.\Generated_Source\PSoC4/USBFS.c **** 
 245:.\Generated_Source\PSoC4/USBFS.c ****     /* Configure interrupt sources from: SOF, Bus Reset and EP0. */
 246:.\Generated_Source\PSoC4/USBFS.c ****     USBFS_INTR_SIE_MASK_REG = USBFS_DEFAULT_INTR_SIE_MASK;
  83              		.loc 1 246 0 discriminator 4
  84 0050 0722     		mov	r2, #7
  85 0052 1A4B     		ldr	r3, .L3+36
  86 0054 1A60     		str	r2, [r3]
 247:.\Generated_Source\PSoC4/USBFS.c **** 
 248:.\Generated_Source\PSoC4/USBFS.c **** #else
 249:.\Generated_Source\PSoC4/USBFS.c ****     uint8 enableInterrupts = CyEnterCriticalSection();
 250:.\Generated_Source\PSoC4/USBFS.c **** 
 251:.\Generated_Source\PSoC4/USBFS.c **** #if (USBFS_EP_MANAGEMENT_DMA)
 252:.\Generated_Source\PSoC4/USBFS.c ****     uint16 i;
 253:.\Generated_Source\PSoC4/USBFS.c **** #endif /* (USBFS_EP_MANAGEMENT_DMA) */
 254:.\Generated_Source\PSoC4/USBFS.c **** 
 255:.\Generated_Source\PSoC4/USBFS.c ****     /* Enable USB block. */
 256:.\Generated_Source\PSoC4/USBFS.c ****     USBFS_PM_ACT_CFG_REG |= USBFS_PM_ACT_EN_FSUSB;
ARM GAS  C:\Users\JAVIER~1\AppData\Local\Temp\ccfijmG3.s 			page 7


 257:.\Generated_Source\PSoC4/USBFS.c ****     /* Enable USB block for Standby Power Mode. */
 258:.\Generated_Source\PSoC4/USBFS.c ****     USBFS_PM_STBY_CFG_REG |= USBFS_PM_STBY_EN_FSUSB;
 259:.\Generated_Source\PSoC4/USBFS.c **** 
 260:.\Generated_Source\PSoC4/USBFS.c ****     /* Enable core clock. */
 261:.\Generated_Source\PSoC4/USBFS.c ****     USBFS_USB_CLK_EN_REG = USBFS_USB_CLK_ENABLE;
 262:.\Generated_Source\PSoC4/USBFS.c **** 
 263:.\Generated_Source\PSoC4/USBFS.c ****     USBFS_CR1_REG = USBFS_CR1_ENABLE_LOCK;
 264:.\Generated_Source\PSoC4/USBFS.c **** 
 265:.\Generated_Source\PSoC4/USBFS.c ****     /* ENABLING USBIO PADS IN USB MODE FROM I/O MODE. */
 266:.\Generated_Source\PSoC4/USBFS.c ****     /* Ensure USB transmit enable is low (USB_USBIO_CR0.ten). - Manual Transmission - Disabled. */
 267:.\Generated_Source\PSoC4/USBFS.c ****     USBFS_USBIO_CR0_REG &= (uint8) ~USBFS_USBIO_CR0_TEN;
 268:.\Generated_Source\PSoC4/USBFS.c ****     CyDelayUs(USBFS_WAIT_REG_STABILITY_50NS);  /* ~50ns delay. */
 269:.\Generated_Source\PSoC4/USBFS.c ****     /* Disable USBIO by asserting PM.USB_CR0.fsusbio_pd_n(Inverted.
 270:.\Generated_Source\PSoC4/USBFS.c ****     *  high. These bits will be set low by the power manager out-of-reset.
 271:.\Generated_Source\PSoC4/USBFS.c ****     *  Also confirm USBIO pull-up is disabled.
 272:.\Generated_Source\PSoC4/USBFS.c ****     */
 273:.\Generated_Source\PSoC4/USBFS.c ****     USBFS_PM_USB_CR0_REG &= (uint8) ~(USBFS_PM_USB_CR0_PD_N |
 274:.\Generated_Source\PSoC4/USBFS.c ****                                                  USBFS_PM_USB_CR0_PD_PULLUP_N);
 275:.\Generated_Source\PSoC4/USBFS.c **** 
 276:.\Generated_Source\PSoC4/USBFS.c ****     /* Select IOMODE to USB mode. */
 277:.\Generated_Source\PSoC4/USBFS.c ****     USBFS_USBIO_CR1_REG &= (uint8) ~USBFS_USBIO_CR1_IOMODE;
 278:.\Generated_Source\PSoC4/USBFS.c **** 
 279:.\Generated_Source\PSoC4/USBFS.c ****     /* Enable USBIO reference by setting PM.USB_CR0.fsusbio_ref_en. */
 280:.\Generated_Source\PSoC4/USBFS.c ****     USBFS_PM_USB_CR0_REG |= USBFS_PM_USB_CR0_REF_EN;
 281:.\Generated_Source\PSoC4/USBFS.c ****     /* Reference is available for 1us after regulator is enabled. */
 282:.\Generated_Source\PSoC4/USBFS.c ****     CyDelayUs(USBFS_WAIT_REG_STABILITY_1US);
 283:.\Generated_Source\PSoC4/USBFS.c ****     /* OR 40us after power is restored. */
 284:.\Generated_Source\PSoC4/USBFS.c ****     CyDelayUs(USBFS_WAIT_VREF_RESTORE);
 285:.\Generated_Source\PSoC4/USBFS.c ****     /* Ensure single-ended disable bits are low (PRT15.INP_DIS[7:6])(input receiver enabled). */
 286:.\Generated_Source\PSoC4/USBFS.c ****     USBFS_DM_INP_DIS_REG &= (uint8) ~USBFS_DM_MASK;
 287:.\Generated_Source\PSoC4/USBFS.c ****     USBFS_DP_INP_DIS_REG &= (uint8) ~USBFS_DP_MASK;
 288:.\Generated_Source\PSoC4/USBFS.c **** 
 289:.\Generated_Source\PSoC4/USBFS.c ****     /* Enable USBIO. */
 290:.\Generated_Source\PSoC4/USBFS.c ****     USBFS_PM_USB_CR0_REG |= USBFS_PM_USB_CR0_PD_N;
 291:.\Generated_Source\PSoC4/USBFS.c ****     CyDelayUs(USBFS_WAIT_PD_PULLUP_N_ENABLE);
 292:.\Generated_Source\PSoC4/USBFS.c ****     /* Set USBIO pull-up enable. */
 293:.\Generated_Source\PSoC4/USBFS.c ****     USBFS_PM_USB_CR0_REG |= USBFS_PM_USB_CR0_PD_PULLUP_N;
 294:.\Generated_Source\PSoC4/USBFS.c **** 
 295:.\Generated_Source\PSoC4/USBFS.c ****     /* Reset Arbiter Write Address register for endpoint 1. */
 296:.\Generated_Source\PSoC4/USBFS.c ****     CY_SET_REG8(USBFS_ARB_RW1_WA_PTR,     0u);
 297:.\Generated_Source\PSoC4/USBFS.c ****     CY_SET_REG8(USBFS_ARB_RW1_WA_MSB_PTR, 0u);
 298:.\Generated_Source\PSoC4/USBFS.c **** 
 299:.\Generated_Source\PSoC4/USBFS.c **** #if (USBFS_EP_MANAGEMENT_DMA)
 300:.\Generated_Source\PSoC4/USBFS.c ****     /* Initialize transfer descriptor. This will be used to detect DMA state - initialized or not. 
 301:.\Generated_Source\PSoC4/USBFS.c ****     for (i = 0u; i < USBFS_MAX_EP; ++i)
 302:.\Generated_Source\PSoC4/USBFS.c ****     {
 303:.\Generated_Source\PSoC4/USBFS.c ****         USBFS_DmaTd[i] = DMA_INVALID_TD;
 304:.\Generated_Source\PSoC4/USBFS.c **** 
 305:.\Generated_Source\PSoC4/USBFS.c ****     #if (USBFS_EP_MANAGEMENT_DMA_AUTO && (USBFS_EP_DMA_AUTO_OPT == 0u))
 306:.\Generated_Source\PSoC4/USBFS.c ****         USBFS_DmaNextTd[i] = DMA_INVALID_TD;
 307:.\Generated_Source\PSoC4/USBFS.c ****     #endif /* (USBFS_EP_MANAGEMENT_DMA_AUTO && (USBFS_EP_DMA_AUTO_OPT == 0u)) */
 308:.\Generated_Source\PSoC4/USBFS.c ****     }
 309:.\Generated_Source\PSoC4/USBFS.c **** #endif /* (USBFS_EP_MANAGEMENT_DMA) */
 310:.\Generated_Source\PSoC4/USBFS.c **** 
 311:.\Generated_Source\PSoC4/USBFS.c ****     CyExitCriticalSection(enableInterrupts);
 312:.\Generated_Source\PSoC4/USBFS.c **** #endif /* (CY_PSOC4) */
 313:.\Generated_Source\PSoC4/USBFS.c **** 
ARM GAS  C:\Users\JAVIER~1\AppData\Local\Temp\ccfijmG3.s 			page 8


 314:.\Generated_Source\PSoC4/USBFS.c ****     /* Configure interrupts from USB block. */
 315:.\Generated_Source\PSoC4/USBFS.c **** #if (CY_PSOC4)
 316:.\Generated_Source\PSoC4/USBFS.c ****     /* Configure hi_int: set handler and priority. */
 317:.\Generated_Source\PSoC4/USBFS.c ****     CyIntSetPriority     (USBFS_INTR_HI_VECT_NUM,  USBFS_INTR_HI_PRIORITY);
  87              		.loc 1 317 0 discriminator 4
  88 0056 1E20     		mov	r0, #30
  89 0058 0321     		mov	r1, #3
  90 005a FFF7FEFF 		bl	CyIntSetPriority
  91              	.LVL2:
 318:.\Generated_Source\PSoC4/USBFS.c ****     (void) CyIntSetVector(USBFS_INTR_HI_VECT_NUM, &USBFS_INTR_HI_ISR);
  92              		.loc 1 318 0 discriminator 4
  93 005e 1E20     		mov	r0, #30
  94 0060 1749     		ldr	r1, .L3+40
  95 0062 FFF7FEFF 		bl	CyIntSetVector
  96              	.LVL3:
 319:.\Generated_Source\PSoC4/USBFS.c **** 
 320:.\Generated_Source\PSoC4/USBFS.c ****     /* Configure lo_int: set handler and priority. */
 321:.\Generated_Source\PSoC4/USBFS.c ****     CyIntSetPriority     (USBFS_INTR_LO_VECT_NUM,  USBFS_INTR_LO_PRIORITY);
  97              		.loc 1 321 0 discriminator 4
  98 0066 1F20     		mov	r0, #31
  99 0068 0321     		mov	r1, #3
 100 006a FFF7FEFF 		bl	CyIntSetPriority
 101              	.LVL4:
 322:.\Generated_Source\PSoC4/USBFS.c ****     (void) CyIntSetVector(USBFS_INTR_LO_VECT_NUM, &USBFS_INTR_LO_ISR);
 102              		.loc 1 322 0 discriminator 4
 103 006e 1F20     		mov	r0, #31
 104 0070 1449     		ldr	r1, .L3+44
 105 0072 FFF7FEFF 		bl	CyIntSetVector
 106              	.LVL5:
 323:.\Generated_Source\PSoC4/USBFS.c **** 
 324:.\Generated_Source\PSoC4/USBFS.c ****     /* Configure med_int: set handler and priority (routed through DSI). */
 325:.\Generated_Source\PSoC4/USBFS.c ****     CyIntSetPriority     (USBFS_INTR_MED_VECT_NUM,  USBFS_INTR_MED_PRIORITY);
 107              		.loc 1 325 0 discriminator 4
 108 0076 0020     		mov	r0, #0
 109 0078 0321     		mov	r1, #3
 110 007a FFF7FEFF 		bl	CyIntSetPriority
 111              	.LVL6:
 326:.\Generated_Source\PSoC4/USBFS.c ****     (void) CyIntSetVector(USBFS_INTR_MED_VECT_NUM, &USBFS_INTR_MED_ISR);
 112              		.loc 1 326 0 discriminator 4
 113 007e 0020     		mov	r0, #0
 114 0080 1149     		ldr	r1, .L3+48
 115 0082 FFF7FEFF 		bl	CyIntSetVector
 116              	.LVL7:
 327:.\Generated_Source\PSoC4/USBFS.c **** 
 328:.\Generated_Source\PSoC4/USBFS.c **** #else
 329:.\Generated_Source\PSoC4/USBFS.c ****     /* Set bus reset interrupt. */
 330:.\Generated_Source\PSoC4/USBFS.c ****     CyIntSetPriority(USBFS_BUS_RESET_VECT_NUM, USBFS_BUS_RESET_PRIOR);
 331:.\Generated_Source\PSoC4/USBFS.c ****     (void) CyIntSetVector(USBFS_BUS_RESET_VECT_NUM,   &USBFS_BUS_RESET_ISR);
 332:.\Generated_Source\PSoC4/USBFS.c **** 
 333:.\Generated_Source\PSoC4/USBFS.c ****     /* Set Control Endpoint Interrupt. */
 334:.\Generated_Source\PSoC4/USBFS.c ****     CyIntSetPriority(USBFS_EP_0_VECT_NUM, USBFS_EP_0_PRIOR);
 335:.\Generated_Source\PSoC4/USBFS.c ****     (void) CyIntSetVector(USBFS_EP_0_VECT_NUM,   &USBFS_EP_0_ISR);
 336:.\Generated_Source\PSoC4/USBFS.c **** 
 337:.\Generated_Source\PSoC4/USBFS.c ****     /* Set SOF interrupt. */
 338:.\Generated_Source\PSoC4/USBFS.c ****     #if (USBFS_SOF_ISR_ACTIVE)
 339:.\Generated_Source\PSoC4/USBFS.c ****         CyIntSetPriority     (USBFS_SOF_VECT_NUM,  USBFS_SOF_PRIOR);
 340:.\Generated_Source\PSoC4/USBFS.c ****         (void) CyIntSetVector(USBFS_SOF_VECT_NUM, &USBFS_SOF_ISR);
ARM GAS  C:\Users\JAVIER~1\AppData\Local\Temp\ccfijmG3.s 			page 9


 341:.\Generated_Source\PSoC4/USBFS.c ****     #endif /* (USBFS_SOF_ISR_ACTIVE) */
 342:.\Generated_Source\PSoC4/USBFS.c **** 
 343:.\Generated_Source\PSoC4/USBFS.c ****     /* Set Data Endpoint 1 Interrupt. */
 344:.\Generated_Source\PSoC4/USBFS.c ****     #if (USBFS_EP1_ISR_ACTIVE)
 345:.\Generated_Source\PSoC4/USBFS.c ****         CyIntSetPriority     (USBFS_EP_1_VECT_NUM,  USBFS_EP_1_PRIOR);
 346:.\Generated_Source\PSoC4/USBFS.c ****         (void) CyIntSetVector(USBFS_EP_1_VECT_NUM,  &USBFS_EP_1_ISR);
 347:.\Generated_Source\PSoC4/USBFS.c ****     #endif /* (USBFS_EP1_ISR_ACTIVE) */
 348:.\Generated_Source\PSoC4/USBFS.c **** 
 349:.\Generated_Source\PSoC4/USBFS.c ****     /* Set Data Endpoint 2 Interrupt. */
 350:.\Generated_Source\PSoC4/USBFS.c ****     #if (USBFS_EP2_ISR_ACTIVE)
 351:.\Generated_Source\PSoC4/USBFS.c ****         CyIntSetPriority     (USBFS_EP_2_VECT_NUM,  USBFS_EP_2_PRIOR);
 352:.\Generated_Source\PSoC4/USBFS.c ****         (void) CyIntSetVector(USBFS_EP_2_VECT_NUM, &USBFS_EP_2_ISR);
 353:.\Generated_Source\PSoC4/USBFS.c ****     #endif /* (USBFS_EP2_ISR_ACTIVE) */
 354:.\Generated_Source\PSoC4/USBFS.c **** 
 355:.\Generated_Source\PSoC4/USBFS.c ****     /* Set Data Endpoint 3 Interrupt. */
 356:.\Generated_Source\PSoC4/USBFS.c ****     #if (USBFS_EP3_ISR_ACTIVE)
 357:.\Generated_Source\PSoC4/USBFS.c ****         CyIntSetPriority     (USBFS_EP_3_VECT_NUM,  USBFS_EP_3_PRIOR);
 358:.\Generated_Source\PSoC4/USBFS.c ****         (void) CyIntSetVector(USBFS_EP_3_VECT_NUM, &USBFS_EP_3_ISR);
 359:.\Generated_Source\PSoC4/USBFS.c ****     #endif /* (USBFS_EP3_ISR_ACTIVE) */
 360:.\Generated_Source\PSoC4/USBFS.c **** 
 361:.\Generated_Source\PSoC4/USBFS.c ****     /* Set Data Endpoint 4 Interrupt. */
 362:.\Generated_Source\PSoC4/USBFS.c ****     #if (USBFS_EP4_ISR_ACTIVE)
 363:.\Generated_Source\PSoC4/USBFS.c ****         CyIntSetPriority     (USBFS_EP_4_VECT_NUM,  USBFS_EP_4_PRIOR);
 364:.\Generated_Source\PSoC4/USBFS.c ****         (void) CyIntSetVector(USBFS_EP_4_VECT_NUM, &USBFS_EP_4_ISR);
 365:.\Generated_Source\PSoC4/USBFS.c ****     #endif /* (USBFS_EP4_ISR_ACTIVE) */
 366:.\Generated_Source\PSoC4/USBFS.c **** 
 367:.\Generated_Source\PSoC4/USBFS.c ****     /* Set Data Endpoint 5 Interrupt. */
 368:.\Generated_Source\PSoC4/USBFS.c ****     #if (USBFS_EP5_ISR_ACTIVE)
 369:.\Generated_Source\PSoC4/USBFS.c ****         CyIntSetPriority     (USBFS_EP_5_VECT_NUM,  USBFS_EP_5_PRIOR);
 370:.\Generated_Source\PSoC4/USBFS.c ****         (void) CyIntSetVector(USBFS_EP_5_VECT_NUM, &USBFS_EP_5_ISR);
 371:.\Generated_Source\PSoC4/USBFS.c ****     #endif /* (USBFS_EP5_ISR_ACTIVE) */
 372:.\Generated_Source\PSoC4/USBFS.c **** 
 373:.\Generated_Source\PSoC4/USBFS.c ****     /* Set Data Endpoint 6 Interrupt. */
 374:.\Generated_Source\PSoC4/USBFS.c ****     #if (USBFS_EP6_ISR_ACTIVE)
 375:.\Generated_Source\PSoC4/USBFS.c ****         CyIntSetPriority     (USBFS_EP_6_VECT_NUM,  USBFS_EP_6_PRIOR);
 376:.\Generated_Source\PSoC4/USBFS.c ****         (void) CyIntSetVector(USBFS_EP_6_VECT_NUM, &USBFS_EP_6_ISR);
 377:.\Generated_Source\PSoC4/USBFS.c ****     #endif /* (USBFS_EP6_ISR_ACTIVE) */
 378:.\Generated_Source\PSoC4/USBFS.c **** 
 379:.\Generated_Source\PSoC4/USBFS.c ****      /* Set Data Endpoint 7 Interrupt. */
 380:.\Generated_Source\PSoC4/USBFS.c ****     #if (USBFS_EP7_ISR_ACTIVE)
 381:.\Generated_Source\PSoC4/USBFS.c ****         CyIntSetPriority     (USBFS_EP_7_VECT_NUM,  USBFS_EP_7_PRIOR);
 382:.\Generated_Source\PSoC4/USBFS.c ****         (void) CyIntSetVector(USBFS_EP_7_VECT_NUM, &USBFS_EP_7_ISR);
 383:.\Generated_Source\PSoC4/USBFS.c ****     #endif /* (USBFS_EP7_ISR_ACTIVE) */
 384:.\Generated_Source\PSoC4/USBFS.c **** 
 385:.\Generated_Source\PSoC4/USBFS.c ****     /* Set Data Endpoint 8 Interrupt. */
 386:.\Generated_Source\PSoC4/USBFS.c ****     #if (USBFS_EP8_ISR_ACTIVE)
 387:.\Generated_Source\PSoC4/USBFS.c ****         CyIntSetPriority     (USBFS_EP_8_VECT_NUM,  USBFS_EP_8_PRIOR);
 388:.\Generated_Source\PSoC4/USBFS.c ****         (void) CyIntSetVector(USBFS_EP_8_VECT_NUM, &USBFS_EP_8_ISR);
 389:.\Generated_Source\PSoC4/USBFS.c ****     #endif /* (USBFS_EP8_ISR_ACTIVE) */
 390:.\Generated_Source\PSoC4/USBFS.c **** 
 391:.\Generated_Source\PSoC4/USBFS.c ****     /* Set ARB Interrupt. */
 392:.\Generated_Source\PSoC4/USBFS.c ****     #if (USBFS_EP_MANAGEMENT_DMA && USBFS_ARB_ISR_ACTIVE)
 393:.\Generated_Source\PSoC4/USBFS.c ****         CyIntSetPriority     (USBFS_ARB_VECT_NUM,  USBFS_ARB_PRIOR);
 394:.\Generated_Source\PSoC4/USBFS.c ****         (void) CyIntSetVector(USBFS_ARB_VECT_NUM, &USBFS_ARB_ISR);
 395:.\Generated_Source\PSoC4/USBFS.c ****     #endif /* (USBFS_EP_MANAGEMENT_DMA && USBFS_ARB_ISR_ACTIVE) */
 396:.\Generated_Source\PSoC4/USBFS.c **** #endif /* (CY_PSOC4) */
 397:.\Generated_Source\PSoC4/USBFS.c **** 
ARM GAS  C:\Users\JAVIER~1\AppData\Local\Temp\ccfijmG3.s 			page 10


 398:.\Generated_Source\PSoC4/USBFS.c ****     /* Common: Configure GPIO interrupt for wakeup. */
 399:.\Generated_Source\PSoC4/USBFS.c **** #if (USBFS_DP_ISR_ACTIVE)
 400:.\Generated_Source\PSoC4/USBFS.c ****     CyIntSetPriority     (USBFS_DP_INTC_VECT_NUM,  USBFS_DP_INTC_PRIORITY);
 117              		.loc 1 400 0 discriminator 4
 118 0086 0520     		mov	r0, #5
 119 0088 0321     		mov	r1, #3
 120 008a FFF7FEFF 		bl	CyIntSetPriority
 121              	.LVL8:
 401:.\Generated_Source\PSoC4/USBFS.c ****     (void) CyIntSetVector(USBFS_DP_INTC_VECT_NUM, &USBFS_DP_ISR);
 122              		.loc 1 401 0 discriminator 4
 123 008e 0520     		mov	r0, #5
 124 0090 0E49     		ldr	r1, .L3+52
 125 0092 FFF7FEFF 		bl	CyIntSetVector
 126              	.LVL9:
 402:.\Generated_Source\PSoC4/USBFS.c **** #endif /* (USBFS_DP_ISR_ACTIVE) */
 403:.\Generated_Source\PSoC4/USBFS.c **** 
 404:.\Generated_Source\PSoC4/USBFS.c **** #if (USBFS_EP_MANAGEMENT_DMA && CY_PSOC4)
 405:.\Generated_Source\PSoC4/USBFS.c ****     /* Initialize DMA channels. */
 406:.\Generated_Source\PSoC4/USBFS.c ****     USBFS_InitEpDma();
 407:.\Generated_Source\PSoC4/USBFS.c **** #endif /* (USBFS_EP_MANAGEMENT_DMA && CY_PSOC4) */
 408:.\Generated_Source\PSoC4/USBFS.c **** }
 127              		.loc 1 408 0 discriminator 4
 128              		@ sp needed
 129 0096 10BD     		pop	{r4, pc}
 130              	.L4:
 131              		.align	2
 132              	.L3:
 133 0098 74022C40 		.word	1076626036
 134 009c 48002C40 		.word	1076625480
 135 00a0 30032C40 		.word	1076626224
 136 00a4 00202C40 		.word	1076633600
 137 00a8 03000004 		.word	67108867
 138 00ac 0C0000B8 		.word	-1207959540
 139 00b0 24002C40 		.word	1076625444
 140 00b4 1A000500 		.word	327706
 141 00b8 30202C40 		.word	1076633648
 142 00bc 28202C40 		.word	1076633640
 143 00c0 00000000 		.word	USBFS_INTR_HI_ISR
 144 00c4 00000000 		.word	USBFS_INTR_LO_ISR
 145 00c8 00000000 		.word	USBFS_INTR_MED_ISR
 146 00cc 00000000 		.word	USBFS_DP_ISR
 147              		.cfi_endproc
 148              	.LFE3:
 149              		.size	USBFS_Init, .-USBFS_Init
 150              		.section	.text.USBFS_InitComponent,"ax",%progbits
 151              		.align	2
 152              		.global	USBFS_InitComponent
 153              		.code	16
 154              		.thumb_func
 155              		.type	USBFS_InitComponent, %function
 156              	USBFS_InitComponent:
 157              	.LFB4:
 409:.\Generated_Source\PSoC4/USBFS.c **** 
 410:.\Generated_Source\PSoC4/USBFS.c **** 
 411:.\Generated_Source\PSoC4/USBFS.c **** /*******************************************************************************
 412:.\Generated_Source\PSoC4/USBFS.c **** * Function Name: USBFS_InitComponent
 413:.\Generated_Source\PSoC4/USBFS.c **** ****************************************************************************//**
ARM GAS  C:\Users\JAVIER~1\AppData\Local\Temp\ccfijmG3.s 			page 11


 414:.\Generated_Source\PSoC4/USBFS.c **** *
 415:.\Generated_Source\PSoC4/USBFS.c **** *   This function initializes the component’s global variables and initiates
 416:.\Generated_Source\PSoC4/USBFS.c **** *   communication with the host by pull-up D+ line.
 417:.\Generated_Source\PSoC4/USBFS.c **** *
 418:.\Generated_Source\PSoC4/USBFS.c **** * \param device:
 419:.\Generated_Source\PSoC4/USBFS.c **** *   Contains the device number of the desired device descriptor. The device
 420:.\Generated_Source\PSoC4/USBFS.c **** *   number can be found in the Device Descriptor Tab of "Configure" dialog,
 421:.\Generated_Source\PSoC4/USBFS.c **** *   under the settings of desired Device Descriptor, in the *Device Number*
 422:.\Generated_Source\PSoC4/USBFS.c **** *   field.
 423:.\Generated_Source\PSoC4/USBFS.c **** *  \param mode:
 424:.\Generated_Source\PSoC4/USBFS.c **** *   The operating voltage. This determines whether the voltage regulator
 425:.\Generated_Source\PSoC4/USBFS.c **** *   is enabled for 5V operation or if pass through mode is used for 3.3V
 426:.\Generated_Source\PSoC4/USBFS.c **** *   operation. Symbolic names and their associated values are given in the
 427:.\Generated_Source\PSoC4/USBFS.c **** *   following list.
 428:.\Generated_Source\PSoC4/USBFS.c **** *
 429:.\Generated_Source\PSoC4/USBFS.c **** *       *USBFS_3V_OPERATION* - Disable voltage regulator and pass-
 430:.\Generated_Source\PSoC4/USBFS.c **** *                                      through Vcc for pull-up
 431:.\Generated_Source\PSoC4/USBFS.c **** *
 432:.\Generated_Source\PSoC4/USBFS.c **** *       *USBFS_5V_OPERATION* - Enable voltage regulator and use
 433:.\Generated_Source\PSoC4/USBFS.c **** *                                      regulator for pull-up
 434:.\Generated_Source\PSoC4/USBFS.c **** *
 435:.\Generated_Source\PSoC4/USBFS.c **** *       *USBFS_DWR_POWER_OPERATION* - Enable or disable the voltage
 436:.\Generated_Source\PSoC4/USBFS.c **** *                                      regulator depending on the power supply
 437:.\Generated_Source\PSoC4/USBFS.c **** *                                      voltage configuration in the DWR tab.
 438:.\Generated_Source\PSoC4/USBFS.c **** *                                      For PSoC 3/5LP devices, the VDDD supply
 439:.\Generated_Source\PSoC4/USBFS.c **** *                                      voltage is considered and for PSoC 4A-L,
 440:.\Generated_Source\PSoC4/USBFS.c **** *                                      the VBUS supply voltage is considered.
 441:.\Generated_Source\PSoC4/USBFS.c **** *
 442:.\Generated_Source\PSoC4/USBFS.c **** * \globalvars
 443:.\Generated_Source\PSoC4/USBFS.c **** *   \ref USBFS_device
 444:.\Generated_Source\PSoC4/USBFS.c **** *   \ref USBFS_transferState
 445:.\Generated_Source\PSoC4/USBFS.c **** *   \ref USBFS_configuration
 446:.\Generated_Source\PSoC4/USBFS.c **** *   \ref USBFS_deviceStatus
 447:.\Generated_Source\PSoC4/USBFS.c **** *
 448:.\Generated_Source\PSoC4/USBFS.c **** *   \ref USBFS_deviceAddress - Contains the current device address. This
 449:.\Generated_Source\PSoC4/USBFS.c **** *       variable is initialized to zero in this API. The Host starts to communicate
 450:.\Generated_Source\PSoC4/USBFS.c **** *      to the device with address 0 and then sets it to a whatever value using a
 451:.\Generated_Source\PSoC4/USBFS.c **** *      SET_ADDRESS request.
 452:.\Generated_Source\PSoC4/USBFS.c **** *
 453:.\Generated_Source\PSoC4/USBFS.c **** *   \ref USBFS_lastPacketSize - Initialized to 0;
 454:.\Generated_Source\PSoC4/USBFS.c **** *
 455:.\Generated_Source\PSoC4/USBFS.c **** * \reentrant
 456:.\Generated_Source\PSoC4/USBFS.c **** *  No.
 457:.\Generated_Source\PSoC4/USBFS.c **** *
 458:.\Generated_Source\PSoC4/USBFS.c **** *******************************************************************************/
 459:.\Generated_Source\PSoC4/USBFS.c **** void USBFS_InitComponent(uint8 device, uint8 mode) 
 460:.\Generated_Source\PSoC4/USBFS.c **** {
 158              		.loc 1 460 0
 159              		.cfi_startproc
 160              	.LVL10:
 161 0000 10B5     		push	{r4, lr}
 162              		.cfi_def_cfa_offset 8
 163              		.cfi_offset 4, -8
 164              		.cfi_offset 14, -4
 165 0002 0C1C     		mov	r4, r1
 166              	.LVL11:
 461:.\Generated_Source\PSoC4/USBFS.c ****     /* Initialize _hidProtocol variable to comply with
ARM GAS  C:\Users\JAVIER~1\AppData\Local\Temp\ccfijmG3.s 			page 12


 462:.\Generated_Source\PSoC4/USBFS.c ****     *  HID 7.2.6 Set_Protocol Request:
 463:.\Generated_Source\PSoC4/USBFS.c ****     *  "When initialized, all devices default to report protocol."
 464:.\Generated_Source\PSoC4/USBFS.c ****     */
 465:.\Generated_Source\PSoC4/USBFS.c **** #if defined(USBFS_ENABLE_HID_CLASS)
 466:.\Generated_Source\PSoC4/USBFS.c ****     uint8 i;
 467:.\Generated_Source\PSoC4/USBFS.c **** 
 468:.\Generated_Source\PSoC4/USBFS.c ****     for (i = 0u; i < USBFS_MAX_INTERFACES_NUMBER; i++)
 167              		.loc 1 468 0
 168 0004 0023     		mov	r3, #0
 169 0006 04E0     		b	.L6
 170              	.LVL12:
 171              	.L7:
 469:.\Generated_Source\PSoC4/USBFS.c ****     {
 470:.\Generated_Source\PSoC4/USBFS.c ****         USBFS_hidProtocol[i] = USBFS_PROTOCOL_REPORT;
 172              		.loc 1 470 0 discriminator 3
 173 0008 0121     		mov	r1, #1
 174 000a 234A     		ldr	r2, .L13
 175 000c D154     		strb	r1, [r2, r3]
 468:.\Generated_Source\PSoC4/USBFS.c ****     {
 176              		.loc 1 468 0 discriminator 3
 177 000e 0133     		add	r3, r3, #1
 178              	.LVL13:
 179 0010 DBB2     		uxtb	r3, r3
 180              	.LVL14:
 181              	.L6:
 468:.\Generated_Source\PSoC4/USBFS.c ****     {
 182              		.loc 1 468 0 is_stmt 0 discriminator 1
 183 0012 012B     		cmp	r3, #1
 184 0014 F8D9     		bls	.L7
 471:.\Generated_Source\PSoC4/USBFS.c ****     }
 472:.\Generated_Source\PSoC4/USBFS.c **** #endif /* USBFS_ENABLE_HID_CLASS */
 473:.\Generated_Source\PSoC4/USBFS.c **** 
 474:.\Generated_Source\PSoC4/USBFS.c ****     /* Store device number to access descriptor. */
 475:.\Generated_Source\PSoC4/USBFS.c ****     USBFS_device = device;
 185              		.loc 1 475 0 is_stmt 1
 186 0016 214B     		ldr	r3, .L13+4
 187              	.LVL15:
 188 0018 1870     		strb	r0, [r3]
 476:.\Generated_Source\PSoC4/USBFS.c **** 
 477:.\Generated_Source\PSoC4/USBFS.c ****     /* Reset component internal variables. */
 478:.\Generated_Source\PSoC4/USBFS.c ****     USBFS_transferState   = USBFS_TRANS_STATE_IDLE;
 189              		.loc 1 478 0
 190 001a 0023     		mov	r3, #0
 191 001c 204A     		ldr	r2, .L13+8
 192 001e 1370     		strb	r3, [r2]
 479:.\Generated_Source\PSoC4/USBFS.c ****     USBFS_configurationChanged = 0u;
 193              		.loc 1 479 0
 194 0020 204A     		ldr	r2, .L13+12
 195 0022 1370     		strb	r3, [r2]
 480:.\Generated_Source\PSoC4/USBFS.c ****     USBFS_configuration   = 0u;
 196              		.loc 1 480 0
 197 0024 204A     		ldr	r2, .L13+16
 198 0026 1370     		strb	r3, [r2]
 481:.\Generated_Source\PSoC4/USBFS.c ****     USBFS_interfaceNumber = 0u;
 199              		.loc 1 481 0
 200 0028 204A     		ldr	r2, .L13+20
 201 002a 1370     		strb	r3, [r2]
ARM GAS  C:\Users\JAVIER~1\AppData\Local\Temp\ccfijmG3.s 			page 13


 482:.\Generated_Source\PSoC4/USBFS.c ****     USBFS_deviceAddress   = 0u;
 202              		.loc 1 482 0
 203 002c 204A     		ldr	r2, .L13+24
 204 002e 1370     		strb	r3, [r2]
 483:.\Generated_Source\PSoC4/USBFS.c ****     USBFS_deviceStatus    = 0u;
 205              		.loc 1 483 0
 206 0030 204A     		ldr	r2, .L13+28
 207 0032 1370     		strb	r3, [r2]
 484:.\Generated_Source\PSoC4/USBFS.c ****     USBFS_lastPacketSize  = 0u;
 208              		.loc 1 484 0
 209 0034 204A     		ldr	r2, .L13+32
 210 0036 1370     		strb	r3, [r2]
 485:.\Generated_Source\PSoC4/USBFS.c **** 
 486:.\Generated_Source\PSoC4/USBFS.c ****     /* Enable component interrupts. */
 487:.\Generated_Source\PSoC4/USBFS.c **** #if (CY_PSOC4)
 488:.\Generated_Source\PSoC4/USBFS.c ****     CyIntEnable(USBFS_INTR_HI_VECT_NUM);
 211              		.loc 1 488 0
 212 0038 1E20     		mov	r0, #30
 213              	.LVL16:
 214 003a FFF7FEFF 		bl	CyIntEnable
 215              	.LVL17:
 489:.\Generated_Source\PSoC4/USBFS.c ****     CyIntEnable(USBFS_INTR_MED_VECT_NUM);
 216              		.loc 1 489 0
 217 003e 0020     		mov	r0, #0
 218 0040 FFF7FEFF 		bl	CyIntEnable
 219              	.LVL18:
 490:.\Generated_Source\PSoC4/USBFS.c ****     CyIntEnable(USBFS_INTR_LO_VECT_NUM);
 220              		.loc 1 490 0
 221 0044 1F20     		mov	r0, #31
 222 0046 FFF7FEFF 		bl	CyIntEnable
 223              	.LVL19:
 491:.\Generated_Source\PSoC4/USBFS.c **** #else
 492:.\Generated_Source\PSoC4/USBFS.c ****     CyIntEnable(USBFS_BUS_RESET_VECT_NUM);
 493:.\Generated_Source\PSoC4/USBFS.c ****     CyIntEnable(USBFS_EP_0_VECT_NUM);
 494:.\Generated_Source\PSoC4/USBFS.c **** 
 495:.\Generated_Source\PSoC4/USBFS.c ****     #if (USBFS_SOF_ISR_ACTIVE)
 496:.\Generated_Source\PSoC4/USBFS.c ****         CyIntEnable(USBFS_SOF_VECT_NUM);
 497:.\Generated_Source\PSoC4/USBFS.c ****     #endif /* (USBFS_SOF_ISR_ACTIVE) */
 498:.\Generated_Source\PSoC4/USBFS.c **** 
 499:.\Generated_Source\PSoC4/USBFS.c ****     #if (USBFS_EP1_ISR_ACTIVE)
 500:.\Generated_Source\PSoC4/USBFS.c ****         CyIntEnable(USBFS_EP_1_VECT_NUM);
 501:.\Generated_Source\PSoC4/USBFS.c ****     #endif /* (USBFS_EP1_ISR_ACTIVE) */
 502:.\Generated_Source\PSoC4/USBFS.c **** 
 503:.\Generated_Source\PSoC4/USBFS.c ****     #if (USBFS_EP2_ISR_ACTIVE)
 504:.\Generated_Source\PSoC4/USBFS.c ****         CyIntEnable(USBFS_EP_2_VECT_NUM);
 505:.\Generated_Source\PSoC4/USBFS.c ****     #endif /* (USBFS_EP5_ISR_ACTIVE) */
 506:.\Generated_Source\PSoC4/USBFS.c **** 
 507:.\Generated_Source\PSoC4/USBFS.c ****     #if (USBFS_EP3_ISR_ACTIVE)
 508:.\Generated_Source\PSoC4/USBFS.c ****         CyIntEnable(USBFS_EP_3_VECT_NUM);
 509:.\Generated_Source\PSoC4/USBFS.c ****     #endif /* (USBFS_EP5_ISR_ACTIVE) */
 510:.\Generated_Source\PSoC4/USBFS.c **** 
 511:.\Generated_Source\PSoC4/USBFS.c ****     #if (USBFS_EP4_ISR_ACTIVE)
 512:.\Generated_Source\PSoC4/USBFS.c ****         CyIntEnable(USBFS_EP_4_VECT_NUM);
 513:.\Generated_Source\PSoC4/USBFS.c ****     #endif /* (USBFS_EP5_ISR_ACTIVE) */
 514:.\Generated_Source\PSoC4/USBFS.c **** 
 515:.\Generated_Source\PSoC4/USBFS.c ****     #if (USBFS_EP5_ISR_ACTIVE)
 516:.\Generated_Source\PSoC4/USBFS.c ****         CyIntEnable(USBFS_EP_5_VECT_NUM);
ARM GAS  C:\Users\JAVIER~1\AppData\Local\Temp\ccfijmG3.s 			page 14


 517:.\Generated_Source\PSoC4/USBFS.c ****     #endif /* (USBFS_EP5_ISR_ACTIVE) */
 518:.\Generated_Source\PSoC4/USBFS.c **** 
 519:.\Generated_Source\PSoC4/USBFS.c ****     #if (USBFS_EP6_ISR_ACTIVE)
 520:.\Generated_Source\PSoC4/USBFS.c ****         CyIntEnable(USBFS_EP_6_VECT_NUM);
 521:.\Generated_Source\PSoC4/USBFS.c ****     #endif /* USBFS_EP6_ISR_REMOVE */
 522:.\Generated_Source\PSoC4/USBFS.c **** 
 523:.\Generated_Source\PSoC4/USBFS.c ****     #if (USBFS_EP7_ISR_ACTIVE)
 524:.\Generated_Source\PSoC4/USBFS.c ****         CyIntEnable(USBFS_EP_7_VECT_NUM);
 525:.\Generated_Source\PSoC4/USBFS.c ****     #endif /* (USBFS_EP7_ISR_ACTIVE) */
 526:.\Generated_Source\PSoC4/USBFS.c **** 
 527:.\Generated_Source\PSoC4/USBFS.c ****     #if (USBFS_EP8_ISR_ACTIVE)
 528:.\Generated_Source\PSoC4/USBFS.c ****         CyIntEnable(USBFS_EP_8_VECT_NUM);
 529:.\Generated_Source\PSoC4/USBFS.c ****     #endif /* (USBFS_EP8_ISR_ACTIVE) */
 530:.\Generated_Source\PSoC4/USBFS.c **** #endif /* (CY_PSOC4) */
 531:.\Generated_Source\PSoC4/USBFS.c **** 
 532:.\Generated_Source\PSoC4/USBFS.c **** #if (USBFS_EP_MANAGEMENT_DMA && USBFS_ARB_ISR_ACTIVE)
 533:.\Generated_Source\PSoC4/USBFS.c ****     /* Enable ARB EP interrupt sources. */
 534:.\Generated_Source\PSoC4/USBFS.c ****     USBFS_ARB_INT_EN_REG = USBFS_DEFAULT_ARB_INT_EN;
 535:.\Generated_Source\PSoC4/USBFS.c **** 
 536:.\Generated_Source\PSoC4/USBFS.c ****     #if (CY_PSOC3 || CY_PSOC5)
 537:.\Generated_Source\PSoC4/USBFS.c ****         CyIntEnable(USBFS_ARB_VECT_NUM);
 538:.\Generated_Source\PSoC4/USBFS.c ****     #endif /* (CY_PSOC3 || CY_PSOC5) */
 539:.\Generated_Source\PSoC4/USBFS.c **** #endif   /* (USBFS_EP_MANAGEMENT_DMA && USBFS_ARB_ISR_ACTIVE) */
 540:.\Generated_Source\PSoC4/USBFS.c **** 
 541:.\Generated_Source\PSoC4/USBFS.c **** /* Arbiter configuration for DMA transfers. */
 542:.\Generated_Source\PSoC4/USBFS.c **** #if (USBFS_EP_MANAGEMENT_DMA)
 543:.\Generated_Source\PSoC4/USBFS.c ****     /* Configure Arbiter for Manual or Auto DMA operation and clear configuration completion. */
 544:.\Generated_Source\PSoC4/USBFS.c ****     USBFS_ARB_CFG_REG = USBFS_DEFAULT_ARB_CFG;
 545:.\Generated_Source\PSoC4/USBFS.c **** 
 546:.\Generated_Source\PSoC4/USBFS.c ****     #if (CY_PSOC4)
 547:.\Generated_Source\PSoC4/USBFS.c ****         /* Enable DMA operation. */
 548:.\Generated_Source\PSoC4/USBFS.c ****         CyDmaEnable();
 549:.\Generated_Source\PSoC4/USBFS.c **** 
 550:.\Generated_Source\PSoC4/USBFS.c ****         #if (USBFS_EP_MANAGEMENT_DMA_AUTO)
 551:.\Generated_Source\PSoC4/USBFS.c ****             /* Change DMA priority to be highest. */
 552:.\Generated_Source\PSoC4/USBFS.c ****              CyIntSetPriority(CYDMA_INTR_NUMBER, USBFS_DMA_AUTO_INTR_PRIO);
 553:.\Generated_Source\PSoC4/USBFS.c ****         #endif /* (USBFS_EP_MANAGEMENT_DMA_AUTO) */
 554:.\Generated_Source\PSoC4/USBFS.c ****     #endif /* (CY_PSOC4) */
 555:.\Generated_Source\PSoC4/USBFS.c **** 
 556:.\Generated_Source\PSoC4/USBFS.c ****     #if (USBFS_EP_MANAGEMENT_DMA_AUTO)
 557:.\Generated_Source\PSoC4/USBFS.c ****         #if (CY_PSOC4)
 558:.\Generated_Source\PSoC4/USBFS.c ****             /* Enable DMA interrupt to handle DMA management. */
 559:.\Generated_Source\PSoC4/USBFS.c ****             CyIntEnable(CYDMA_INTR_NUMBER);
 560:.\Generated_Source\PSoC4/USBFS.c ****         #else
 561:.\Generated_Source\PSoC4/USBFS.c ****             #if (USBFS_EP_DMA_AUTO_OPT == 0u)
 562:.\Generated_Source\PSoC4/USBFS.c ****                 /* Initialize interrupts which handle verification of successful DMA transaction. *
 563:.\Generated_Source\PSoC4/USBFS.c ****                 USBFS_EP_DMA_Done_isr_StartEx(&USBFS_EP_DMA_DONE_ISR);
 564:.\Generated_Source\PSoC4/USBFS.c ****                 USBFS_EP17_DMA_Done_SR_InterruptEnable();
 565:.\Generated_Source\PSoC4/USBFS.c ****                 USBFS_EP8_DMA_Done_SR_InterruptEnable();
 566:.\Generated_Source\PSoC4/USBFS.c ****             #endif /* (USBFS_EP_DMA_AUTO_OPT == 0u) */
 567:.\Generated_Source\PSoC4/USBFS.c ****         #endif /* (CY_PSOC4) */
 568:.\Generated_Source\PSoC4/USBFS.c ****     #endif /* (USBFS_EP_MANAGEMENT_DMA_AUTO) */
 569:.\Generated_Source\PSoC4/USBFS.c **** #endif /* (USBFS_EP_MANAGEMENT_DMA) */
 570:.\Generated_Source\PSoC4/USBFS.c **** 
 571:.\Generated_Source\PSoC4/USBFS.c ****     /* Enable USB regulator depends on operation voltage. IMO Locking is enabled in Init(). */
 572:.\Generated_Source\PSoC4/USBFS.c ****     switch(mode)
 224              		.loc 1 572 0
ARM GAS  C:\Users\JAVIER~1\AppData\Local\Temp\ccfijmG3.s 			page 15


 225 004a 002C     		cmp	r4, #0
 226 004c 02D0     		beq	.L9
 227 004e 012C     		cmp	r4, #1
 228 0050 06D0     		beq	.L10
 229 0052 0BE0     		b	.L12
 230              	.L9:
 573:.\Generated_Source\PSoC4/USBFS.c ****     {
 574:.\Generated_Source\PSoC4/USBFS.c ****     case USBFS_3V_OPERATION:
 575:.\Generated_Source\PSoC4/USBFS.c ****         /* Disable regulator for 3V operation. */
 576:.\Generated_Source\PSoC4/USBFS.c ****         USBFS_CR1_REG &= (uint32) ~USBFS_CR1_REG_ENABLE;
 231              		.loc 1 576 0
 232 0054 194A     		ldr	r2, .L13+36
 233 0056 1368     		ldr	r3, [r2]
 234 0058 0121     		mov	r1, #1
 235 005a 8B43     		bic	r3, r1
 236 005c 1360     		str	r3, [r2]
 577:.\Generated_Source\PSoC4/USBFS.c ****         break;
 237              		.loc 1 577 0
 238 005e 0AE0     		b	.L11
 239              	.L10:
 578:.\Generated_Source\PSoC4/USBFS.c **** 
 579:.\Generated_Source\PSoC4/USBFS.c ****     case USBFS_5V_OPERATION:
 580:.\Generated_Source\PSoC4/USBFS.c ****         /* Enable regulator for 5V operation. */
 581:.\Generated_Source\PSoC4/USBFS.c ****         USBFS_CR1_REG |= (uint32)  USBFS_CR1_REG_ENABLE;
 240              		.loc 1 581 0
 241 0060 164A     		ldr	r2, .L13+36
 242 0062 1168     		ldr	r1, [r2]
 243 0064 0123     		mov	r3, #1
 244 0066 0B43     		orr	r3, r1
 245 0068 1360     		str	r3, [r2]
 582:.\Generated_Source\PSoC4/USBFS.c ****         break;
 246              		.loc 1 582 0
 247 006a 04E0     		b	.L11
 248              	.L12:
 583:.\Generated_Source\PSoC4/USBFS.c **** 
 584:.\Generated_Source\PSoC4/USBFS.c ****     default: /* Check DWR settings of USB power supply. */
 585:.\Generated_Source\PSoC4/USBFS.c ****     #if (USBFS_VDDD_MV < USBFS_3500MV)
 586:.\Generated_Source\PSoC4/USBFS.c ****         /* Disable regulator for 3V operation. */
 587:.\Generated_Source\PSoC4/USBFS.c ****         USBFS_CR1_REG &= (uint32) ~USBFS_CR1_REG_ENABLE;
 588:.\Generated_Source\PSoC4/USBFS.c ****     #else
 589:.\Generated_Source\PSoC4/USBFS.c ****         /* Enable regulator for 5V operation. */
 590:.\Generated_Source\PSoC4/USBFS.c ****         USBFS_CR1_REG |= (uint32)  USBFS_CR1_REG_ENABLE;
 249              		.loc 1 590 0
 250 006c 134A     		ldr	r2, .L13+36
 251 006e 1168     		ldr	r1, [r2]
 252 0070 0123     		mov	r3, #1
 253 0072 0B43     		orr	r3, r1
 254 0074 1360     		str	r3, [r2]
 255              	.L11:
 591:.\Generated_Source\PSoC4/USBFS.c ****     #endif /* (USBFS_VDDD_MV < USBFS_3500MV) */
 592:.\Generated_Source\PSoC4/USBFS.c ****         break;
 593:.\Generated_Source\PSoC4/USBFS.c ****     }
 594:.\Generated_Source\PSoC4/USBFS.c **** 
 595:.\Generated_Source\PSoC4/USBFS.c **** #if (CY_PSOC4)
 596:.\Generated_Source\PSoC4/USBFS.c ****     /* Clear bus activity. */
 597:.\Generated_Source\PSoC4/USBFS.c ****     USBFS_CR1_REG &= (uint32) ~USBFS_CR1_BUS_ACTIVITY;
 256              		.loc 1 597 0
ARM GAS  C:\Users\JAVIER~1\AppData\Local\Temp\ccfijmG3.s 			page 16


 257 0076 1149     		ldr	r1, .L13+36
 258 0078 0B68     		ldr	r3, [r1]
 259 007a 0422     		mov	r2, #4
 260 007c 9343     		bic	r3, r2
 261 007e 0B60     		str	r3, [r1]
 598:.\Generated_Source\PSoC4/USBFS.c **** 
 599:.\Generated_Source\PSoC4/USBFS.c ****     /* Clear EP0 count register. */
 600:.\Generated_Source\PSoC4/USBFS.c ****     USBFS_EP0_CNT_REG = USBFS_CLEAR_REG;
 262              		.loc 1 600 0
 263 0080 0021     		mov	r1, #0
 264 0082 0F4B     		ldr	r3, .L13+40
 265 0084 1960     		str	r1, [r3]
 601:.\Generated_Source\PSoC4/USBFS.c **** 
 602:.\Generated_Source\PSoC4/USBFS.c ****     /* Set EP0.CR: ACK Setup, NAK IN/OUT. */
 603:.\Generated_Source\PSoC4/USBFS.c ****     USBFS_EP0_CR_REG = USBFS_MODE_NAK_IN_OUT;
 266              		.loc 1 603 0
 267 0086 0131     		add	r1, r1, #1
 268 0088 0E4B     		ldr	r3, .L13+44
 269 008a 1960     		str	r1, [r3]
 604:.\Generated_Source\PSoC4/USBFS.c **** 
 605:.\Generated_Source\PSoC4/USBFS.c ****     #if (USBFS_LPM_ACTIVE)
 606:.\Generated_Source\PSoC4/USBFS.c ****         if (NULL != USBFS_GetBOSPtr())
 607:.\Generated_Source\PSoC4/USBFS.c ****         {
 608:.\Generated_Source\PSoC4/USBFS.c ****             /* Enable LPM and acknowledge LPM packets for active device.
 609:.\Generated_Source\PSoC4/USBFS.c ****             * Reset NYET_EN and SUB_RESP bits in the LPM_CTRL register.
 610:.\Generated_Source\PSoC4/USBFS.c ****             */
 611:.\Generated_Source\PSoC4/USBFS.c ****             USBFS_LPM_CTRL_REG = (USBFS_LPM_CTRL_LPM_EN | \
 612:.\Generated_Source\PSoC4/USBFS.c ****                                              USBFS_LPM_CTRL_LPM_ACK_RESP);
 613:.\Generated_Source\PSoC4/USBFS.c ****         }
 614:.\Generated_Source\PSoC4/USBFS.c ****         else
 615:.\Generated_Source\PSoC4/USBFS.c ****         {
 616:.\Generated_Source\PSoC4/USBFS.c ****             /* Disable LPM for active device. */
 617:.\Generated_Source\PSoC4/USBFS.c ****             USBFS_LPM_CTRL_REG &= (uint32) ~USBFS_LPM_CTRL_LPM_EN;
 618:.\Generated_Source\PSoC4/USBFS.c ****         }
 619:.\Generated_Source\PSoC4/USBFS.c ****     #endif /* (USBFS_LPM_ACTIVE) */
 620:.\Generated_Source\PSoC4/USBFS.c **** 
 621:.\Generated_Source\PSoC4/USBFS.c ****     /* Enable device to responds to USB traffic with address 0. */
 622:.\Generated_Source\PSoC4/USBFS.c ****     USBFS_CR0_REG = USBFS_DEFUALT_CR0;
 270              		.loc 1 622 0
 271 008c 7F31     		add	r1, r1, #127
 272 008e 0E4B     		ldr	r3, .L13+48
 273 0090 1960     		str	r1, [r3]
 623:.\Generated_Source\PSoC4/USBFS.c **** 
 624:.\Generated_Source\PSoC4/USBFS.c **** #else
 625:.\Generated_Source\PSoC4/USBFS.c ****     /* Set EP0.CR: ACK Setup, STALL IN/OUT. */
 626:.\Generated_Source\PSoC4/USBFS.c ****     USBFS_EP0_CR_REG = USBFS_MODE_STALL_IN_OUT;
 627:.\Generated_Source\PSoC4/USBFS.c **** 
 628:.\Generated_Source\PSoC4/USBFS.c ****     /* Enable device to respond to USB traffic with address 0. */
 629:.\Generated_Source\PSoC4/USBFS.c ****     USBFS_CR0_REG = USBFS_DEFUALT_CR0;
 630:.\Generated_Source\PSoC4/USBFS.c ****     CyDelayCycles(USBFS_WAIT_CR0_REG_STABILITY);
 631:.\Generated_Source\PSoC4/USBFS.c **** #endif /* (CY_PSOC4) */
 632:.\Generated_Source\PSoC4/USBFS.c **** 
 633:.\Generated_Source\PSoC4/USBFS.c ****     /* Enable D+ pull-up and keep USB control on IO. */
 634:.\Generated_Source\PSoC4/USBFS.c ****     USBFS_USBIO_CR1_REG = USBFS_USBIO_CR1_USBPUEN;
 274              		.loc 1 634 0
 275 0092 0E4B     		ldr	r3, .L13+52
 276 0094 1A60     		str	r2, [r3]
ARM GAS  C:\Users\JAVIER~1\AppData\Local\Temp\ccfijmG3.s 			page 17


 635:.\Generated_Source\PSoC4/USBFS.c **** }
 277              		.loc 1 635 0
 278              		@ sp needed
 279 0096 10BD     		pop	{r4, pc}
 280              	.L14:
 281              		.align	2
 282              	.L13:
 283 0098 00000000 		.word	USBFS_hidProtocol
 284 009c 00000000 		.word	USBFS_device
 285 00a0 00000000 		.word	USBFS_transferState
 286 00a4 00000000 		.word	USBFS_configurationChanged
 287 00a8 00000000 		.word	USBFS_configuration
 288 00ac 00000000 		.word	USBFS_interfaceNumber
 289 00b0 00000000 		.word	USBFS_deviceAddress
 290 00b4 00000000 		.word	USBFS_deviceStatus
 291 00b8 00000000 		.word	USBFS_lastPacketSize
 292 00bc 24002C40 		.word	1076625444
 293 00c0 A4002C40 		.word	1076625572
 294 00c4 A0002C40 		.word	1076625568
 295 00c8 20002C40 		.word	1076625440
 296 00cc 48002C40 		.word	1076625480
 297              		.cfi_endproc
 298              	.LFE4:
 299              		.size	USBFS_InitComponent, .-USBFS_InitComponent
 300              		.section	.text.USBFS_Start,"ax",%progbits
 301              		.align	2
 302              		.global	USBFS_Start
 303              		.code	16
 304              		.thumb_func
 305              		.type	USBFS_Start, %function
 306              	USBFS_Start:
 307              	.LFB2:
 186:.\Generated_Source\PSoC4/USBFS.c ****     if (0u == USBFS_initVar)
 308              		.loc 1 186 0
 309              		.cfi_startproc
 310              	.LVL20:
 311 0000 38B5     		push	{r3, r4, r5, lr}
 312              		.cfi_def_cfa_offset 16
 313              		.cfi_offset 3, -16
 314              		.cfi_offset 4, -12
 315              		.cfi_offset 5, -8
 316              		.cfi_offset 14, -4
 317 0002 051C     		mov	r5, r0
 318 0004 0C1C     		mov	r4, r1
 187:.\Generated_Source\PSoC4/USBFS.c ****     {
 319              		.loc 1 187 0
 320 0006 074B     		ldr	r3, .L17
 321 0008 1B78     		ldrb	r3, [r3]
 322 000a 002B     		cmp	r3, #0
 323 000c 04D1     		bne	.L16
 189:.\Generated_Source\PSoC4/USBFS.c ****         USBFS_initVar = 1u;
 324              		.loc 1 189 0
 325 000e FFF7FEFF 		bl	USBFS_Init
 326              	.LVL21:
 190:.\Generated_Source\PSoC4/USBFS.c ****     }
 327              		.loc 1 190 0
 328 0012 0122     		mov	r2, #1
ARM GAS  C:\Users\JAVIER~1\AppData\Local\Temp\ccfijmG3.s 			page 18


 329 0014 034B     		ldr	r3, .L17
 330 0016 1A70     		strb	r2, [r3]
 331              	.L16:
 193:.\Generated_Source\PSoC4/USBFS.c **** }
 332              		.loc 1 193 0
 333 0018 281C     		mov	r0, r5
 334 001a 211C     		mov	r1, r4
 335 001c FFF7FEFF 		bl	USBFS_InitComponent
 336              	.LVL22:
 194:.\Generated_Source\PSoC4/USBFS.c **** 
 337              		.loc 1 194 0
 338              		@ sp needed
 339 0020 38BD     		pop	{r3, r4, r5, pc}
 340              	.L18:
 341 0022 C046     		.align	2
 342              	.L17:
 343 0024 00000000 		.word	.LANCHOR0
 344              		.cfi_endproc
 345              	.LFE2:
 346              		.size	USBFS_Start, .-USBFS_Start
 347              		.section	.text.USBFS_ReInitComponent,"ax",%progbits
 348              		.align	2
 349              		.global	USBFS_ReInitComponent
 350              		.code	16
 351              		.thumb_func
 352              		.type	USBFS_ReInitComponent, %function
 353              	USBFS_ReInitComponent:
 354              	.LFB5:
 636:.\Generated_Source\PSoC4/USBFS.c **** 
 637:.\Generated_Source\PSoC4/USBFS.c **** 
 638:.\Generated_Source\PSoC4/USBFS.c **** /*******************************************************************************
 639:.\Generated_Source\PSoC4/USBFS.c **** * Function Name: USBFS_ReInitComponent
 640:.\Generated_Source\PSoC4/USBFS.c **** ****************************************************************************//**
 641:.\Generated_Source\PSoC4/USBFS.c **** *
 642:.\Generated_Source\PSoC4/USBFS.c **** *  This function reinitialize the component configuration and is
 643:.\Generated_Source\PSoC4/USBFS.c **** *  intend to be called from the Reset interrupt.
 644:.\Generated_Source\PSoC4/USBFS.c **** *
 645:.\Generated_Source\PSoC4/USBFS.c **** * \globalvars
 646:.\Generated_Source\PSoC4/USBFS.c **** *   USBFS_device - Contains the device number of the desired Device
 647:.\Generated_Source\PSoC4/USBFS.c **** *        Descriptor. The device number can be found in the Device Descriptor tab
 648:.\Generated_Source\PSoC4/USBFS.c **** *       of the Configure dialog, under the settings of the desired Device Descriptor,
 649:.\Generated_Source\PSoC4/USBFS.c **** *       in the Device Number field.
 650:.\Generated_Source\PSoC4/USBFS.c **** *   USBFS_transferState - This variable is used by the communication
 651:.\Generated_Source\PSoC4/USBFS.c **** *       functions to handle the current transfer state. Initialized to
 652:.\Generated_Source\PSoC4/USBFS.c **** *       TRANS_STATE_IDLE in this API.
 653:.\Generated_Source\PSoC4/USBFS.c **** *   USBFS_configuration - Contains the current configuration number
 654:.\Generated_Source\PSoC4/USBFS.c **** *       set by the Host using a SET_CONFIGURATION request.
 655:.\Generated_Source\PSoC4/USBFS.c **** *       Initialized to zero in this API.
 656:.\Generated_Source\PSoC4/USBFS.c **** *   USBFS_deviceAddress - Contains the current device address. This
 657:.\Generated_Source\PSoC4/USBFS.c **** *       variable is initialized to zero in this API. The Host starts to communicate
 658:.\Generated_Source\PSoC4/USBFS.c **** *      to the device with address 0 and then sets it to a whatever value using
 659:.\Generated_Source\PSoC4/USBFS.c **** *      a SET_ADDRESS request.
 660:.\Generated_Source\PSoC4/USBFS.c **** *   USBFS_deviceStatus - Initialized to 0.
 661:.\Generated_Source\PSoC4/USBFS.c **** *       This is a two-bit variable which contains the power status in the first bit
 662:.\Generated_Source\PSoC4/USBFS.c **** *       (DEVICE_STATUS_BUS_POWERED or DEVICE_STATUS_SELF_POWERED) and the remote
 663:.\Generated_Source\PSoC4/USBFS.c **** *       wakeup status (DEVICE_STATUS_REMOTE_WAKEUP) in the second bit.
 664:.\Generated_Source\PSoC4/USBFS.c **** *   USBFS_lastPacketSize - Initialized to 0;
ARM GAS  C:\Users\JAVIER~1\AppData\Local\Temp\ccfijmG3.s 			page 19


 665:.\Generated_Source\PSoC4/USBFS.c **** *
 666:.\Generated_Source\PSoC4/USBFS.c **** * \reentrant
 667:.\Generated_Source\PSoC4/USBFS.c **** *  No.
 668:.\Generated_Source\PSoC4/USBFS.c **** *
 669:.\Generated_Source\PSoC4/USBFS.c **** *******************************************************************************/
 670:.\Generated_Source\PSoC4/USBFS.c **** void USBFS_ReInitComponent(void) 
 671:.\Generated_Source\PSoC4/USBFS.c **** {
 355              		.loc 1 671 0
 356              		.cfi_startproc
 357              	.LVL23:
 672:.\Generated_Source\PSoC4/USBFS.c ****     /* Initialize _hidProtocol variable to comply with HID 7.2.6 Set_Protocol
 673:.\Generated_Source\PSoC4/USBFS.c ****     *  Request: "When initialized, all devices default to report protocol."
 674:.\Generated_Source\PSoC4/USBFS.c ****     */
 675:.\Generated_Source\PSoC4/USBFS.c **** #if defined(USBFS_ENABLE_HID_CLASS)
 676:.\Generated_Source\PSoC4/USBFS.c ****     uint8 i;
 677:.\Generated_Source\PSoC4/USBFS.c **** 
 678:.\Generated_Source\PSoC4/USBFS.c ****     for (i = 0u; i < USBFS_MAX_INTERFACES_NUMBER; i++)
 358              		.loc 1 678 0
 359 0000 0023     		mov	r3, #0
 360 0002 04E0     		b	.L20
 361              	.LVL24:
 362              	.L21:
 679:.\Generated_Source\PSoC4/USBFS.c ****     {
 680:.\Generated_Source\PSoC4/USBFS.c ****         USBFS_hidProtocol[i] = USBFS_PROTOCOL_REPORT;
 363              		.loc 1 680 0 discriminator 3
 364 0004 0121     		mov	r1, #1
 365 0006 0E4A     		ldr	r2, .L22
 366 0008 D154     		strb	r1, [r2, r3]
 678:.\Generated_Source\PSoC4/USBFS.c ****     {
 367              		.loc 1 678 0 discriminator 3
 368 000a 0133     		add	r3, r3, #1
 369              	.LVL25:
 370 000c DBB2     		uxtb	r3, r3
 371              	.LVL26:
 372              	.L20:
 678:.\Generated_Source\PSoC4/USBFS.c ****     {
 373              		.loc 1 678 0 is_stmt 0 discriminator 1
 374 000e 012B     		cmp	r3, #1
 375 0010 F8D9     		bls	.L21
 681:.\Generated_Source\PSoC4/USBFS.c ****     }
 682:.\Generated_Source\PSoC4/USBFS.c **** #endif /* USBFS_ENABLE_HID_CLASS */
 683:.\Generated_Source\PSoC4/USBFS.c **** 
 684:.\Generated_Source\PSoC4/USBFS.c ****     /* Reset component internal variables. */
 685:.\Generated_Source\PSoC4/USBFS.c ****     USBFS_transferState   = USBFS_TRANS_STATE_IDLE;
 376              		.loc 1 685 0 is_stmt 1
 377 0012 0023     		mov	r3, #0
 378              	.LVL27:
 379 0014 0B4A     		ldr	r2, .L22+4
 380 0016 1370     		strb	r3, [r2]
 686:.\Generated_Source\PSoC4/USBFS.c ****     USBFS_configurationChanged = 0u;
 381              		.loc 1 686 0
 382 0018 0B4A     		ldr	r2, .L22+8
 383 001a 1370     		strb	r3, [r2]
 687:.\Generated_Source\PSoC4/USBFS.c ****     USBFS_configuration   = 0u;
 384              		.loc 1 687 0
 385 001c 0B4A     		ldr	r2, .L22+12
 386 001e 1370     		strb	r3, [r2]
ARM GAS  C:\Users\JAVIER~1\AppData\Local\Temp\ccfijmG3.s 			page 20


 688:.\Generated_Source\PSoC4/USBFS.c ****     USBFS_interfaceNumber = 0u;
 387              		.loc 1 688 0
 388 0020 0B4A     		ldr	r2, .L22+16
 389 0022 1370     		strb	r3, [r2]
 689:.\Generated_Source\PSoC4/USBFS.c ****     USBFS_deviceAddress   = 0u;
 390              		.loc 1 689 0
 391 0024 0B4A     		ldr	r2, .L22+20
 392 0026 1370     		strb	r3, [r2]
 690:.\Generated_Source\PSoC4/USBFS.c ****     USBFS_deviceStatus    = 0u;
 393              		.loc 1 690 0
 394 0028 0B4A     		ldr	r2, .L22+24
 395 002a 1370     		strb	r3, [r2]
 691:.\Generated_Source\PSoC4/USBFS.c ****     USBFS_lastPacketSize  = 0u;
 396              		.loc 1 691 0
 397 002c 0B4A     		ldr	r2, .L22+28
 398 002e 1370     		strb	r3, [r2]
 692:.\Generated_Source\PSoC4/USBFS.c **** 
 693:.\Generated_Source\PSoC4/USBFS.c **** #if (CY_PSOC4)
 694:.\Generated_Source\PSoC4/USBFS.c ****     /* Set EP0.CR: ACK Setup, NAK IN/OUT. */
 695:.\Generated_Source\PSoC4/USBFS.c ****     USBFS_EP0_CR_REG = USBFS_MODE_NAK_IN_OUT;
 399              		.loc 1 695 0
 400 0030 0122     		mov	r2, #1
 401 0032 0B4B     		ldr	r3, .L22+32
 402 0034 1A60     		str	r2, [r3]
 696:.\Generated_Source\PSoC4/USBFS.c **** #else
 697:.\Generated_Source\PSoC4/USBFS.c ****     /* Set EP0.CR: ACK Setup, STALL IN/OUT. */
 698:.\Generated_Source\PSoC4/USBFS.c ****     USBFS_EP0_CR_REG = USBFS_MODE_STALL_IN_OUT;
 699:.\Generated_Source\PSoC4/USBFS.c **** #endif /* (CY_PSOC4) */
 700:.\Generated_Source\PSoC4/USBFS.c **** 
 701:.\Generated_Source\PSoC4/USBFS.c ****     /* Enable device to respond to USB traffic with address 0. */
 702:.\Generated_Source\PSoC4/USBFS.c ****     USBFS_CR0_REG = USBFS_DEFUALT_CR0;
 403              		.loc 1 702 0
 404 0036 7F32     		add	r2, r2, #127
 405 0038 0A4B     		ldr	r3, .L22+36
 406 003a 1A60     		str	r2, [r3]
 703:.\Generated_Source\PSoC4/USBFS.c **** }
 407              		.loc 1 703 0
 408              		@ sp needed
 409 003c 7047     		bx	lr
 410              	.L23:
 411 003e C046     		.align	2
 412              	.L22:
 413 0040 00000000 		.word	USBFS_hidProtocol
 414 0044 00000000 		.word	USBFS_transferState
 415 0048 00000000 		.word	USBFS_configurationChanged
 416 004c 00000000 		.word	USBFS_configuration
 417 0050 00000000 		.word	USBFS_interfaceNumber
 418 0054 00000000 		.word	USBFS_deviceAddress
 419 0058 00000000 		.word	USBFS_deviceStatus
 420 005c 00000000 		.word	USBFS_lastPacketSize
 421 0060 A0002C40 		.word	1076625568
 422 0064 20002C40 		.word	1076625440
 423              		.cfi_endproc
 424              	.LFE5:
 425              		.size	USBFS_ReInitComponent, .-USBFS_ReInitComponent
 426              		.section	.text.USBFS_Stop,"ax",%progbits
 427              		.align	2
ARM GAS  C:\Users\JAVIER~1\AppData\Local\Temp\ccfijmG3.s 			page 21


 428              		.global	USBFS_Stop
 429              		.code	16
 430              		.thumb_func
 431              		.type	USBFS_Stop, %function
 432              	USBFS_Stop:
 433              	.LFB6:
 704:.\Generated_Source\PSoC4/USBFS.c **** 
 705:.\Generated_Source\PSoC4/USBFS.c **** 
 706:.\Generated_Source\PSoC4/USBFS.c **** /*******************************************************************************
 707:.\Generated_Source\PSoC4/USBFS.c **** * Function Name: USBFS_Stop
 708:.\Generated_Source\PSoC4/USBFS.c **** ****************************************************************************//**
 709:.\Generated_Source\PSoC4/USBFS.c **** *
 710:.\Generated_Source\PSoC4/USBFS.c **** *  This function shuts down the USB function including to release
 711:.\Generated_Source\PSoC4/USBFS.c **** *  the D+ pull-up and disabling the SIE.
 712:.\Generated_Source\PSoC4/USBFS.c **** *
 713:.\Generated_Source\PSoC4/USBFS.c **** * \globalvars
 714:.\Generated_Source\PSoC4/USBFS.c **** *   \ref USBFS_configuration
 715:.\Generated_Source\PSoC4/USBFS.c **** *
 716:.\Generated_Source\PSoC4/USBFS.c **** *   USBFS_deviceAddress - Contains the current device address. This
 717:.\Generated_Source\PSoC4/USBFS.c **** *       variable is initialized to zero in this API. The Host starts to communicate
 718:.\Generated_Source\PSoC4/USBFS.c **** *      to the device with address 0 and then sets it to a whatever value using
 719:.\Generated_Source\PSoC4/USBFS.c **** *      a SET_ADDRESS request.
 720:.\Generated_Source\PSoC4/USBFS.c **** *
 721:.\Generated_Source\PSoC4/USBFS.c **** *   \ref USBFS_deviceStatus
 722:.\Generated_Source\PSoC4/USBFS.c **** *
 723:.\Generated_Source\PSoC4/USBFS.c **** *   \ref USBFS_configurationChanged
 724:.\Generated_Source\PSoC4/USBFS.c **** *
 725:.\Generated_Source\PSoC4/USBFS.c **** *   USBFS_intiVar -  This variable is set to zero
 726:.\Generated_Source\PSoC4/USBFS.c **** *
 727:.\Generated_Source\PSoC4/USBFS.c **** *******************************************************************************/
 728:.\Generated_Source\PSoC4/USBFS.c **** void USBFS_Stop(void) 
 729:.\Generated_Source\PSoC4/USBFS.c **** {
 434              		.loc 1 729 0
 435              		.cfi_startproc
 436 0000 08B5     		push	{r3, lr}
 437              		.cfi_def_cfa_offset 8
 438              		.cfi_offset 3, -8
 439              		.cfi_offset 14, -4
 730:.\Generated_Source\PSoC4/USBFS.c ****     uint8 enableInterrupts;
 731:.\Generated_Source\PSoC4/USBFS.c **** 
 732:.\Generated_Source\PSoC4/USBFS.c **** #if (USBFS_EP_MANAGEMENT_DMA)
 733:.\Generated_Source\PSoC4/USBFS.c ****     /* Stop all DMA channels. */
 734:.\Generated_Source\PSoC4/USBFS.c ****     USBFS_Stop_DMA(USBFS_MAX_EP);
 735:.\Generated_Source\PSoC4/USBFS.c **** #endif /* (USBFS_EP_MANAGEMENT_DMA) */
 736:.\Generated_Source\PSoC4/USBFS.c **** 
 737:.\Generated_Source\PSoC4/USBFS.c ****     enableInterrupts = CyEnterCriticalSection();
 440              		.loc 1 737 0
 441 0002 FFF7FEFF 		bl	CyEnterCriticalSection
 442              	.LVL28:
 738:.\Generated_Source\PSoC4/USBFS.c **** 
 739:.\Generated_Source\PSoC4/USBFS.c ****     /* Disable USB IP to respond to USB traffic. */
 740:.\Generated_Source\PSoC4/USBFS.c ****     USBFS_CR0_REG &= (uint32) ~USBFS_CR0_ENABLE;
 443              		.loc 1 740 0
 444 0006 144A     		ldr	r2, .L25
 445 0008 1368     		ldr	r3, [r2]
 446 000a 8021     		mov	r1, #128
 447 000c 8B43     		bic	r3, r1
ARM GAS  C:\Users\JAVIER~1\AppData\Local\Temp\ccfijmG3.s 			page 22


 448 000e 1360     		str	r3, [r2]
 741:.\Generated_Source\PSoC4/USBFS.c **** 
 742:.\Generated_Source\PSoC4/USBFS.c ****     /* Disable D+ pull-up. */
 743:.\Generated_Source\PSoC4/USBFS.c ****     USBFS_USBIO_CR1_REG &= (uint32) ~ USBFS_USBIO_CR1_USBPUEN;
 449              		.loc 1 743 0
 450 0010 124A     		ldr	r2, .L25+4
 451 0012 1368     		ldr	r3, [r2]
 452 0014 7C39     		sub	r1, r1, #124
 453 0016 8B43     		bic	r3, r1
 454 0018 1360     		str	r3, [r2]
 744:.\Generated_Source\PSoC4/USBFS.c **** 
 745:.\Generated_Source\PSoC4/USBFS.c **** #if (CY_PSOC4)
 746:.\Generated_Source\PSoC4/USBFS.c ****     /* Disable USBFS block. */
 747:.\Generated_Source\PSoC4/USBFS.c ****     USBFS_POWER_CTRL_REG &= (uint32) ~USBFS_POWER_CTRL_ENABLE;
 455              		.loc 1 747 0
 456 001a 114A     		ldr	r2, .L25+8
 457 001c 1368     		ldr	r3, [r2]
 458 001e 5B00     		lsl	r3, r3, #1
 459 0020 5B08     		lsr	r3, r3, #1
 460 0022 1360     		str	r3, [r2]
 748:.\Generated_Source\PSoC4/USBFS.c **** #else
 749:.\Generated_Source\PSoC4/USBFS.c ****     /* Clear power active and standby mode templates. */
 750:.\Generated_Source\PSoC4/USBFS.c ****     USBFS_PM_ACT_CFG_REG  &= (uint8) ~USBFS_PM_ACT_EN_FSUSB;
 751:.\Generated_Source\PSoC4/USBFS.c ****     USBFS_PM_STBY_CFG_REG &= (uint8) ~USBFS_PM_STBY_EN_FSUSB;
 752:.\Generated_Source\PSoC4/USBFS.c **** #endif /* (CY_PSOC4) */
 753:.\Generated_Source\PSoC4/USBFS.c **** 
 754:.\Generated_Source\PSoC4/USBFS.c ****     CyExitCriticalSection(enableInterrupts);
 461              		.loc 1 754 0
 462 0024 FFF7FEFF 		bl	CyExitCriticalSection
 463              	.LVL29:
 755:.\Generated_Source\PSoC4/USBFS.c **** 
 756:.\Generated_Source\PSoC4/USBFS.c ****     /* Disable component interrupts. */
 757:.\Generated_Source\PSoC4/USBFS.c **** #if (CY_PSOC4)
 758:.\Generated_Source\PSoC4/USBFS.c ****     CyIntDisable(USBFS_INTR_HI_VECT_NUM);
 464              		.loc 1 758 0
 465 0028 1E20     		mov	r0, #30
 466 002a FFF7FEFF 		bl	CyIntDisable
 467              	.LVL30:
 759:.\Generated_Source\PSoC4/USBFS.c ****     CyIntDisable(USBFS_INTR_LO_VECT_NUM);
 468              		.loc 1 759 0
 469 002e 1F20     		mov	r0, #31
 470 0030 FFF7FEFF 		bl	CyIntDisable
 471              	.LVL31:
 760:.\Generated_Source\PSoC4/USBFS.c ****     CyIntDisable(USBFS_INTR_MED_VECT_NUM);
 472              		.loc 1 760 0
 473 0034 0020     		mov	r0, #0
 474 0036 FFF7FEFF 		bl	CyIntDisable
 475              	.LVL32:
 761:.\Generated_Source\PSoC4/USBFS.c **** #else
 762:.\Generated_Source\PSoC4/USBFS.c **** 
 763:.\Generated_Source\PSoC4/USBFS.c ****     CyIntDisable(USBFS_BUS_RESET_VECT_NUM);
 764:.\Generated_Source\PSoC4/USBFS.c ****     CyIntDisable(USBFS_EP_0_VECT_NUM);
 765:.\Generated_Source\PSoC4/USBFS.c **** 
 766:.\Generated_Source\PSoC4/USBFS.c ****     #if (USBFS_SOF_ISR_ACTIVE)
 767:.\Generated_Source\PSoC4/USBFS.c ****         CyIntDisable(USBFS_SOF_VECT_NUM);
 768:.\Generated_Source\PSoC4/USBFS.c ****     #endif /* (USBFS_SOF_ISR_ACTIVE) */
 769:.\Generated_Source\PSoC4/USBFS.c **** 
ARM GAS  C:\Users\JAVIER~1\AppData\Local\Temp\ccfijmG3.s 			page 23


 770:.\Generated_Source\PSoC4/USBFS.c ****     #if (USBFS_EP1_ISR_ACTIVE)
 771:.\Generated_Source\PSoC4/USBFS.c ****         CyIntDisable(USBFS_EP_1_VECT_NUM);
 772:.\Generated_Source\PSoC4/USBFS.c ****     #endif /* (USBFS_EP1_ISR_ACTIVE) */
 773:.\Generated_Source\PSoC4/USBFS.c **** 
 774:.\Generated_Source\PSoC4/USBFS.c ****     #if (USBFS_EP2_ISR_ACTIVE)
 775:.\Generated_Source\PSoC4/USBFS.c ****         CyIntDisable(USBFS_EP_2_VECT_NUM);
 776:.\Generated_Source\PSoC4/USBFS.c ****     #endif /* (USBFS_EP2_ISR_ACTIVE) */
 777:.\Generated_Source\PSoC4/USBFS.c **** 
 778:.\Generated_Source\PSoC4/USBFS.c ****     #if (USBFS_EP3_ISR_ACTIVE)
 779:.\Generated_Source\PSoC4/USBFS.c ****         CyIntDisable(USBFS_EP_3_VECT_NUM);
 780:.\Generated_Source\PSoC4/USBFS.c ****     #endif /* (USBFS_EP3_ISR_ACTIVE) */
 781:.\Generated_Source\PSoC4/USBFS.c **** 
 782:.\Generated_Source\PSoC4/USBFS.c ****     #if (USBFS_EP4_ISR_ACTIVE)
 783:.\Generated_Source\PSoC4/USBFS.c ****         CyIntDisable(USBFS_EP_4_VECT_NUM);
 784:.\Generated_Source\PSoC4/USBFS.c ****     #endif /* (USBFS_EP4_ISR_ACTIVE) */
 785:.\Generated_Source\PSoC4/USBFS.c **** 
 786:.\Generated_Source\PSoC4/USBFS.c ****     #if (USBFS_EP5_ISR_ACTIVE)
 787:.\Generated_Source\PSoC4/USBFS.c ****         CyIntDisable(USBFS_EP_5_VECT_NUM);
 788:.\Generated_Source\PSoC4/USBFS.c ****     #endif /* (USBFS_EP5_ISR_ACTIVE) */
 789:.\Generated_Source\PSoC4/USBFS.c **** 
 790:.\Generated_Source\PSoC4/USBFS.c ****     #if (USBFS_EP6_ISR_ACTIVE)
 791:.\Generated_Source\PSoC4/USBFS.c ****         CyIntDisable(USBFS_EP_6_VECT_NUM);
 792:.\Generated_Source\PSoC4/USBFS.c ****     #endif /* USBFS_EP6_ISR_REMOVE */
 793:.\Generated_Source\PSoC4/USBFS.c **** 
 794:.\Generated_Source\PSoC4/USBFS.c ****     #if (USBFS_EP7_ISR_ACTIVE)
 795:.\Generated_Source\PSoC4/USBFS.c ****         CyIntDisable(USBFS_EP_7_VECT_NUM);
 796:.\Generated_Source\PSoC4/USBFS.c ****     #endif /* (USBFS_EP7_ISR_ACTIVE) */
 797:.\Generated_Source\PSoC4/USBFS.c **** 
 798:.\Generated_Source\PSoC4/USBFS.c ****     #if (USBFS_EP8_ISR_ACTIVE)
 799:.\Generated_Source\PSoC4/USBFS.c ****         CyIntDisable(USBFS_EP_8_VECT_NUM);
 800:.\Generated_Source\PSoC4/USBFS.c ****     #endif /* (USBFS_EP8_ISR_ACTIVE) */
 801:.\Generated_Source\PSoC4/USBFS.c **** #endif /* (CY_PSOC4) */
 802:.\Generated_Source\PSoC4/USBFS.c **** 
 803:.\Generated_Source\PSoC4/USBFS.c ****     /* Reset component internal variables. */
 804:.\Generated_Source\PSoC4/USBFS.c ****     USBFS_configurationChanged = 0u;
 476              		.loc 1 804 0
 477 003a 0023     		mov	r3, #0
 478 003c 094A     		ldr	r2, .L25+12
 479 003e 1370     		strb	r3, [r2]
 805:.\Generated_Source\PSoC4/USBFS.c ****     USBFS_configuration   = 0u;
 480              		.loc 1 805 0
 481 0040 094A     		ldr	r2, .L25+16
 482 0042 1370     		strb	r3, [r2]
 806:.\Generated_Source\PSoC4/USBFS.c ****     USBFS_interfaceNumber = 0u;
 483              		.loc 1 806 0
 484 0044 094A     		ldr	r2, .L25+20
 485 0046 1370     		strb	r3, [r2]
 807:.\Generated_Source\PSoC4/USBFS.c ****     USBFS_deviceAddress   = 0u;
 486              		.loc 1 807 0
 487 0048 094A     		ldr	r2, .L25+24
 488 004a 1370     		strb	r3, [r2]
 808:.\Generated_Source\PSoC4/USBFS.c ****     USBFS_deviceStatus    = 0u;
 489              		.loc 1 808 0
 490 004c 094A     		ldr	r2, .L25+28
 491 004e 1370     		strb	r3, [r2]
 809:.\Generated_Source\PSoC4/USBFS.c **** 
 810:.\Generated_Source\PSoC4/USBFS.c ****     /* It is mandatory for correct device startup. */
ARM GAS  C:\Users\JAVIER~1\AppData\Local\Temp\ccfijmG3.s 			page 24


 811:.\Generated_Source\PSoC4/USBFS.c ****     USBFS_initVar = 0u;
 492              		.loc 1 811 0
 493 0050 094A     		ldr	r2, .L25+32
 494 0052 1370     		strb	r3, [r2]
 812:.\Generated_Source\PSoC4/USBFS.c **** }
 495              		.loc 1 812 0
 496              		@ sp needed
 497 0054 08BD     		pop	{r3, pc}
 498              	.L26:
 499 0056 C046     		.align	2
 500              	.L25:
 501 0058 20002C40 		.word	1076625440
 502 005c 48002C40 		.word	1076625480
 503 0060 00202C40 		.word	1076633600
 504 0064 00000000 		.word	USBFS_configurationChanged
 505 0068 00000000 		.word	USBFS_configuration
 506 006c 00000000 		.word	USBFS_interfaceNumber
 507 0070 00000000 		.word	USBFS_deviceAddress
 508 0074 00000000 		.word	USBFS_deviceStatus
 509 0078 00000000 		.word	.LANCHOR0
 510              		.cfi_endproc
 511              	.LFE6:
 512              		.size	USBFS_Stop, .-USBFS_Stop
 513              		.section	.text.USBFS_CheckActivity,"ax",%progbits
 514              		.align	2
 515              		.global	USBFS_CheckActivity
 516              		.code	16
 517              		.thumb_func
 518              		.type	USBFS_CheckActivity, %function
 519              	USBFS_CheckActivity:
 520              	.LFB7:
 813:.\Generated_Source\PSoC4/USBFS.c **** 
 814:.\Generated_Source\PSoC4/USBFS.c **** 
 815:.\Generated_Source\PSoC4/USBFS.c **** /*******************************************************************************
 816:.\Generated_Source\PSoC4/USBFS.c **** * Function Name: USBFS_CheckActivity
 817:.\Generated_Source\PSoC4/USBFS.c **** ****************************************************************************//**
 818:.\Generated_Source\PSoC4/USBFS.c **** *
 819:.\Generated_Source\PSoC4/USBFS.c **** *  This function returns the activity status of the bus. It clears the hardware
 820:.\Generated_Source\PSoC4/USBFS.c **** *  status to provide updated status on the next call of this function. It
 821:.\Generated_Source\PSoC4/USBFS.c **** *  provides a way to determine whether any USB bus activity occurred. The
 822:.\Generated_Source\PSoC4/USBFS.c **** *  application should use this function to determine if the USB suspend
 823:.\Generated_Source\PSoC4/USBFS.c **** *  conditions are met.
 824:.\Generated_Source\PSoC4/USBFS.c **** *
 825:.\Generated_Source\PSoC4/USBFS.c **** *
 826:.\Generated_Source\PSoC4/USBFS.c **** * \return
 827:.\Generated_Source\PSoC4/USBFS.c **** *  cystatus: Status of the bus since the last call of the function.
 828:.\Generated_Source\PSoC4/USBFS.c **** *  Return Value |   Description
 829:.\Generated_Source\PSoC4/USBFS.c **** *  -------------|---------------------------------------------------------------
 830:.\Generated_Source\PSoC4/USBFS.c **** *  1            |Bus activity was detected since the last call to this function
 831:.\Generated_Source\PSoC4/USBFS.c **** *  0            |Bus activity was not detected since the last call to this function
 832:.\Generated_Source\PSoC4/USBFS.c **** *
 833:.\Generated_Source\PSoC4/USBFS.c **** *
 834:.\Generated_Source\PSoC4/USBFS.c **** *******************************************************************************/
 835:.\Generated_Source\PSoC4/USBFS.c **** uint8 USBFS_CheckActivity(void) 
 836:.\Generated_Source\PSoC4/USBFS.c **** {
 521              		.loc 1 836 0
 522              		.cfi_startproc
ARM GAS  C:\Users\JAVIER~1\AppData\Local\Temp\ccfijmG3.s 			page 25


 837:.\Generated_Source\PSoC4/USBFS.c ****     uint32 cr1Reg = USBFS_CR1_REG;
 523              		.loc 1 837 0
 524 0000 0549     		ldr	r1, .L30
 525 0002 0B68     		ldr	r3, [r1]
 526              	.LVL33:
 838:.\Generated_Source\PSoC4/USBFS.c **** 
 839:.\Generated_Source\PSoC4/USBFS.c ****     /* Clear bus activity. */
 840:.\Generated_Source\PSoC4/USBFS.c ****     USBFS_CR1_REG = (cr1Reg & (uint32) ~USBFS_CR1_BUS_ACTIVITY);
 527              		.loc 1 840 0
 528 0004 0422     		mov	r2, #4
 529 0006 181C     		mov	r0, r3
 530 0008 9043     		bic	r0, r2
 531 000a 0860     		str	r0, [r1]
 841:.\Generated_Source\PSoC4/USBFS.c **** 
 842:.\Generated_Source\PSoC4/USBFS.c ****     /* Get bus activity. */
 843:.\Generated_Source\PSoC4/USBFS.c ****     return ((0u != (cr1Reg & USBFS_CR1_BUS_ACTIVITY)) ? (1u) : (0u));
 532              		.loc 1 843 0
 533 000c 1A42     		tst	r2, r3
 534 000e 01D0     		beq	.L29
 535 0010 0120     		mov	r0, #1
 536 0012 00E0     		b	.L28
 537              	.L29:
 538 0014 0020     		mov	r0, #0
 539              	.L28:
 844:.\Generated_Source\PSoC4/USBFS.c **** }
 540              		.loc 1 844 0 discriminator 4
 541              		@ sp needed
 542 0016 7047     		bx	lr
 543              	.L31:
 544              		.align	2
 545              	.L30:
 546 0018 24002C40 		.word	1076625444
 547              		.cfi_endproc
 548              	.LFE7:
 549              		.size	USBFS_CheckActivity, .-USBFS_CheckActivity
 550              		.section	.text.USBFS_GetConfiguration,"ax",%progbits
 551              		.align	2
 552              		.global	USBFS_GetConfiguration
 553              		.code	16
 554              		.thumb_func
 555              		.type	USBFS_GetConfiguration, %function
 556              	USBFS_GetConfiguration:
 557              	.LFB8:
 845:.\Generated_Source\PSoC4/USBFS.c **** 
 846:.\Generated_Source\PSoC4/USBFS.c **** 
 847:.\Generated_Source\PSoC4/USBFS.c **** /*******************************************************************************
 848:.\Generated_Source\PSoC4/USBFS.c **** * Function Name: USBFS_GetConfiguration
 849:.\Generated_Source\PSoC4/USBFS.c **** ****************************************************************************//**
 850:.\Generated_Source\PSoC4/USBFS.c **** *
 851:.\Generated_Source\PSoC4/USBFS.c **** *  This function gets the current configuration of the USB device.
 852:.\Generated_Source\PSoC4/USBFS.c **** *
 853:.\Generated_Source\PSoC4/USBFS.c **** * \return
 854:.\Generated_Source\PSoC4/USBFS.c **** *  Returns the currently assigned configuration. Returns 0 if the device
 855:.\Generated_Source\PSoC4/USBFS.c **** *  is not configured
 856:.\Generated_Source\PSoC4/USBFS.c **** *
 857:.\Generated_Source\PSoC4/USBFS.c **** *******************************************************************************/
 858:.\Generated_Source\PSoC4/USBFS.c **** uint8 USBFS_GetConfiguration(void) 
ARM GAS  C:\Users\JAVIER~1\AppData\Local\Temp\ccfijmG3.s 			page 26


 859:.\Generated_Source\PSoC4/USBFS.c **** {
 558              		.loc 1 859 0
 559              		.cfi_startproc
 860:.\Generated_Source\PSoC4/USBFS.c ****     return (USBFS_configuration);
 560              		.loc 1 860 0
 561 0000 014B     		ldr	r3, .L33
 562 0002 1878     		ldrb	r0, [r3]
 563 0004 C0B2     		uxtb	r0, r0
 861:.\Generated_Source\PSoC4/USBFS.c **** }
 564              		.loc 1 861 0
 565              		@ sp needed
 566 0006 7047     		bx	lr
 567              	.L34:
 568              		.align	2
 569              	.L33:
 570 0008 00000000 		.word	USBFS_configuration
 571              		.cfi_endproc
 572              	.LFE8:
 573              		.size	USBFS_GetConfiguration, .-USBFS_GetConfiguration
 574              		.section	.text.USBFS_IsConfigurationChanged,"ax",%progbits
 575              		.align	2
 576              		.global	USBFS_IsConfigurationChanged
 577              		.code	16
 578              		.thumb_func
 579              		.type	USBFS_IsConfigurationChanged, %function
 580              	USBFS_IsConfigurationChanged:
 581              	.LFB9:
 862:.\Generated_Source\PSoC4/USBFS.c **** 
 863:.\Generated_Source\PSoC4/USBFS.c **** 
 864:.\Generated_Source\PSoC4/USBFS.c **** /*******************************************************************************
 865:.\Generated_Source\PSoC4/USBFS.c **** * Function Name: USBFS_IsConfigurationChanged
 866:.\Generated_Source\PSoC4/USBFS.c **** ****************************************************************************//**
 867:.\Generated_Source\PSoC4/USBFS.c **** *
 868:.\Generated_Source\PSoC4/USBFS.c **** *  This function returns the clear-on-read configuration state.  It is useful
 869:.\Generated_Source\PSoC4/USBFS.c **** *  when the host sends double SET_CONFIGURATION request with the same 
 870:.\Generated_Source\PSoC4/USBFS.c **** *  configuration number or changes alternate settings of the interface. 
 871:.\Generated_Source\PSoC4/USBFS.c **** *  After configuration has been changed the OUT endpoints must be enabled and IN 
 872:.\Generated_Source\PSoC4/USBFS.c **** *  endpoint must be loaded with data to start communication with the host.
 873:.\Generated_Source\PSoC4/USBFS.c **** *
 874:.\Generated_Source\PSoC4/USBFS.c **** * \return
 875:.\Generated_Source\PSoC4/USBFS.c **** *  None-zero value when new configuration has been changed, otherwise zero is
 876:.\Generated_Source\PSoC4/USBFS.c **** *  returned.
 877:.\Generated_Source\PSoC4/USBFS.c **** *
 878:.\Generated_Source\PSoC4/USBFS.c **** * \globalvars
 879:.\Generated_Source\PSoC4/USBFS.c **** *
 880:.\Generated_Source\PSoC4/USBFS.c **** *  \ref USBFS_configurationChanged - This variable is set to 1 after
 881:.\Generated_Source\PSoC4/USBFS.c **** *   a SET_CONFIGURATION request and cleared in this function.
 882:.\Generated_Source\PSoC4/USBFS.c **** *
 883:.\Generated_Source\PSoC4/USBFS.c **** *******************************************************************************/
 884:.\Generated_Source\PSoC4/USBFS.c **** uint8 USBFS_IsConfigurationChanged(void) 
 885:.\Generated_Source\PSoC4/USBFS.c **** {
 582              		.loc 1 885 0
 583              		.cfi_startproc
 584              	.LVL34:
 886:.\Generated_Source\PSoC4/USBFS.c ****     uint8 res = 0u;
 887:.\Generated_Source\PSoC4/USBFS.c **** 
 888:.\Generated_Source\PSoC4/USBFS.c ****     if (USBFS_configurationChanged != 0u)
ARM GAS  C:\Users\JAVIER~1\AppData\Local\Temp\ccfijmG3.s 			page 27


 585              		.loc 1 888 0
 586 0000 054B     		ldr	r3, .L38
 587 0002 1B78     		ldrb	r3, [r3]
 588 0004 002B     		cmp	r3, #0
 589 0006 05D0     		beq	.L37
 889:.\Generated_Source\PSoC4/USBFS.c ****     {
 890:.\Generated_Source\PSoC4/USBFS.c ****         res = USBFS_configurationChanged;
 590              		.loc 1 890 0
 591 0008 034B     		ldr	r3, .L38
 592 000a 1878     		ldrb	r0, [r3]
 593 000c C0B2     		uxtb	r0, r0
 594              	.LVL35:
 891:.\Generated_Source\PSoC4/USBFS.c ****         USBFS_configurationChanged = 0u;
 595              		.loc 1 891 0
 596 000e 0022     		mov	r2, #0
 597 0010 1A70     		strb	r2, [r3]
 598 0012 00E0     		b	.L36
 599              	.LVL36:
 600              	.L37:
 886:.\Generated_Source\PSoC4/USBFS.c ****     uint8 res = 0u;
 601              		.loc 1 886 0
 602 0014 0020     		mov	r0, #0
 603              	.LVL37:
 604              	.L36:
 892:.\Generated_Source\PSoC4/USBFS.c ****     }
 893:.\Generated_Source\PSoC4/USBFS.c **** 
 894:.\Generated_Source\PSoC4/USBFS.c ****     return (res);
 895:.\Generated_Source\PSoC4/USBFS.c **** }
 605              		.loc 1 895 0
 606              		@ sp needed
 607 0016 7047     		bx	lr
 608              	.L39:
 609              		.align	2
 610              	.L38:
 611 0018 00000000 		.word	USBFS_configurationChanged
 612              		.cfi_endproc
 613              	.LFE9:
 614              		.size	USBFS_IsConfigurationChanged, .-USBFS_IsConfigurationChanged
 615              		.section	.text.USBFS_GetInterfaceSetting,"ax",%progbits
 616              		.align	2
 617              		.global	USBFS_GetInterfaceSetting
 618              		.code	16
 619              		.thumb_func
 620              		.type	USBFS_GetInterfaceSetting, %function
 621              	USBFS_GetInterfaceSetting:
 622              	.LFB10:
 896:.\Generated_Source\PSoC4/USBFS.c **** 
 897:.\Generated_Source\PSoC4/USBFS.c **** 
 898:.\Generated_Source\PSoC4/USBFS.c **** /*******************************************************************************
 899:.\Generated_Source\PSoC4/USBFS.c **** * Function Name: USBFS_GetInterfaceSetting
 900:.\Generated_Source\PSoC4/USBFS.c **** ****************************************************************************//**
 901:.\Generated_Source\PSoC4/USBFS.c **** *
 902:.\Generated_Source\PSoC4/USBFS.c **** *  This function gets the current alternate setting for the specified interface.
 903:.\Generated_Source\PSoC4/USBFS.c **** *  It is useful to identify which alternate settings are active in the specified 
 904:.\Generated_Source\PSoC4/USBFS.c **** *  interface.
 905:.\Generated_Source\PSoC4/USBFS.c **** *
 906:.\Generated_Source\PSoC4/USBFS.c **** *  \param
ARM GAS  C:\Users\JAVIER~1\AppData\Local\Temp\ccfijmG3.s 			page 28


 907:.\Generated_Source\PSoC4/USBFS.c **** *  interfaceNumber interface number
 908:.\Generated_Source\PSoC4/USBFS.c **** *
 909:.\Generated_Source\PSoC4/USBFS.c **** * \return
 910:.\Generated_Source\PSoC4/USBFS.c **** *  Returns the current alternate setting for the specified interface.
 911:.\Generated_Source\PSoC4/USBFS.c **** *
 912:.\Generated_Source\PSoC4/USBFS.c **** *******************************************************************************/
 913:.\Generated_Source\PSoC4/USBFS.c **** uint8  USBFS_GetInterfaceSetting(uint8 interfaceNumber)
 914:.\Generated_Source\PSoC4/USBFS.c ****                                                     
 915:.\Generated_Source\PSoC4/USBFS.c **** {
 623              		.loc 1 915 0
 624              		.cfi_startproc
 625              	.LVL38:
 916:.\Generated_Source\PSoC4/USBFS.c ****     return (USBFS_interfaceSetting[interfaceNumber]);
 626              		.loc 1 916 0
 627 0000 014B     		ldr	r3, .L41
 628 0002 185C     		ldrb	r0, [r3, r0]
 629              	.LVL39:
 630 0004 C0B2     		uxtb	r0, r0
 917:.\Generated_Source\PSoC4/USBFS.c **** }
 631              		.loc 1 917 0
 632              		@ sp needed
 633 0006 7047     		bx	lr
 634              	.L42:
 635              		.align	2
 636              	.L41:
 637 0008 00000000 		.word	USBFS_interfaceSetting
 638              		.cfi_endproc
 639              	.LFE10:
 640              		.size	USBFS_GetInterfaceSetting, .-USBFS_GetInterfaceSetting
 641              		.section	.text.USBFS_GetEPState,"ax",%progbits
 642              		.align	2
 643              		.global	USBFS_GetEPState
 644              		.code	16
 645              		.thumb_func
 646              		.type	USBFS_GetEPState, %function
 647              	USBFS_GetEPState:
 648              	.LFB11:
 918:.\Generated_Source\PSoC4/USBFS.c **** 
 919:.\Generated_Source\PSoC4/USBFS.c **** 
 920:.\Generated_Source\PSoC4/USBFS.c **** /*******************************************************************************
 921:.\Generated_Source\PSoC4/USBFS.c **** * Function Name: USBFS_GetEPState
 922:.\Generated_Source\PSoC4/USBFS.c **** ****************************************************************************//**
 923:.\Generated_Source\PSoC4/USBFS.c **** *
 924:.\Generated_Source\PSoC4/USBFS.c **** *  This function returns the state of the requested endpoint.
 925:.\Generated_Source\PSoC4/USBFS.c **** *
 926:.\Generated_Source\PSoC4/USBFS.c **** * \param epNumber Data endpoint number
 927:.\Generated_Source\PSoC4/USBFS.c **** *
 928:.\Generated_Source\PSoC4/USBFS.c **** * \return
 929:.\Generated_Source\PSoC4/USBFS.c **** *  Returns the current state of the specified USBFS endpoint. Symbolic names and
 930:.\Generated_Source\PSoC4/USBFS.c **** *  their associated values are given in the following table. Use these constants
 931:.\Generated_Source\PSoC4/USBFS.c **** *  whenever you write code to change the state of the endpoints, such as ISR
 932:.\Generated_Source\PSoC4/USBFS.c **** *  code, to handle data sent or received.
 933:.\Generated_Source\PSoC4/USBFS.c **** *
 934:.\Generated_Source\PSoC4/USBFS.c **** *  Return Value           | Description
 935:.\Generated_Source\PSoC4/USBFS.c **** *  -----------------------|-----------------------------------------------------
 936:.\Generated_Source\PSoC4/USBFS.c **** *  USBFS_NO_EVENT_PENDING |The endpoint is awaiting SIE action
 937:.\Generated_Source\PSoC4/USBFS.c **** *  USBFS_EVENT_PENDING    |The endpoint is awaiting CPU action
ARM GAS  C:\Users\JAVIER~1\AppData\Local\Temp\ccfijmG3.s 			page 29


 938:.\Generated_Source\PSoC4/USBFS.c **** *  USBFS_NO_EVENT_ALLOWED |The endpoint is locked from access
 939:.\Generated_Source\PSoC4/USBFS.c **** *  USBFS_IN_BUFFER_FULL   |The IN endpoint is loaded and the mode is set to ACK IN
 940:.\Generated_Source\PSoC4/USBFS.c **** *  USBFS_IN_BUFFER_EMPTY  |An IN transaction occurred and more data can be loaded
 941:.\Generated_Source\PSoC4/USBFS.c **** *  USBFS_OUT_BUFFER_EMPTY |The OUT endpoint is set to ACK OUT and is waiting for data
 942:.\Generated_Source\PSoC4/USBFS.c **** *  USBFS_OUT_BUFFER_FULL  |An OUT transaction has occurred and data can be read
 943:.\Generated_Source\PSoC4/USBFS.c **** *
 944:.\Generated_Source\PSoC4/USBFS.c **** *******************************************************************************/
 945:.\Generated_Source\PSoC4/USBFS.c **** uint8 USBFS_GetEPState(uint8 epNumber) 
 946:.\Generated_Source\PSoC4/USBFS.c **** {
 649              		.loc 1 946 0
 650              		.cfi_startproc
 651              	.LVL40:
 947:.\Generated_Source\PSoC4/USBFS.c ****     return (USBFS_EP[epNumber].apiEpState);
 652              		.loc 1 947 0
 653 0000 4300     		lsl	r3, r0, #1
 654 0002 1818     		add	r0, r3, r0
 655              	.LVL41:
 656 0004 8000     		lsl	r0, r0, #2
 657 0006 024B     		ldr	r3, .L44
 658 0008 1818     		add	r0, r3, r0
 659 000a 4078     		ldrb	r0, [r0, #1]
 660 000c C0B2     		uxtb	r0, r0
 948:.\Generated_Source\PSoC4/USBFS.c **** }
 661              		.loc 1 948 0
 662              		@ sp needed
 663 000e 7047     		bx	lr
 664              	.L45:
 665              		.align	2
 666              	.L44:
 667 0010 00000000 		.word	USBFS_EP
 668              		.cfi_endproc
 669              	.LFE11:
 670              		.size	USBFS_GetEPState, .-USBFS_GetEPState
 671              		.section	.text.USBFS_GetEPCount,"ax",%progbits
 672              		.align	2
 673              		.global	USBFS_GetEPCount
 674              		.code	16
 675              		.thumb_func
 676              		.type	USBFS_GetEPCount, %function
 677              	USBFS_GetEPCount:
 678              	.LFB12:
 949:.\Generated_Source\PSoC4/USBFS.c **** 
 950:.\Generated_Source\PSoC4/USBFS.c **** 
 951:.\Generated_Source\PSoC4/USBFS.c **** /*******************************************************************************
 952:.\Generated_Source\PSoC4/USBFS.c **** * Function Name: USBFS_GetEPCount
 953:.\Generated_Source\PSoC4/USBFS.c **** ****************************************************************************//**
 954:.\Generated_Source\PSoC4/USBFS.c **** *
 955:.\Generated_Source\PSoC4/USBFS.c **** *  This function supports Data Endpoints only(EP1-EP8).
 956:.\Generated_Source\PSoC4/USBFS.c **** *  Returns the transfer count for the requested endpoint.  The value from
 957:.\Generated_Source\PSoC4/USBFS.c **** *  the count registers includes 2 counts for the two byte checksum of the
 958:.\Generated_Source\PSoC4/USBFS.c **** *  packet.  This function subtracts the two counts.
 959:.\Generated_Source\PSoC4/USBFS.c **** *
 960:.\Generated_Source\PSoC4/USBFS.c **** *  \param epNumber Data Endpoint Number.
 961:.\Generated_Source\PSoC4/USBFS.c **** *                   Valid values are between 1 and 8.
 962:.\Generated_Source\PSoC4/USBFS.c **** *
 963:.\Generated_Source\PSoC4/USBFS.c **** * \return
 964:.\Generated_Source\PSoC4/USBFS.c **** *  Returns the current byte count from the specified endpoint or 0 for an
ARM GAS  C:\Users\JAVIER~1\AppData\Local\Temp\ccfijmG3.s 			page 30


 965:.\Generated_Source\PSoC4/USBFS.c **** *  invalid endpoint.
 966:.\Generated_Source\PSoC4/USBFS.c **** *
 967:.\Generated_Source\PSoC4/USBFS.c **** *******************************************************************************/
 968:.\Generated_Source\PSoC4/USBFS.c **** uint16 USBFS_GetEPCount(uint8 epNumber) 
 969:.\Generated_Source\PSoC4/USBFS.c **** {
 679              		.loc 1 969 0
 680              		.cfi_startproc
 681              	.LVL42:
 970:.\Generated_Source\PSoC4/USBFS.c ****     uint16 cntr = 0u;
 971:.\Generated_Source\PSoC4/USBFS.c **** 
 972:.\Generated_Source\PSoC4/USBFS.c ****     if ((epNumber > USBFS_EP0) && (epNumber < USBFS_MAX_EP))
 682              		.loc 1 972 0
 683 0000 431E     		sub	r3, r0, #1
 684 0002 072B     		cmp	r3, #7
 685 0004 0ED8     		bhi	.L48
 973:.\Generated_Source\PSoC4/USBFS.c ****     {
 974:.\Generated_Source\PSoC4/USBFS.c ****         /* Get 11-bits EP counter where epCnt0 - 3 bits MSB and epCnt1 - 8 bits LSB. */
 975:.\Generated_Source\PSoC4/USBFS.c ****         cntr  = ((uint16) USBFS_SIE_EP_BASE.sieEp[epNumber].epCnt0) & USBFS_EPX_CNT0_MASK;
 686              		.loc 1 975 0
 687 0006 8301     		lsl	r3, r0, #6
 688 0008 074A     		ldr	r2, .L49
 689 000a 9858     		ldr	r0, [r3, r2]
 690              	.LVL43:
 691 000c 0F22     		mov	r2, #15
 692 000e 1040     		and	r0, r2
 693              	.LVL44:
 976:.\Generated_Source\PSoC4/USBFS.c ****         cntr  = ((uint16) (cntr << 8u)) | ((uint16) USBFS_SIE_EP_BASE.sieEp[epNumber].epCnt1);
 694              		.loc 1 976 0
 695 0010 0002     		lsl	r0, r0, #8
 696              	.LVL45:
 697 0012 054A     		ldr	r2, .L49
 698 0014 9446     		mov	ip, r2
 699 0016 6344     		add	r3, r3, ip
 700 0018 5B68     		ldr	r3, [r3, #4]
 701 001a 9BB2     		uxth	r3, r3
 702 001c 1843     		orr	r0, r3
 703              	.LVL46:
 977:.\Generated_Source\PSoC4/USBFS.c ****         cntr -= USBFS_EPX_CNTX_CRC_COUNT;
 704              		.loc 1 977 0
 705 001e 0238     		sub	r0, r0, #2
 706              	.LVL47:
 707 0020 80B2     		uxth	r0, r0
 708              	.LVL48:
 709 0022 00E0     		b	.L47
 710              	.LVL49:
 711              	.L48:
 970:.\Generated_Source\PSoC4/USBFS.c **** 
 712              		.loc 1 970 0
 713 0024 0020     		mov	r0, #0
 714              	.LVL50:
 715              	.L47:
 978:.\Generated_Source\PSoC4/USBFS.c ****     }
 979:.\Generated_Source\PSoC4/USBFS.c **** 
 980:.\Generated_Source\PSoC4/USBFS.c ****     return (cntr);
 981:.\Generated_Source\PSoC4/USBFS.c **** }
 716              		.loc 1 981 0
 717              		@ sp needed
ARM GAS  C:\Users\JAVIER~1\AppData\Local\Temp\ccfijmG3.s 			page 31


 718 0026 7047     		bx	lr
 719              	.L50:
 720              		.align	2
 721              	.L49:
 722 0028 F0FF2B40 		.word	1076625392
 723              		.cfi_endproc
 724              	.LFE12:
 725              		.size	USBFS_GetEPCount, .-USBFS_GetEPCount
 726              		.section	.text.USBFS_LoadInEP,"ax",%progbits
 727              		.align	2
 728              		.global	USBFS_LoadInEP
 729              		.code	16
 730              		.thumb_func
 731              		.type	USBFS_LoadInEP, %function
 732              	USBFS_LoadInEP:
 733              	.LFB13:
 982:.\Generated_Source\PSoC4/USBFS.c **** 
 983:.\Generated_Source\PSoC4/USBFS.c **** 
 984:.\Generated_Source\PSoC4/USBFS.c **** #if (USBFS_EP_MANAGEMENT_DMA)
 985:.\Generated_Source\PSoC4/USBFS.c **** #if (CY_PSOC4)
 986:.\Generated_Source\PSoC4/USBFS.c ****     /*******************************************************************************
 987:.\Generated_Source\PSoC4/USBFS.c ****     * Function Name: USBFS_InitEpDma
 988:.\Generated_Source\PSoC4/USBFS.c ****     ****************************************************************************//**
 989:.\Generated_Source\PSoC4/USBFS.c ****     *
 990:.\Generated_Source\PSoC4/USBFS.c ****     *  This function configures priority for all DMA channels utilized by the
 991:.\Generated_Source\PSoC4/USBFS.c ****     *  component. Also sets callbacks for DMA auto mode.
 992:.\Generated_Source\PSoC4/USBFS.c ****     *
 993:.\Generated_Source\PSoC4/USBFS.c ****     *******************************************************************************/
 994:.\Generated_Source\PSoC4/USBFS.c ****     static void USBFS_InitEpDma(void)
 995:.\Generated_Source\PSoC4/USBFS.c ****     {
 996:.\Generated_Source\PSoC4/USBFS.c ****     #if (USBFS_DMA1_ACTIVE)
 997:.\Generated_Source\PSoC4/USBFS.c ****         CYDMA_CH_CTL_BASE.ctl[USBFS_ep1_dma_CHANNEL] = USBFS_ep1_dma_CHANNEL_CFG;
 998:.\Generated_Source\PSoC4/USBFS.c ****     #endif /* (USBFS_DMA1_ACTIVE) */
 999:.\Generated_Source\PSoC4/USBFS.c **** 
1000:.\Generated_Source\PSoC4/USBFS.c ****     #if (USBFS_DMA2_ACTIVE)
1001:.\Generated_Source\PSoC4/USBFS.c ****         CYDMA_CH_CTL_BASE.ctl[USBFS_ep2_dma_CHANNEL] = USBFS_ep2_dma_CHANNEL_CFG;
1002:.\Generated_Source\PSoC4/USBFS.c ****     #endif /* (USBFS_DMA2_ACTIVE) */
1003:.\Generated_Source\PSoC4/USBFS.c **** 
1004:.\Generated_Source\PSoC4/USBFS.c ****     #if (USBFS_DMA3_ACTIVE)
1005:.\Generated_Source\PSoC4/USBFS.c ****         CYDMA_CH_CTL_BASE.ctl[USBFS_ep3_dma_CHANNEL] = USBFS_ep3_dma_CHANNEL_CFG;
1006:.\Generated_Source\PSoC4/USBFS.c ****     #endif /* (USBFS_DMA3_ACTIVE) */
1007:.\Generated_Source\PSoC4/USBFS.c **** 
1008:.\Generated_Source\PSoC4/USBFS.c ****     #if (USBFS_DMA4_ACTIVE)
1009:.\Generated_Source\PSoC4/USBFS.c ****         CYDMA_CH_CTL_BASE.ctl[USBFS_ep4_dma_CHANNEL] = USBFS_ep4_dma_CHANNEL_CFG;
1010:.\Generated_Source\PSoC4/USBFS.c ****     #endif /* (USBFS_DMA4_ACTIVE) */
1011:.\Generated_Source\PSoC4/USBFS.c **** 
1012:.\Generated_Source\PSoC4/USBFS.c ****     #if (USBFS_DMA5_ACTIVE)
1013:.\Generated_Source\PSoC4/USBFS.c ****         CYDMA_CH_CTL_BASE.ctl[USBFS_ep5_dma_CHANNEL] = USBFS_ep5_dma_CHANNEL_CFG;
1014:.\Generated_Source\PSoC4/USBFS.c ****     #endif /* (USBFS_DMA5_ACTIVE) */
1015:.\Generated_Source\PSoC4/USBFS.c **** 
1016:.\Generated_Source\PSoC4/USBFS.c ****     #if (USBFS_DMA6_ACTIVE)
1017:.\Generated_Source\PSoC4/USBFS.c ****         CYDMA_CH_CTL_BASE.ctl[USBFS_ep6_dma_CHANNEL] = USBFS_ep6_dma_CHANNEL_CFG;
1018:.\Generated_Source\PSoC4/USBFS.c ****     #endif /* (USBFS_DMA6_ACTIVE) */
1019:.\Generated_Source\PSoC4/USBFS.c **** 
1020:.\Generated_Source\PSoC4/USBFS.c ****     #if (USBFS_DMA7_ACTIVE)
1021:.\Generated_Source\PSoC4/USBFS.c ****         CYDMA_CH_CTL_BASE.ctl[USBFS_ep7_dma_CHANNEL] = USBFS_ep7_dma_CHANNEL_CFG;
1022:.\Generated_Source\PSoC4/USBFS.c ****     #endif /* (USBFS_DMA7_ACTIVE) */
ARM GAS  C:\Users\JAVIER~1\AppData\Local\Temp\ccfijmG3.s 			page 32


1023:.\Generated_Source\PSoC4/USBFS.c **** 
1024:.\Generated_Source\PSoC4/USBFS.c ****     #if (USBFS_DMA8_ACTIVE)
1025:.\Generated_Source\PSoC4/USBFS.c ****         CYDMA_CH_CTL_BASE.ctl[USBFS_ep8_dma_CHANNEL] = USBFS_ep8_dma_CHANNEL_CFG;
1026:.\Generated_Source\PSoC4/USBFS.c ****     #endif /* (USBFS_DMA8_ACTIVE) */
1027:.\Generated_Source\PSoC4/USBFS.c **** 
1028:.\Generated_Source\PSoC4/USBFS.c ****     #if (USBFS_EP_MANAGEMENT_DMA_AUTO)
1029:.\Generated_Source\PSoC4/USBFS.c ****         /* Initialize DMA channel callbacks. */
1030:.\Generated_Source\PSoC4/USBFS.c ****         #if (USBFS_DMA1_ACTIVE)
1031:.\Generated_Source\PSoC4/USBFS.c ****             (void) USBFS_ep1_dma_SetInterruptCallback(&USBFS_EP1_DMA_DONE_ISR);
1032:.\Generated_Source\PSoC4/USBFS.c ****         #endif /* (USBFS_DMA1_ACTIVE) */
1033:.\Generated_Source\PSoC4/USBFS.c **** 
1034:.\Generated_Source\PSoC4/USBFS.c ****         #if (USBFS_DMA2_ACTIVE)
1035:.\Generated_Source\PSoC4/USBFS.c ****             (void) USBFS_ep2_dma_SetInterruptCallback(&USBFS_EP2_DMA_DONE_ISR);
1036:.\Generated_Source\PSoC4/USBFS.c ****         #endif /* (USBFS_DMA2_ACTIVE) */
1037:.\Generated_Source\PSoC4/USBFS.c **** 
1038:.\Generated_Source\PSoC4/USBFS.c ****         #if (USBFS_DMA3_ACTIVE)
1039:.\Generated_Source\PSoC4/USBFS.c ****             (void) USBFS_ep3_dma_SetInterruptCallback(&USBFS_EP3_DMA_DONE_ISR);
1040:.\Generated_Source\PSoC4/USBFS.c ****         #endif /* (USBFS_DMA3_ACTIVE) */
1041:.\Generated_Source\PSoC4/USBFS.c **** 
1042:.\Generated_Source\PSoC4/USBFS.c ****         #if (USBFS_DMA4_ACTIVE)
1043:.\Generated_Source\PSoC4/USBFS.c ****             (void) USBFS_ep4_dma_SetInterruptCallback(&USBFS_EP4_DMA_DONE_ISR);
1044:.\Generated_Source\PSoC4/USBFS.c ****         #endif /* (USBFS_DMA4_ACTIVE) */
1045:.\Generated_Source\PSoC4/USBFS.c **** 
1046:.\Generated_Source\PSoC4/USBFS.c ****         #if (USBFS_DMA5_ACTIVE)
1047:.\Generated_Source\PSoC4/USBFS.c ****             (void) USBFS_ep5_dma_SetInterruptCallback(&USBFS_EP5_DMA_DONE_ISR);
1048:.\Generated_Source\PSoC4/USBFS.c ****         #endif /* (USBFS_DMA5_ACTIVE) */
1049:.\Generated_Source\PSoC4/USBFS.c **** 
1050:.\Generated_Source\PSoC4/USBFS.c ****         #if (USBFS_DMA6_ACTIVE)
1051:.\Generated_Source\PSoC4/USBFS.c ****             (void) USBFS_ep6_dma_SetInterruptCallback(&USBFS_EP6_DMA_DONE_ISR);
1052:.\Generated_Source\PSoC4/USBFS.c ****         #endif /* (USBFS_DMA6_ACTIVE) */
1053:.\Generated_Source\PSoC4/USBFS.c **** 
1054:.\Generated_Source\PSoC4/USBFS.c ****         #if (USBFS_DMA7_ACTIVE)
1055:.\Generated_Source\PSoC4/USBFS.c ****             (void) USBFS_ep7_dma_SetInterruptCallback(&USBFS_EP7_DMA_DONE_ISR);
1056:.\Generated_Source\PSoC4/USBFS.c ****         #endif /* (USBFS_DMA7_ACTIVE) */
1057:.\Generated_Source\PSoC4/USBFS.c **** 
1058:.\Generated_Source\PSoC4/USBFS.c ****         #if (USBFS_DMA8_ACTIVE)
1059:.\Generated_Source\PSoC4/USBFS.c ****             (void) USBFS_ep8_dma_SetInterruptCallback(&USBFS_EP8_DMA_DONE_ISR);
1060:.\Generated_Source\PSoC4/USBFS.c ****         #endif /* (USBFS_DMA8_ACTIVE) */
1061:.\Generated_Source\PSoC4/USBFS.c ****     #endif /* (USBFS_EP_MANAGEMENT_DMA_AUTO) */
1062:.\Generated_Source\PSoC4/USBFS.c ****     }
1063:.\Generated_Source\PSoC4/USBFS.c **** #else
1064:.\Generated_Source\PSoC4/USBFS.c **** 
1065:.\Generated_Source\PSoC4/USBFS.c **** 
1066:.\Generated_Source\PSoC4/USBFS.c ****     /***************************************************************************
1067:.\Generated_Source\PSoC4/USBFS.c ****     * Function Name: USBFS_InitEP_DMA
1068:.\Generated_Source\PSoC4/USBFS.c ****     ************************************************************************//**
1069:.\Generated_Source\PSoC4/USBFS.c ****     *
1070:.\Generated_Source\PSoC4/USBFS.c ****     *  This function allocates and initializes a DMA channel to be used by the
1071:.\Generated_Source\PSoC4/USBFS.c ****     *  USBFS_LoadInEP() or USBFS_ReadOutEP() APIs for data
1072:.\Generated_Source\PSoC4/USBFS.c ****     *  transfer. It is available when the Endpoint Memory Management parameter
1073:.\Generated_Source\PSoC4/USBFS.c ****     *  is set to DMA.
1074:.\Generated_Source\PSoC4/USBFS.c ****     *
1075:.\Generated_Source\PSoC4/USBFS.c ****     *  This function is automatically called from the USBFS_LoadInEP() and USBFS_ReadOutEP() APIs.
1076:.\Generated_Source\PSoC4/USBFS.c ****     *
1077:.\Generated_Source\PSoC4/USBFS.c ****     *  \param epNumber Contains the data endpoint number.
1078:.\Generated_Source\PSoC4/USBFS.c ****     *            Valid values are between 1 and 8.
1079:.\Generated_Source\PSoC4/USBFS.c ****     *  \param *pData Pointer to a data array that is related to the EP transfers.
ARM GAS  C:\Users\JAVIER~1\AppData\Local\Temp\ccfijmG3.s 			page 33


1080:.\Generated_Source\PSoC4/USBFS.c ****     *
1081:.\Generated_Source\PSoC4/USBFS.c ****     * \reentrant No.
1082:.\Generated_Source\PSoC4/USBFS.c ****     *
1083:.\Generated_Source\PSoC4/USBFS.c ****     ***************************************************************************/
1084:.\Generated_Source\PSoC4/USBFS.c ****     void USBFS_InitEP_DMA(uint8 epNumber, const uint8 *pData)
1085:.\Generated_Source\PSoC4/USBFS.c ****                                                                     
1086:.\Generated_Source\PSoC4/USBFS.c ****     {
1087:.\Generated_Source\PSoC4/USBFS.c ****         uint16 src;
1088:.\Generated_Source\PSoC4/USBFS.c ****         uint16 dst;
1089:.\Generated_Source\PSoC4/USBFS.c **** 
1090:.\Generated_Source\PSoC4/USBFS.c ****     #if (CY_PSOC3)
1091:.\Generated_Source\PSoC4/USBFS.c ****         src = HI16(CYDEV_SRAM_BASE);
1092:.\Generated_Source\PSoC4/USBFS.c ****         dst = HI16(CYDEV_PERIPH_BASE);
1093:.\Generated_Source\PSoC4/USBFS.c ****         pData = pData;
1094:.\Generated_Source\PSoC4/USBFS.c ****     #else
1095:.\Generated_Source\PSoC4/USBFS.c ****         if ((USBFS_EP[epNumber].addr & USBFS_DIR_IN) != 0u)
1096:.\Generated_Source\PSoC4/USBFS.c ****         {
1097:.\Generated_Source\PSoC4/USBFS.c ****             /* IN endpoint: source is memory buffer. */
1098:.\Generated_Source\PSoC4/USBFS.c ****             src = HI16(pData);
1099:.\Generated_Source\PSoC4/USBFS.c ****             dst = HI16(CYDEV_PERIPH_BASE);
1100:.\Generated_Source\PSoC4/USBFS.c ****         }
1101:.\Generated_Source\PSoC4/USBFS.c ****         else
1102:.\Generated_Source\PSoC4/USBFS.c ****         {
1103:.\Generated_Source\PSoC4/USBFS.c ****             /* OUT endpoint: source is USB IP memory buffer. */
1104:.\Generated_Source\PSoC4/USBFS.c ****             src = HI16(CYDEV_PERIPH_BASE);
1105:.\Generated_Source\PSoC4/USBFS.c ****             dst = HI16(pData);
1106:.\Generated_Source\PSoC4/USBFS.c ****         }
1107:.\Generated_Source\PSoC4/USBFS.c ****     #endif  /* (CY_PSOC3) */
1108:.\Generated_Source\PSoC4/USBFS.c **** 
1109:.\Generated_Source\PSoC4/USBFS.c ****         switch(epNumber)
1110:.\Generated_Source\PSoC4/USBFS.c ****         {
1111:.\Generated_Source\PSoC4/USBFS.c ****     #if (USBFS_DMA1_ACTIVE)
1112:.\Generated_Source\PSoC4/USBFS.c ****         case USBFS_EP1:
1113:.\Generated_Source\PSoC4/USBFS.c ****             USBFS_DmaChan[epNumber] = USBFS_ep1_DmaInitialize(USBFS_DMA_BYTES_PER_BURST,
1114:.\Generated_Source\PSoC4/USBFS.c ****                                                                                     USBFS_DMA_REQUE
1115:.\Generated_Source\PSoC4/USBFS.c ****             break;
1116:.\Generated_Source\PSoC4/USBFS.c ****     #endif /* (USBFS_DMA1_ACTIVE) */
1117:.\Generated_Source\PSoC4/USBFS.c **** 
1118:.\Generated_Source\PSoC4/USBFS.c ****     #if (USBFS_DMA2_ACTIVE)
1119:.\Generated_Source\PSoC4/USBFS.c ****         case USBFS_EP2:
1120:.\Generated_Source\PSoC4/USBFS.c ****             USBFS_DmaChan[epNumber] = USBFS_ep2_DmaInitialize(USBFS_DMA_BYTES_PER_BURST,
1121:.\Generated_Source\PSoC4/USBFS.c ****                                                                                     USBFS_DMA_REQUE
1122:.\Generated_Source\PSoC4/USBFS.c ****             break;
1123:.\Generated_Source\PSoC4/USBFS.c ****     #endif /* (USBFS_DMA2_ACTIVE) */
1124:.\Generated_Source\PSoC4/USBFS.c **** 
1125:.\Generated_Source\PSoC4/USBFS.c ****     #if (USBFS_DMA3_ACTIVE)
1126:.\Generated_Source\PSoC4/USBFS.c ****             case USBFS_EP3:
1127:.\Generated_Source\PSoC4/USBFS.c ****                 USBFS_DmaChan[epNumber] = USBFS_ep3_DmaInitialize(USBFS_DMA_BYTES_PER_BURST,
1128:.\Generated_Source\PSoC4/USBFS.c ****                                                                                         USBFS_DMA_R
1129:.\Generated_Source\PSoC4/USBFS.c ****             break;
1130:.\Generated_Source\PSoC4/USBFS.c ****     #endif /* (USBFS_DMA3_ACTIVE) */
1131:.\Generated_Source\PSoC4/USBFS.c **** 
1132:.\Generated_Source\PSoC4/USBFS.c ****     #if (USBFS_DMA4_ACTIVE)
1133:.\Generated_Source\PSoC4/USBFS.c ****             case USBFS_EP4:
1134:.\Generated_Source\PSoC4/USBFS.c ****                 USBFS_DmaChan[epNumber] = USBFS_ep4_DmaInitialize(USBFS_DMA_BYTES_PER_BURST,
1135:.\Generated_Source\PSoC4/USBFS.c ****                                                                                         USBFS_DMA_R
1136:.\Generated_Source\PSoC4/USBFS.c ****             break;
ARM GAS  C:\Users\JAVIER~1\AppData\Local\Temp\ccfijmG3.s 			page 34


1137:.\Generated_Source\PSoC4/USBFS.c ****     #endif /* (USBFS_DMA4_ACTIVE) */
1138:.\Generated_Source\PSoC4/USBFS.c **** 
1139:.\Generated_Source\PSoC4/USBFS.c ****     #if (USBFS_DMA5_ACTIVE)
1140:.\Generated_Source\PSoC4/USBFS.c ****             case USBFS_EP5:
1141:.\Generated_Source\PSoC4/USBFS.c ****                 USBFS_DmaChan[epNumber] = USBFS_ep5_DmaInitialize(USBFS_DMA_BYTES_PER_BURST,
1142:.\Generated_Source\PSoC4/USBFS.c ****                                                                                         USBFS_DMA_R
1143:.\Generated_Source\PSoC4/USBFS.c ****             break;
1144:.\Generated_Source\PSoC4/USBFS.c ****     #endif /* (USBFS_DMA5_ACTIVE) */
1145:.\Generated_Source\PSoC4/USBFS.c **** 
1146:.\Generated_Source\PSoC4/USBFS.c ****     #if (USBFS_DMA6_ACTIVE)
1147:.\Generated_Source\PSoC4/USBFS.c ****         case USBFS_EP6:
1148:.\Generated_Source\PSoC4/USBFS.c ****             USBFS_DmaChan[epNumber] = USBFS_ep6_DmaInitialize(USBFS_DMA_BYTES_PER_BURST,
1149:.\Generated_Source\PSoC4/USBFS.c ****                                                                                     USBFS_DMA_REQUE
1150:.\Generated_Source\PSoC4/USBFS.c ****             break;
1151:.\Generated_Source\PSoC4/USBFS.c ****     #endif /* (USBFS_DMA6_ACTIVE) */
1152:.\Generated_Source\PSoC4/USBFS.c **** 
1153:.\Generated_Source\PSoC4/USBFS.c ****     #if (USBFS_DMA7_ACTIVE)
1154:.\Generated_Source\PSoC4/USBFS.c ****         case USBFS_EP7:
1155:.\Generated_Source\PSoC4/USBFS.c ****                 USBFS_DmaChan[epNumber] = USBFS_ep7_DmaInitialize(USBFS_DMA_BYTES_PER_BURST,
1156:.\Generated_Source\PSoC4/USBFS.c ****                                                                                         USBFS_DMA_R
1157:.\Generated_Source\PSoC4/USBFS.c ****             break;
1158:.\Generated_Source\PSoC4/USBFS.c ****     #endif /* (USBFS_DMA7_ACTIVE) */
1159:.\Generated_Source\PSoC4/USBFS.c **** 
1160:.\Generated_Source\PSoC4/USBFS.c ****     #if (USBFS_DMA8_ACTIVE)
1161:.\Generated_Source\PSoC4/USBFS.c ****         case USBFS_EP8:
1162:.\Generated_Source\PSoC4/USBFS.c ****                 USBFS_DmaChan[epNumber] = USBFS_ep8_DmaInitialize(USBFS_DMA_BYTES_PER_BURST,
1163:.\Generated_Source\PSoC4/USBFS.c ****                                                                                         USBFS_DMA_R
1164:.\Generated_Source\PSoC4/USBFS.c ****             break;
1165:.\Generated_Source\PSoC4/USBFS.c ****     #endif /* (USBFS_DMA8_ACTIVE) */
1166:.\Generated_Source\PSoC4/USBFS.c **** 
1167:.\Generated_Source\PSoC4/USBFS.c ****         default:
1168:.\Generated_Source\PSoC4/USBFS.c ****             /* Do nothing for endpoints other than 1-8. */
1169:.\Generated_Source\PSoC4/USBFS.c ****             break;
1170:.\Generated_Source\PSoC4/USBFS.c ****         }
1171:.\Generated_Source\PSoC4/USBFS.c **** 
1172:.\Generated_Source\PSoC4/USBFS.c ****         if ((epNumber > USBFS_EP0) && (epNumber < USBFS_MAX_EP))
1173:.\Generated_Source\PSoC4/USBFS.c ****         {
1174:.\Generated_Source\PSoC4/USBFS.c ****             USBFS_DmaTd[epNumber] = CyDmaTdAllocate();
1175:.\Generated_Source\PSoC4/USBFS.c **** 
1176:.\Generated_Source\PSoC4/USBFS.c ****         #if (USBFS_EP_MANAGEMENT_DMA_AUTO && (USBFS_EP_DMA_AUTO_OPT == 0u))
1177:.\Generated_Source\PSoC4/USBFS.c ****             USBFS_DmaNextTd[epNumber] = CyDmaTdAllocate();
1178:.\Generated_Source\PSoC4/USBFS.c ****         #endif /* (USBFS_EP_MANAGEMENT_DMA_AUTO && (USBFS_EP_DMA_AUTO_OPT == 0u)) */
1179:.\Generated_Source\PSoC4/USBFS.c ****         }
1180:.\Generated_Source\PSoC4/USBFS.c ****     }
1181:.\Generated_Source\PSoC4/USBFS.c **** #endif /* (CY_PSOC4) */
1182:.\Generated_Source\PSoC4/USBFS.c **** 
1183:.\Generated_Source\PSoC4/USBFS.c ****     /***************************************************************************
1184:.\Generated_Source\PSoC4/USBFS.c ****     * Function Name: USBFS_Stop_DMA
1185:.\Generated_Source\PSoC4/USBFS.c ****     ************************************************************************//**
1186:.\Generated_Source\PSoC4/USBFS.c ****     *  
1187:.\Generated_Source\PSoC4/USBFS.c ****     *  This function stops DMA channel associated with endpoint. It is available 
1188:.\Generated_Source\PSoC4/USBFS.c ****     *  when the Endpoint Buffer Management parameter is set to DMA. Call this 
1189:.\Generated_Source\PSoC4/USBFS.c ****     *  function when endpoint direction is changed from IN to OUT or vice versa 
1190:.\Generated_Source\PSoC4/USBFS.c ****     *  to trigger DMA re-configuration when USBFS_LoadInEP() or 
1191:.\Generated_Source\PSoC4/USBFS.c ****     *  USBFS_ReadOutEP() functions are called the first time. 
1192:.\Generated_Source\PSoC4/USBFS.c ****     *  
1193:.\Generated_Source\PSoC4/USBFS.c ****     *  \param epNumber: The data endpoint number for which associated DMA 
ARM GAS  C:\Users\JAVIER~1\AppData\Local\Temp\ccfijmG3.s 			page 35


1194:.\Generated_Source\PSoC4/USBFS.c ****     *  channel is stopped. The range of valid values is between 1 and 8. To stop 
1195:.\Generated_Source\PSoC4/USBFS.c ****     *  all DMAs associated with endpoints call this function with 
1196:.\Generated_Source\PSoC4/USBFS.c ****     *  USBFS_MAX_EP argument.
1197:.\Generated_Source\PSoC4/USBFS.c ****     *
1198:.\Generated_Source\PSoC4/USBFS.c ****     * \reentrant
1199:.\Generated_Source\PSoC4/USBFS.c ****     *  No.
1200:.\Generated_Source\PSoC4/USBFS.c ****     *
1201:.\Generated_Source\PSoC4/USBFS.c ****     ***************************************************************************/
1202:.\Generated_Source\PSoC4/USBFS.c ****     void USBFS_Stop_DMA(uint8 epNumber) 
1203:.\Generated_Source\PSoC4/USBFS.c ****     {
1204:.\Generated_Source\PSoC4/USBFS.c ****         uint32 i;
1205:.\Generated_Source\PSoC4/USBFS.c **** 
1206:.\Generated_Source\PSoC4/USBFS.c ****         i = (epNumber < USBFS_MAX_EP) ? epNumber : USBFS_EP1;
1207:.\Generated_Source\PSoC4/USBFS.c **** 
1208:.\Generated_Source\PSoC4/USBFS.c ****         do
1209:.\Generated_Source\PSoC4/USBFS.c ****         {
1210:.\Generated_Source\PSoC4/USBFS.c ****         #if (CY_PSOC4)
1211:.\Generated_Source\PSoC4/USBFS.c ****             if (0u != USBFS_DmaChan[i])
1212:.\Generated_Source\PSoC4/USBFS.c ****             {
1213:.\Generated_Source\PSoC4/USBFS.c ****                 USBFS_CyDmaChDisable(USBFS_DmaChan[i]);
1214:.\Generated_Source\PSoC4/USBFS.c ****             }
1215:.\Generated_Source\PSoC4/USBFS.c ****         #else
1216:.\Generated_Source\PSoC4/USBFS.c ****             if(USBFS_DmaTd[i] != DMA_INVALID_TD)
1217:.\Generated_Source\PSoC4/USBFS.c ****             {
1218:.\Generated_Source\PSoC4/USBFS.c ****                 (void) CyDmaChDisable(USBFS_DmaChan[i]);
1219:.\Generated_Source\PSoC4/USBFS.c ****                 CyDmaTdFree(USBFS_DmaTd[i]);
1220:.\Generated_Source\PSoC4/USBFS.c ****                 USBFS_DmaTd[i] = DMA_INVALID_TD;
1221:.\Generated_Source\PSoC4/USBFS.c ****             }
1222:.\Generated_Source\PSoC4/USBFS.c **** 
1223:.\Generated_Source\PSoC4/USBFS.c ****             #if (USBFS_EP_MANAGEMENT_DMA_AUTO && (USBFS_EP_DMA_AUTO_OPT == 0u))
1224:.\Generated_Source\PSoC4/USBFS.c ****                 if(USBFS_DmaNextTd[i] != DMA_INVALID_TD)
1225:.\Generated_Source\PSoC4/USBFS.c ****                 {
1226:.\Generated_Source\PSoC4/USBFS.c ****                     CyDmaTdFree(USBFS_DmaNextTd[i]);
1227:.\Generated_Source\PSoC4/USBFS.c ****                     USBFS_DmaNextTd[i] = DMA_INVALID_TD;
1228:.\Generated_Source\PSoC4/USBFS.c ****                 }
1229:.\Generated_Source\PSoC4/USBFS.c ****             #endif /* (USBFS_EP_MANAGEMENT_DMA_AUTO && (USBFS_EP_DMA_AUTO_OPT == 0u)) */
1230:.\Generated_Source\PSoC4/USBFS.c **** 
1231:.\Generated_Source\PSoC4/USBFS.c ****         #endif /* (CY_PSOC4) */
1232:.\Generated_Source\PSoC4/USBFS.c ****             i++;
1233:.\Generated_Source\PSoC4/USBFS.c ****         }
1234:.\Generated_Source\PSoC4/USBFS.c ****         while ((i < USBFS_MAX_EP) && (epNumber == USBFS_MAX_EP));
1235:.\Generated_Source\PSoC4/USBFS.c ****     }
1236:.\Generated_Source\PSoC4/USBFS.c **** #endif /* (USBFS_EP_MANAGEMENT_DMA) */
1237:.\Generated_Source\PSoC4/USBFS.c **** 
1238:.\Generated_Source\PSoC4/USBFS.c **** 
1239:.\Generated_Source\PSoC4/USBFS.c **** #if (CY_PSOC3 || CY_PSOC5)
1240:.\Generated_Source\PSoC4/USBFS.c **** #if (USBFS_EP_MANAGEMENT_DMA_AUTO && (USBFS_EP_DMA_AUTO_OPT == 0u))
1241:.\Generated_Source\PSoC4/USBFS.c ****     /***************************************************************************
1242:.\Generated_Source\PSoC4/USBFS.c ****     * Function Name: USBFS_LoadNextInEP
1243:.\Generated_Source\PSoC4/USBFS.c ****     ************************************************************************//**
1244:.\Generated_Source\PSoC4/USBFS.c ****     *
1245:.\Generated_Source\PSoC4/USBFS.c ****     * Summary:
1246:.\Generated_Source\PSoC4/USBFS.c ****     *  This internal function is used for IN endpoint DMA reconfiguration in
1247:.\Generated_Source\PSoC4/USBFS.c ****     *  Auto DMA mode.
1248:.\Generated_Source\PSoC4/USBFS.c ****     *
1249:.\Generated_Source\PSoC4/USBFS.c ****     * Parameters:
1250:.\Generated_Source\PSoC4/USBFS.c ****     *  epNumber: Contains the data endpoint number.
ARM GAS  C:\Users\JAVIER~1\AppData\Local\Temp\ccfijmG3.s 			page 36


1251:.\Generated_Source\PSoC4/USBFS.c ****     *  mode:   0 - Configure DMA to send the the rest of data.
1252:.\Generated_Source\PSoC4/USBFS.c ****     *          1 - Configure DMA to repeat 2 last bytes of the first burst.
1253:.\Generated_Source\PSoC4/USBFS.c ****     *
1254:.\Generated_Source\PSoC4/USBFS.c ****     ***************************************************************************/
1255:.\Generated_Source\PSoC4/USBFS.c ****     void USBFS_LoadNextInEP(uint8 epNumber, uint8 mode) 
1256:.\Generated_Source\PSoC4/USBFS.c ****     {
1257:.\Generated_Source\PSoC4/USBFS.c ****         reg16 *convert;
1258:.\Generated_Source\PSoC4/USBFS.c **** 
1259:.\Generated_Source\PSoC4/USBFS.c ****         if (mode == 0u)
1260:.\Generated_Source\PSoC4/USBFS.c ****         {
1261:.\Generated_Source\PSoC4/USBFS.c ****             /* Configure DMA to send rest of data. */
1262:.\Generated_Source\PSoC4/USBFS.c ****             /* CyDmaTdSetConfiguration API is optimized to change transfer length only and configur
1263:.\Generated_Source\PSoC4/USBFS.c ****             convert = (reg16 *) &CY_DMA_TDMEM_STRUCT_PTR[USBFS_DmaTd[epNumber]].TD0[0u];
1264:.\Generated_Source\PSoC4/USBFS.c ****             /* Set transfer length. */
1265:.\Generated_Source\PSoC4/USBFS.c ****             CY_SET_REG16(convert, USBFS_inLength[epNumber] - USBFS_DMA_BYTES_PER_BURST);
1266:.\Generated_Source\PSoC4/USBFS.c ****             /* CyDmaTdSetAddress API is optimized to change source address only. */
1267:.\Generated_Source\PSoC4/USBFS.c ****             convert = (reg16 *) &CY_DMA_TDMEM_STRUCT_PTR[USBFS_DmaTd[epNumber]].TD1[0u];
1268:.\Generated_Source\PSoC4/USBFS.c ****             CY_SET_REG16(convert, LO16((uint32)USBFS_inDataPointer[epNumber] +
1269:.\Generated_Source\PSoC4/USBFS.c ****                                             USBFS_DMA_BYTES_PER_BURST));
1270:.\Generated_Source\PSoC4/USBFS.c ****             USBFS_inBufFull[epNumber] = 1u;
1271:.\Generated_Source\PSoC4/USBFS.c ****         }
1272:.\Generated_Source\PSoC4/USBFS.c ****         else
1273:.\Generated_Source\PSoC4/USBFS.c ****         {
1274:.\Generated_Source\PSoC4/USBFS.c ****             /* Configure DMA to repeat 2 last bytes of the first burst. */
1275:.\Generated_Source\PSoC4/USBFS.c ****             /* CyDmaTdSetConfiguration API is optimized to change transfer length only and configur
1276:.\Generated_Source\PSoC4/USBFS.c ****             convert = (reg16 *) &CY_DMA_TDMEM_STRUCT_PTR[USBFS_DmaTd[epNumber]].TD0[0u];
1277:.\Generated_Source\PSoC4/USBFS.c ****             /* Set transfer length. */
1278:.\Generated_Source\PSoC4/USBFS.c ****             CY_SET_REG16(convert, USBFS_DMA_BYTES_REPEAT);
1279:.\Generated_Source\PSoC4/USBFS.c ****             /* CyDmaTdSetAddress API is optimized to change source address only. */
1280:.\Generated_Source\PSoC4/USBFS.c ****             convert = (reg16 *) &CY_DMA_TDMEM_STRUCT_PTR[USBFS_DmaTd[epNumber]].TD1[0u];
1281:.\Generated_Source\PSoC4/USBFS.c ****             CY_SET_REG16(convert,  LO16((uint32)USBFS_inDataPointer[epNumber] +
1282:.\Generated_Source\PSoC4/USBFS.c ****                                    (USBFS_DMA_BYTES_PER_BURST - USBFS_DMA_BYTES_REPEAT)));
1283:.\Generated_Source\PSoC4/USBFS.c ****         }
1284:.\Generated_Source\PSoC4/USBFS.c **** 
1285:.\Generated_Source\PSoC4/USBFS.c ****         /* CyDmaChSetInitialTd API is optimized to initialize TD. */
1286:.\Generated_Source\PSoC4/USBFS.c ****         CY_DMA_CH_STRUCT_PTR[USBFS_DmaChan[epNumber]].basic_status[1u] = USBFS_DmaTd[epNumber];
1287:.\Generated_Source\PSoC4/USBFS.c ****     }
1288:.\Generated_Source\PSoC4/USBFS.c **** #endif /* (USBFS_EP_MANAGEMENT_DMA_AUTO && (USBFS_EP_DMA_AUTO_OPT == 0u)) */
1289:.\Generated_Source\PSoC4/USBFS.c **** #endif /* (CY_PSOC3 || CY_PSOC5) */
1290:.\Generated_Source\PSoC4/USBFS.c **** 
1291:.\Generated_Source\PSoC4/USBFS.c **** 
1292:.\Generated_Source\PSoC4/USBFS.c **** /*******************************************************************************
1293:.\Generated_Source\PSoC4/USBFS.c **** * Function Name: USBFS_LoadInEP
1294:.\Generated_Source\PSoC4/USBFS.c **** ****************************************************************************//**
1295:.\Generated_Source\PSoC4/USBFS.c **** *
1296:.\Generated_Source\PSoC4/USBFS.c **** *  This function performs different functionality depending on the Component’s
1297:.\Generated_Source\PSoC4/USBFS.c **** *  configured Endpoint Buffer Management. This parameter is defined in
1298:.\Generated_Source\PSoC4/USBFS.c **** *  the Descriptor Root in Component Configure window.
1299:.\Generated_Source\PSoC4/USBFS.c **** *
1300:.\Generated_Source\PSoC4/USBFS.c **** *  *Manual (Static/Dynamic Allocation):*
1301:.\Generated_Source\PSoC4/USBFS.c **** *  This function loads and enables the specified USB data endpoint for an IN
1302:.\Generated_Source\PSoC4/USBFS.c **** *  data transfer.
1303:.\Generated_Source\PSoC4/USBFS.c **** *
1304:.\Generated_Source\PSoC4/USBFS.c **** *  *DMA with Manual Buffer Management:*
1305:.\Generated_Source\PSoC4/USBFS.c **** *  Configures DMA for a data transfer from system RAM to endpoint buffer.
1306:.\Generated_Source\PSoC4/USBFS.c **** *  Generates request for a transfer.
1307:.\Generated_Source\PSoC4/USBFS.c **** *
ARM GAS  C:\Users\JAVIER~1\AppData\Local\Temp\ccfijmG3.s 			page 37


1308:.\Generated_Source\PSoC4/USBFS.c **** *  *DMA with Automatic Buffer Management:*
1309:.\Generated_Source\PSoC4/USBFS.c **** *  Configures DMA. This is required only once, so it is done only when parameter
1310:.\Generated_Source\PSoC4/USBFS.c **** *  pData is not NULL. When the pData pointer is NULL, the function skips this
1311:.\Generated_Source\PSoC4/USBFS.c **** *  task. Sets Data ready status: This generates the first DMA transfer and
1312:.\Generated_Source\PSoC4/USBFS.c **** *  prepares data in endpoint buffer.
1313:.\Generated_Source\PSoC4/USBFS.c **** *
1314:.\Generated_Source\PSoC4/USBFS.c **** *  \param epNumber Contains the data endpoint number.
1315:.\Generated_Source\PSoC4/USBFS.c **** *            Valid values are between 1 and 8.
1316:.\Generated_Source\PSoC4/USBFS.c **** *  \param *pData A pointer to a data array from which the data for the endpoint space
1317:.\Generated_Source\PSoC4/USBFS.c **** *          is loaded.
1318:.\Generated_Source\PSoC4/USBFS.c **** *  \param length The number of bytes to transfer from the array and then send as
1319:.\Generated_Source\PSoC4/USBFS.c **** *          a result of an IN request. Valid values are between 0 and 512
1320:.\Generated_Source\PSoC4/USBFS.c **** *          (1023 for DMA with Automatic Buffer Management mode). The value 512
1321:.\Generated_Source\PSoC4/USBFS.c **** *          is applicable if only one endpoint is used.
1322:.\Generated_Source\PSoC4/USBFS.c **** *
1323:.\Generated_Source\PSoC4/USBFS.c **** *
1324:.\Generated_Source\PSoC4/USBFS.c **** * \reentrant
1325:.\Generated_Source\PSoC4/USBFS.c **** *  No.
1326:.\Generated_Source\PSoC4/USBFS.c **** *
1327:.\Generated_Source\PSoC4/USBFS.c **** *******************************************************************************/
1328:.\Generated_Source\PSoC4/USBFS.c **** void USBFS_LoadInEP(uint8 epNumber, const uint8 pData[], uint16 length)
1329:.\Generated_Source\PSoC4/USBFS.c ****                                                                         
1330:.\Generated_Source\PSoC4/USBFS.c **** {
 734              		.loc 1 1330 0
 735              		.cfi_startproc
 736              	.LVL51:
 737 0000 F0B5     		push	{r4, r5, r6, r7, lr}
 738              		.cfi_def_cfa_offset 20
 739              		.cfi_offset 4, -20
 740              		.cfi_offset 5, -16
 741              		.cfi_offset 6, -12
 742              		.cfi_offset 7, -8
 743              		.cfi_offset 14, -4
1331:.\Generated_Source\PSoC4/USBFS.c ****     if ((epNumber > USBFS_EP0) && (epNumber < USBFS_MAX_EP))
 744              		.loc 1 1331 0
 745 0002 431E     		sub	r3, r0, #1
 746 0004 072B     		cmp	r3, #7
 747 0006 41D8     		bhi	.L51
1332:.\Generated_Source\PSoC4/USBFS.c ****     {
1333:.\Generated_Source\PSoC4/USBFS.c ****     #if (!USBFS_EP_MANAGEMENT_DMA_AUTO)
1334:.\Generated_Source\PSoC4/USBFS.c ****         /* Limit length to available buffer USB IP buffer size.*/
1335:.\Generated_Source\PSoC4/USBFS.c ****         if (length > (USBFS_EPX_DATA_BUF_MAX - USBFS_EP[epNumber].buffOffset))
 748              		.loc 1 1335 0
 749 0008 061C     		mov	r6, r0
 750 000a 4300     		lsl	r3, r0, #1
 751 000c 1B18     		add	r3, r3, r0
 752 000e 9B00     		lsl	r3, r3, #2
 753 0010 1F4C     		ldr	r4, .L58
 754 0012 E318     		add	r3, r4, r3
 755 0014 DC88     		ldrh	r4, [r3, #6]
 756 0016 8023     		mov	r3, #128
 757 0018 9B00     		lsl	r3, r3, #2
 758 001a 1B1B     		sub	r3, r3, r4
 759 001c 9A42     		cmp	r2, r3
 760 001e 09D9     		bls	.L53
1336:.\Generated_Source\PSoC4/USBFS.c ****         {
1337:.\Generated_Source\PSoC4/USBFS.c ****             length = USBFS_EPX_DATA_BUF_MAX - USBFS_EP[epNumber].buffOffset;
ARM GAS  C:\Users\JAVIER~1\AppData\Local\Temp\ccfijmG3.s 			page 38


 761              		.loc 1 1337 0
 762 0020 4300     		lsl	r3, r0, #1
 763 0022 1B18     		add	r3, r3, r0
 764 0024 9B00     		lsl	r3, r3, #2
 765 0026 1A4A     		ldr	r2, .L58
 766              	.LVL52:
 767 0028 D318     		add	r3, r2, r3
 768 002a DA88     		ldrh	r2, [r3, #6]
 769 002c 8023     		mov	r3, #128
 770 002e 9B00     		lsl	r3, r3, #2
 771 0030 9A1A     		sub	r2, r3, r2
 772 0032 92B2     		uxth	r2, r2
 773              	.LVL53:
 774              	.L53:
1338:.\Generated_Source\PSoC4/USBFS.c ****         }
1339:.\Generated_Source\PSoC4/USBFS.c ****     #endif /* (!USBFS_EP_MANAGEMENT_DMA_AUTO) */
1340:.\Generated_Source\PSoC4/USBFS.c **** 
1341:.\Generated_Source\PSoC4/USBFS.c ****         /* Set count and data toggle. */
1342:.\Generated_Source\PSoC4/USBFS.c ****         USBFS_SIE_EP_BASE.sieEp[epNumber].epCnt0 = (uint32) HI8(length) | USBFS_EP[epNumber].epTogg
 775              		.loc 1 1342 0
 776 0034 140A     		lsr	r4, r2, #8
 777 0036 4300     		lsl	r3, r0, #1
 778 0038 1B18     		add	r3, r3, r0
 779 003a 9B00     		lsl	r3, r3, #2
 780 003c 144D     		ldr	r5, .L58
 781 003e EB18     		add	r3, r5, r3
 782 0040 DB78     		ldrb	r3, [r3, #3]
 783 0042 1C43     		orr	r4, r3
 784 0044 8301     		lsl	r3, r0, #6
 785 0046 134D     		ldr	r5, .L58+4
 786 0048 5C51     		str	r4, [r3, r5]
1343:.\Generated_Source\PSoC4/USBFS.c ****         USBFS_SIE_EP_BASE.sieEp[epNumber].epCnt1 = (uint32) LO8(length);
 787              		.loc 1 1343 0
 788 004a D4B2     		uxtb	r4, r2
 789 004c AC46     		mov	ip, r5
 790 004e 6344     		add	r3, r3, ip
 791 0050 5C60     		str	r4, [r3, #4]
1344:.\Generated_Source\PSoC4/USBFS.c **** 
1345:.\Generated_Source\PSoC4/USBFS.c ****     #if (USBFS_EP_MANAGEMENT_MANUAL)
1346:.\Generated_Source\PSoC4/USBFS.c ****         if (NULL != pData)
 792              		.loc 1 1346 0
 793 0052 0029     		cmp	r1, #0
 794 0054 09D1     		bne	.L57
 795              	.LBB2:
 796 0056 0BE0     		b	.L55
 797              	.LVL54:
 798              	.L56:
1347:.\Generated_Source\PSoC4/USBFS.c ****         {
1348:.\Generated_Source\PSoC4/USBFS.c **** 			/* Copy data using arbiter data register. */
1349:.\Generated_Source\PSoC4/USBFS.c ****             uint16 i;
1350:.\Generated_Source\PSoC4/USBFS.c ****             for (i = 0u; i < length; ++i)
1351:.\Generated_Source\PSoC4/USBFS.c ****             {
1352:.\Generated_Source\PSoC4/USBFS.c ****                 USBFS_ARB_EP_BASE.arbEp[epNumber].rwDr = pData[i];
 799              		.loc 1 1352 0 discriminator 3
 800 0058 CD5C     		ldrb	r5, [r1, r3]
 801 005a B401     		lsl	r4, r6, #6
 802 005c 0E4F     		ldr	r7, .L58+8
ARM GAS  C:\Users\JAVIER~1\AppData\Local\Temp\ccfijmG3.s 			page 39


 803 005e BC46     		mov	ip, r7
 804 0060 6444     		add	r4, r4, ip
 805 0062 2562     		str	r5, [r4, #32]
1350:.\Generated_Source\PSoC4/USBFS.c ****             {
 806              		.loc 1 1350 0 discriminator 3
 807 0064 0133     		add	r3, r3, #1
 808              	.LVL55:
 809 0066 9BB2     		uxth	r3, r3
 810              	.LVL56:
 811 0068 00E0     		b	.L54
 812              	.LVL57:
 813              	.L57:
 814              	.LBE2:
 815 006a 0023     		mov	r3, #0
 816              	.L54:
 817              	.LVL58:
 818              	.LBB3:
1350:.\Generated_Source\PSoC4/USBFS.c ****             {
 819              		.loc 1 1350 0 is_stmt 0 discriminator 1
 820 006c 9342     		cmp	r3, r2
 821 006e F3D3     		bcc	.L56
 822              	.LVL59:
 823              	.L55:
 824              	.LBE3:
1353:.\Generated_Source\PSoC4/USBFS.c ****             }
1354:.\Generated_Source\PSoC4/USBFS.c ****         }
1355:.\Generated_Source\PSoC4/USBFS.c **** 
1356:.\Generated_Source\PSoC4/USBFS.c ****         /* IN endpoint buffer is full - read to be read. */
1357:.\Generated_Source\PSoC4/USBFS.c ****         USBFS_EP[epNumber].apiEpState = USBFS_NO_EVENT_PENDING;
 825              		.loc 1 1357 0 is_stmt 1
 826 0070 4300     		lsl	r3, r0, #1
 827 0072 1B18     		add	r3, r3, r0
 828 0074 9B00     		lsl	r3, r3, #2
 829 0076 064A     		ldr	r2, .L58
 830              	.LVL60:
 831 0078 D318     		add	r3, r2, r3
 832 007a 0022     		mov	r2, #0
 833 007c 5A70     		strb	r2, [r3, #1]
1358:.\Generated_Source\PSoC4/USBFS.c **** 
1359:.\Generated_Source\PSoC4/USBFS.c ****         /* Arm IN endpoint. */
1360:.\Generated_Source\PSoC4/USBFS.c ****         USBFS_SIE_EP_BASE.sieEp[epNumber].epCr0 = USBFS_EP[epNumber].epMode;
 834              		.loc 1 1360 0
 835 007e 5B79     		ldrb	r3, [r3, #5]
 836 0080 DBB2     		uxtb	r3, r3
 837 0082 8001     		lsl	r0, r0, #6
 838              	.LVL61:
 839 0084 034A     		ldr	r2, .L58+4
 840 0086 9446     		mov	ip, r2
 841 0088 6044     		add	r0, r0, ip
 842 008a 8360     		str	r3, [r0, #8]
 843              	.L51:
1361:.\Generated_Source\PSoC4/USBFS.c **** 
1362:.\Generated_Source\PSoC4/USBFS.c ****     #else
1363:.\Generated_Source\PSoC4/USBFS.c **** 
1364:.\Generated_Source\PSoC4/USBFS.c ****         #if (CY_PSOC3 || CY_PSOC5LP)
1365:.\Generated_Source\PSoC4/USBFS.c ****             /* Initialize DMA if it was not initialized. */
1366:.\Generated_Source\PSoC4/USBFS.c ****             if (DMA_INVALID_TD == USBFS_DmaTd[epNumber])
ARM GAS  C:\Users\JAVIER~1\AppData\Local\Temp\ccfijmG3.s 			page 40


1367:.\Generated_Source\PSoC4/USBFS.c ****             {
1368:.\Generated_Source\PSoC4/USBFS.c ****                 USBFS_InitEP_DMA(epNumber, pData);
1369:.\Generated_Source\PSoC4/USBFS.c ****             }
1370:.\Generated_Source\PSoC4/USBFS.c ****         #endif /* (CY_PSOC3 || CY_PSOC5LP) */
1371:.\Generated_Source\PSoC4/USBFS.c **** 
1372:.\Generated_Source\PSoC4/USBFS.c ****         #if (USBFS_EP_MANAGEMENT_DMA_MANUAL)
1373:.\Generated_Source\PSoC4/USBFS.c ****             /* IN endpoint buffer will be fully loaded by DMA shortly. */
1374:.\Generated_Source\PSoC4/USBFS.c ****             USBFS_EP[epNumber].apiEpState = USBFS_NO_EVENT_PENDING;
1375:.\Generated_Source\PSoC4/USBFS.c **** 
1376:.\Generated_Source\PSoC4/USBFS.c ****             if ((pData != NULL) && (length > 0u))
1377:.\Generated_Source\PSoC4/USBFS.c ****             {
1378:.\Generated_Source\PSoC4/USBFS.c ****             #if (CY_PSOC4)
1379:.\Generated_Source\PSoC4/USBFS.c ****                 uint32 channelNum = (uint32) USBFS_DmaChan[epNumber];
1380:.\Generated_Source\PSoC4/USBFS.c **** 
1381:.\Generated_Source\PSoC4/USBFS.c ****                 /* Disable DMA channel: start configuration. */
1382:.\Generated_Source\PSoC4/USBFS.c ****                 USBFS_CyDmaChDisable(channelNum);
1383:.\Generated_Source\PSoC4/USBFS.c **** 
1384:.\Generated_Source\PSoC4/USBFS.c ****                 /* Configure source and destination. */
1385:.\Generated_Source\PSoC4/USBFS.c ****                 USBFS_CyDmaSetSrcAddress(channelNum, USBFS_DMA_DESCR0, (void*) pData);
1386:.\Generated_Source\PSoC4/USBFS.c ****                 USBFS_CyDmaSetDstAddress(channelNum, USBFS_DMA_DESCR0, (void*) &USBFS_ARB_EP_BASE.a
1387:.\Generated_Source\PSoC4/USBFS.c **** 
1388:.\Generated_Source\PSoC4/USBFS.c ****                 /* Configure DMA descriptor. */
1389:.\Generated_Source\PSoC4/USBFS.c ****                 --length;
1390:.\Generated_Source\PSoC4/USBFS.c ****                 USBFS_CyDmaSetConfiguration(channelNum, USBFS_DMA_DESCR0, USBFS_DMA_COMMON_CFG | le
1391:.\Generated_Source\PSoC4/USBFS.c ****                                                         CYDMA_BYTE | CYDMA_ELEMENT_WORD | CYDMA_INC
1392:.\Generated_Source\PSoC4/USBFS.c **** 
1393:.\Generated_Source\PSoC4/USBFS.c ****                 /* Validate descriptor to execute on following DMA request. */
1394:.\Generated_Source\PSoC4/USBFS.c ****                 USBFS_CyDmaValidateDescriptor(channelNum, USBFS_DMA_DESCR0);
1395:.\Generated_Source\PSoC4/USBFS.c **** 
1396:.\Generated_Source\PSoC4/USBFS.c ****                 /* Enable DMA channel: configuration complete. */
1397:.\Generated_Source\PSoC4/USBFS.c ****                 USBFS_CyDmaChEnable(channelNum);
1398:.\Generated_Source\PSoC4/USBFS.c ****             #else
1399:.\Generated_Source\PSoC4/USBFS.c ****                 /* Configure DMA to transfer data. */
1400:.\Generated_Source\PSoC4/USBFS.c ****                 (void) CyDmaChDisable(USBFS_DmaChan[epNumber]);
1401:.\Generated_Source\PSoC4/USBFS.c ****                 (void) CyDmaTdSetConfiguration(USBFS_DmaTd[epNumber], length, CY_DMA_DISABLE_TD, TD
1402:.\Generated_Source\PSoC4/USBFS.c ****                 (void) CyDmaTdSetAddress(USBFS_DmaTd[epNumber], LO16((uint32) pData), LO16((uint32)
1403:.\Generated_Source\PSoC4/USBFS.c **** 
1404:.\Generated_Source\PSoC4/USBFS.c ****                 /* Enable DMA channel. */
1405:.\Generated_Source\PSoC4/USBFS.c ****                 (void) CyDmaChSetInitialTd(USBFS_DmaChan[epNumber], USBFS_DmaTd[epNumber]);
1406:.\Generated_Source\PSoC4/USBFS.c ****                 (void) CyDmaChEnable(USBFS_DmaChan[epNumber], 1u);
1407:.\Generated_Source\PSoC4/USBFS.c ****             #endif /* (CY_PSOC4) */
1408:.\Generated_Source\PSoC4/USBFS.c **** 
1409:.\Generated_Source\PSoC4/USBFS.c ****                 /* Generate DMA request. */
1410:.\Generated_Source\PSoC4/USBFS.c ****                 USBFS_ARB_EP_BASE.arbEp[epNumber].epCfg |=  (uint32)  USBFS_ARB_EPX_CFG_DMA_REQ;
1411:.\Generated_Source\PSoC4/USBFS.c ****                 USBFS_ARB_EP_BASE.arbEp[epNumber].epCfg &=  (uint32) ~USBFS_ARB_EPX_CFG_DMA_REQ;
1412:.\Generated_Source\PSoC4/USBFS.c **** 
1413:.\Generated_Source\PSoC4/USBFS.c ****                 /* IN endpoint will be armed in ARB_ISR(source: IN_BUF_FULL) after first DMA transf
1414:.\Generated_Source\PSoC4/USBFS.c ****             }
1415:.\Generated_Source\PSoC4/USBFS.c ****             else
1416:.\Generated_Source\PSoC4/USBFS.c ****             {
1417:.\Generated_Source\PSoC4/USBFS.c ****                 /* When zero-length packet: arm IN endpoint directly. */
1418:.\Generated_Source\PSoC4/USBFS.c ****                 USBFS_SIE_EP_BASE.sieEp[epNumber].epCr0 = USBFS_EP[epNumber].epMode;
1419:.\Generated_Source\PSoC4/USBFS.c ****             }
1420:.\Generated_Source\PSoC4/USBFS.c ****         #endif /* (USBFS_EP_MANAGEMENT_DMA_MANUAL) */
1421:.\Generated_Source\PSoC4/USBFS.c **** 
1422:.\Generated_Source\PSoC4/USBFS.c ****         #if (USBFS_EP_MANAGEMENT_DMA_AUTO)
1423:.\Generated_Source\PSoC4/USBFS.c ****             if (pData != NULL)
ARM GAS  C:\Users\JAVIER~1\AppData\Local\Temp\ccfijmG3.s 			page 41


1424:.\Generated_Source\PSoC4/USBFS.c ****             {
1425:.\Generated_Source\PSoC4/USBFS.c ****             #if (CY_PSOC4)
1426:.\Generated_Source\PSoC4/USBFS.c ****                 uint32 channelNum = (uint32) USBFS_DmaChan[epNumber];
1427:.\Generated_Source\PSoC4/USBFS.c **** 
1428:.\Generated_Source\PSoC4/USBFS.c ****                 /* Store address of buffer. */
1429:.\Generated_Source\PSoC4/USBFS.c ****                 USBFS_DmaEpBufferAddrBackup[epNumber] = (uint32) pData;
1430:.\Generated_Source\PSoC4/USBFS.c **** 
1431:.\Generated_Source\PSoC4/USBFS.c ****                 /* Disable DMA channel: start configuration. */
1432:.\Generated_Source\PSoC4/USBFS.c ****                 USBFS_CyDmaChDisable(channelNum);
1433:.\Generated_Source\PSoC4/USBFS.c **** 
1434:.\Generated_Source\PSoC4/USBFS.c ****                 /* Set destination address. */
1435:.\Generated_Source\PSoC4/USBFS.c ****                 USBFS_CyDmaSetDstAddress(channelNum, USBFS_DMA_DESCR0, (void*) &USBFS_ARB_EP_BASE.a
1436:.\Generated_Source\PSoC4/USBFS.c ****                 USBFS_CyDmaSetDstAddress(channelNum, USBFS_DMA_DESCR1, (void*) &USBFS_ARB_EP_BASE.a
1437:.\Generated_Source\PSoC4/USBFS.c **** 
1438:.\Generated_Source\PSoC4/USBFS.c ****                 /* Configure DMA descriptor. */
1439:.\Generated_Source\PSoC4/USBFS.c ****                 USBFS_CyDmaSetConfiguration(channelNum, USBFS_DMA_DESCR0, USBFS_DMA_COMMON_CFG  |
1440:.\Generated_Source\PSoC4/USBFS.c ****                                                         CYDMA_BYTE | CYDMA_ELEMENT_WORD | CYDMA_INC
1441:.\Generated_Source\PSoC4/USBFS.c **** 
1442:.\Generated_Source\PSoC4/USBFS.c ****                 /* Configure DMA descriptor. */
1443:.\Generated_Source\PSoC4/USBFS.c ****                 USBFS_CyDmaSetConfiguration(channelNum, USBFS_DMA_DESCR1, USBFS_DMA_COMMON_CFG  |
1444:.\Generated_Source\PSoC4/USBFS.c ****                                                         CYDMA_BYTE | CYDMA_ELEMENT_WORD | CYDMA_INC
1445:.\Generated_Source\PSoC4/USBFS.c **** 
1446:.\Generated_Source\PSoC4/USBFS.c ****                 /* Enable interrupt from DMA channel. */
1447:.\Generated_Source\PSoC4/USBFS.c ****                 USBFS_CyDmaSetInterruptMask(channelNum);
1448:.\Generated_Source\PSoC4/USBFS.c **** 
1449:.\Generated_Source\PSoC4/USBFS.c ****                 /* Validate descriptor 1. It will not be invalided during operation. */
1450:.\Generated_Source\PSoC4/USBFS.c ****                 USBFS_CyDmaValidateDescriptor(channelNum, USBFS_DMA_DESCR1);
1451:.\Generated_Source\PSoC4/USBFS.c **** 
1452:.\Generated_Source\PSoC4/USBFS.c ****                 /* Enable DMA channel: configuration complete. */
1453:.\Generated_Source\PSoC4/USBFS.c ****                 USBFS_CyDmaChEnable(channelNum);
1454:.\Generated_Source\PSoC4/USBFS.c **** 
1455:.\Generated_Source\PSoC4/USBFS.c ****             #else
1456:.\Generated_Source\PSoC4/USBFS.c ****                 (void) CyDmaChDisable(USBFS_DmaChan[epNumber]);
1457:.\Generated_Source\PSoC4/USBFS.c **** 
1458:.\Generated_Source\PSoC4/USBFS.c ****                 #if (USBFS_EP_DMA_AUTO_OPT == 0u)
1459:.\Generated_Source\PSoC4/USBFS.c ****                     USBFS_inLength[epNumber] = length;
1460:.\Generated_Source\PSoC4/USBFS.c ****                     USBFS_inDataPointer[epNumber] = pData;
1461:.\Generated_Source\PSoC4/USBFS.c **** 
1462:.\Generated_Source\PSoC4/USBFS.c ****                     /* Configure DMA to send data only for first burst */
1463:.\Generated_Source\PSoC4/USBFS.c ****                     (void) CyDmaTdSetConfiguration(USBFS_DmaTd[epNumber],
1464:.\Generated_Source\PSoC4/USBFS.c ****                         (length > USBFS_DMA_BYTES_PER_BURST) ? USBFS_DMA_BYTES_PER_BURST : length,
1465:.\Generated_Source\PSoC4/USBFS.c ****                         USBFS_DmaNextTd[epNumber], TD_TERMIN_EN | TD_INC_SRC_ADR);
1466:.\Generated_Source\PSoC4/USBFS.c ****                     (void) CyDmaTdSetAddress(USBFS_DmaTd[epNumber], LO16((uint32) pData),
1467:.\Generated_Source\PSoC4/USBFS.c ****                                                                                LO16((uint32) &USBFS
1468:.\Generated_Source\PSoC4/USBFS.c **** 
1469:.\Generated_Source\PSoC4/USBFS.c ****                     /* The second TD will be executed only when the first one fails.
1470:.\Generated_Source\PSoC4/USBFS.c ****                     *  The intention of this TD is to generate NRQ interrupt
1471:.\Generated_Source\PSoC4/USBFS.c ****                     *  and repeat 2 last bytes of the first burst.
1472:.\Generated_Source\PSoC4/USBFS.c ****                     */
1473:.\Generated_Source\PSoC4/USBFS.c ****                     (void) CyDmaTdSetConfiguration(USBFS_DmaNextTd[epNumber], 1u,
1474:.\Generated_Source\PSoC4/USBFS.c ****                                                    USBFS_DmaNextTd[epNumber],
1475:.\Generated_Source\PSoC4/USBFS.c ****                                                    USBFS_epX_TD_TERMOUT_EN[epNumber]);
1476:.\Generated_Source\PSoC4/USBFS.c **** 
1477:.\Generated_Source\PSoC4/USBFS.c ****                     /* Configure DmaNextTd to clear Data Ready status. */
1478:.\Generated_Source\PSoC4/USBFS.c ****                     (void) CyDmaTdSetAddress(USBFS_DmaNextTd[epNumber], LO16((uint32) &clearInDataR
1479:.\Generated_Source\PSoC4/USBFS.c ****                                                                                    LO16((uint32) &U
1480:.\Generated_Source\PSoC4/USBFS.c ****                 #else
ARM GAS  C:\Users\JAVIER~1\AppData\Local\Temp\ccfijmG3.s 			page 42


1481:.\Generated_Source\PSoC4/USBFS.c ****                     /* Configure DMA to send all data. */
1482:.\Generated_Source\PSoC4/USBFS.c ****                     (void) CyDmaTdSetConfiguration(USBFS_DmaTd[epNumber], length,
1483:.\Generated_Source\PSoC4/USBFS.c ****                                                    USBFS_DmaTd[epNumber], TD_TERMIN_EN | TD_INC_SRC
1484:.\Generated_Source\PSoC4/USBFS.c ****                     (void) CyDmaTdSetAddress(USBFS_DmaTd[epNumber], LO16((uint32) pData),
1485:.\Generated_Source\PSoC4/USBFS.c ****                                                                                LO16((uint32) &USBFS
1486:.\Generated_Source\PSoC4/USBFS.c ****                 #endif /* (USBFS_EP_DMA_AUTO_OPT == 0u) */
1487:.\Generated_Source\PSoC4/USBFS.c **** 
1488:.\Generated_Source\PSoC4/USBFS.c ****                 /* Clear any potential pending DMA requests before starting DMA channel to transfer
1489:.\Generated_Source\PSoC4/USBFS.c ****                 (void) CyDmaClearPendingDrq(USBFS_DmaChan[epNumber]);
1490:.\Generated_Source\PSoC4/USBFS.c ****                 /* Enable DMA. */
1491:.\Generated_Source\PSoC4/USBFS.c ****                 (void) CyDmaChSetInitialTd(USBFS_DmaChan[epNumber], USBFS_DmaTd[epNumber]);
1492:.\Generated_Source\PSoC4/USBFS.c ****                 (void) CyDmaChEnable(USBFS_DmaChan[epNumber], 1u);
1493:.\Generated_Source\PSoC4/USBFS.c ****             #endif /* (CY_PSOC4) */
1494:.\Generated_Source\PSoC4/USBFS.c ****             }
1495:.\Generated_Source\PSoC4/USBFS.c ****             else
1496:.\Generated_Source\PSoC4/USBFS.c ****             {
1497:.\Generated_Source\PSoC4/USBFS.c ****                 /* IN endpoint buffer (32 bytes) will shortly be preloaded by DMA. */
1498:.\Generated_Source\PSoC4/USBFS.c ****                 USBFS_EP[epNumber].apiEpState = USBFS_NO_EVENT_PENDING;
1499:.\Generated_Source\PSoC4/USBFS.c **** 
1500:.\Generated_Source\PSoC4/USBFS.c ****                 if (length > 0u)
1501:.\Generated_Source\PSoC4/USBFS.c ****                 {
1502:.\Generated_Source\PSoC4/USBFS.c ****                 #if (CY_PSOC4)
1503:.\Generated_Source\PSoC4/USBFS.c ****                     uint32 lengthDescr0, lengthDescr1;
1504:.\Generated_Source\PSoC4/USBFS.c ****                     uint32 channelNum = (uint32) USBFS_DmaChan[epNumber];
1505:.\Generated_Source\PSoC4/USBFS.c **** 
1506:.\Generated_Source\PSoC4/USBFS.c ****                     /* Get number of full bursts. */
1507:.\Generated_Source\PSoC4/USBFS.c ****                     USBFS_DmaEpBurstCnt[epNumber] = (uint8) (length / USBFS_DMA_BYTES_PER_BURST);
1508:.\Generated_Source\PSoC4/USBFS.c **** 
1509:.\Generated_Source\PSoC4/USBFS.c ****                     /* Get number of elements in the last burst. */
1510:.\Generated_Source\PSoC4/USBFS.c ****                     USBFS_DmaEpLastBurstEl[epNumber] = (uint8) (length % USBFS_DMA_BYTES_PER_BURST)
1511:.\Generated_Source\PSoC4/USBFS.c **** 
1512:.\Generated_Source\PSoC4/USBFS.c ****                     /* Get total number of bursts. */
1513:.\Generated_Source\PSoC4/USBFS.c ****                     USBFS_DmaEpBurstCnt[epNumber] += (0u != USBFS_DmaEpLastBurstEl[epNumber]) ? 1u 
1514:.\Generated_Source\PSoC4/USBFS.c **** 
1515:.\Generated_Source\PSoC4/USBFS.c ****                     /* Adjust number of data elements transferred in last burst. */
1516:.\Generated_Source\PSoC4/USBFS.c ****                     USBFS_DmaEpLastBurstEl[epNumber] = (0u != USBFS_DmaEpLastBurstEl[epNumber]) ?
1517:.\Generated_Source\PSoC4/USBFS.c ****                                                                           (USBFS_DmaEpLastBurstEl[e
1518:.\Generated_Source\PSoC4/USBFS.c ****                                                                           (USBFS_DMA_BYTES_PER_BURS
1519:.\Generated_Source\PSoC4/USBFS.c **** 
1520:.\Generated_Source\PSoC4/USBFS.c ****                     /* Get number of data elements to transfer for descriptor 0 and 1. */
1521:.\Generated_Source\PSoC4/USBFS.c ****                     lengthDescr0 = (1u == USBFS_DmaEpBurstCnt[epNumber]) ? USBFS_DmaEpLastBurstEl[e
1522:.\Generated_Source\PSoC4/USBFS.c ****                     lengthDescr1 = (2u == USBFS_DmaEpBurstCnt[epNumber]) ? USBFS_DmaEpLastBurstEl[e
1523:.\Generated_Source\PSoC4/USBFS.c **** 
1524:.\Generated_Source\PSoC4/USBFS.c **** 
1525:.\Generated_Source\PSoC4/USBFS.c ****                     /* Mark which descriptor is last one to execute. */
1526:.\Generated_Source\PSoC4/USBFS.c ****                     USBFS_DmaEpLastBurstEl[epNumber] |= (0u != (USBFS_DmaEpBurstCnt[epNumber] & 0x1
1527:.\Generated_Source\PSoC4/USBFS.c ****                                                                             USBFS_DMA_DESCR0_MASK :
1528:.\Generated_Source\PSoC4/USBFS.c **** 
1529:.\Generated_Source\PSoC4/USBFS.c ****                     /* Adjust burst counter taking to account: 2 valid descriptors and interrupt tr
1530:.\Generated_Source\PSoC4/USBFS.c ****                     USBFS_DmaEpBurstCnt[epNumber] = USBFS_DMA_GET_BURST_CNT(USBFS_DmaEpBurstCnt[epN
1531:.\Generated_Source\PSoC4/USBFS.c **** 
1532:.\Generated_Source\PSoC4/USBFS.c ****                     /* Restore DMA settings for current transfer. */
1533:.\Generated_Source\PSoC4/USBFS.c ****                     USBFS_CyDmaChDisable(channelNum);
1534:.\Generated_Source\PSoC4/USBFS.c **** 
1535:.\Generated_Source\PSoC4/USBFS.c ****                     /* Restore destination address for input endpoint. */
1536:.\Generated_Source\PSoC4/USBFS.c ****                     USBFS_CyDmaSetSrcAddress(channelNum, USBFS_DMA_DESCR0, (void*) ((uint32) USBFS_
1537:.\Generated_Source\PSoC4/USBFS.c ****                     USBFS_CyDmaSetSrcAddress(channelNum, USBFS_DMA_DESCR1, (void*) ((uint32) USBFS_
ARM GAS  C:\Users\JAVIER~1\AppData\Local\Temp\ccfijmG3.s 			page 43


1538:.\Generated_Source\PSoC4/USBFS.c ****                                                                                                    
1539:.\Generated_Source\PSoC4/USBFS.c **** 
1540:.\Generated_Source\PSoC4/USBFS.c ****                     /* Set number of elements to transfer. */
1541:.\Generated_Source\PSoC4/USBFS.c ****                     USBFS_CyDmaSetNumDataElements(channelNum, USBFS_DMA_DESCR0, lengthDescr0);
1542:.\Generated_Source\PSoC4/USBFS.c ****                     USBFS_CyDmaSetNumDataElements(channelNum, USBFS_DMA_DESCR1, lengthDescr1);
1543:.\Generated_Source\PSoC4/USBFS.c **** 
1544:.\Generated_Source\PSoC4/USBFS.c ****                     /* Validate descriptor 0 and command to start with it. */
1545:.\Generated_Source\PSoC4/USBFS.c ****                     USBFS_CyDmaValidateDescriptor(channelNum, USBFS_DMA_DESCR0);
1546:.\Generated_Source\PSoC4/USBFS.c ****                     USBFS_CyDmaSetDescriptor0Next(channelNum);
1547:.\Generated_Source\PSoC4/USBFS.c **** 
1548:.\Generated_Source\PSoC4/USBFS.c ****                     /* Enable DMA channel: configuration complete. */
1549:.\Generated_Source\PSoC4/USBFS.c ****                     USBFS_CyDmaChEnable(channelNum);
1550:.\Generated_Source\PSoC4/USBFS.c **** 
1551:.\Generated_Source\PSoC4/USBFS.c ****                 #elif (USBFS_EP_DMA_AUTO_OPT == 0u)
1552:.\Generated_Source\PSoC4/USBFS.c ****                     USBFS_inLength[epNumber]  = length;
1553:.\Generated_Source\PSoC4/USBFS.c ****                     USBFS_inBufFull[epNumber] = 0u;
1554:.\Generated_Source\PSoC4/USBFS.c **** 
1555:.\Generated_Source\PSoC4/USBFS.c ****                     (void) CyDmaChDisable(USBFS_DmaChan[epNumber]);
1556:.\Generated_Source\PSoC4/USBFS.c ****                     /* Configure DMA to send data only for first burst. */
1557:.\Generated_Source\PSoC4/USBFS.c ****                     (void) CyDmaTdSetConfiguration(
1558:.\Generated_Source\PSoC4/USBFS.c ****                         USBFS_DmaTd[epNumber], (length > USBFS_DMA_BYTES_PER_BURST) ?
1559:.\Generated_Source\PSoC4/USBFS.c ****                         USBFS_DMA_BYTES_PER_BURST : length,
1560:.\Generated_Source\PSoC4/USBFS.c ****                         USBFS_DmaNextTd[epNumber], TD_TERMIN_EN | TD_INC_SRC_ADR );
1561:.\Generated_Source\PSoC4/USBFS.c ****                     (void) CyDmaTdSetAddress(USBFS_DmaTd[epNumber], LO16((uint32)  USBFS_inDataPoin
1562:.\Generated_Source\PSoC4/USBFS.c ****                                                                                LO16((uint32) &USBFS
1563:.\Generated_Source\PSoC4/USBFS.c ****                     /* Clear Any potential pending DMA requests before starting DMA channel to tran
1564:.\Generated_Source\PSoC4/USBFS.c ****                     (void) CyDmaClearPendingDrq(USBFS_DmaChan[epNumber]);
1565:.\Generated_Source\PSoC4/USBFS.c ****                     /* Enable DMA. */
1566:.\Generated_Source\PSoC4/USBFS.c ****                     (void) CyDmaChSetInitialTd(USBFS_DmaChan[epNumber], USBFS_DmaTd[epNumber]);
1567:.\Generated_Source\PSoC4/USBFS.c ****                     (void) CyDmaChEnable(USBFS_DmaChan[epNumber], 1u);
1568:.\Generated_Source\PSoC4/USBFS.c ****                 #endif /* (CY_PSOC4) */
1569:.\Generated_Source\PSoC4/USBFS.c **** 
1570:.\Generated_Source\PSoC4/USBFS.c ****                 #if !defined (USBFS_MANUAL_IN_EP_ARM)
1571:.\Generated_Source\PSoC4/USBFS.c ****                     /* Set IN data ready to generate DMA request to load data into endpoint buffer.
1572:.\Generated_Source\PSoC4/USBFS.c ****                     USBFS_ARB_EP_BASE.arbEp[epNumber].epCfg |= USBFS_ARB_EPX_CFG_IN_DATA_RDY;
1573:.\Generated_Source\PSoC4/USBFS.c ****                 #endif  /* (USBFS_MANUAL_IN_EP_ARM) */
1574:.\Generated_Source\PSoC4/USBFS.c **** 
1575:.\Generated_Source\PSoC4/USBFS.c ****                     /* IN endpoint will be armed in ARB_ISR(source: IN_BUF_FULL) after first DMA tr
1576:.\Generated_Source\PSoC4/USBFS.c ****                 }
1577:.\Generated_Source\PSoC4/USBFS.c ****                 else
1578:.\Generated_Source\PSoC4/USBFS.c ****                 {
1579:.\Generated_Source\PSoC4/USBFS.c ****                     /* When zero-length packet: arm IN endpoint directly. */
1580:.\Generated_Source\PSoC4/USBFS.c ****                     USBFS_SIE_EP_BASE.sieEp[epNumber].epCr0 = USBFS_EP[epNumber].epMode;
1581:.\Generated_Source\PSoC4/USBFS.c ****                 }
1582:.\Generated_Source\PSoC4/USBFS.c ****             }
1583:.\Generated_Source\PSoC4/USBFS.c ****         #endif /* (USBFS_EP_MANAGEMENT_DMA_AUTO) */
1584:.\Generated_Source\PSoC4/USBFS.c ****     #endif /* (USBFS_EP_MANAGEMENT_MANUAL) */
1585:.\Generated_Source\PSoC4/USBFS.c ****     }
1586:.\Generated_Source\PSoC4/USBFS.c **** }
 844              		.loc 1 1586 0
 845              		@ sp needed
 846 008c F0BD     		pop	{r4, r5, r6, r7, pc}
 847              	.L59:
 848 008e C046     		.align	2
 849              	.L58:
 850 0090 00000000 		.word	USBFS_EP
 851 0094 F0FF2B40 		.word	1076625392
ARM GAS  C:\Users\JAVIER~1\AppData\Local\Temp\ccfijmG3.s 			page 44


 852 0098 C0012C40 		.word	1076625856
 853              		.cfi_endproc
 854              	.LFE13:
 855              		.size	USBFS_LoadInEP, .-USBFS_LoadInEP
 856              		.section	.text.USBFS_LoadInEP16,"ax",%progbits
 857              		.align	2
 858              		.global	USBFS_LoadInEP16
 859              		.code	16
 860              		.thumb_func
 861              		.type	USBFS_LoadInEP16, %function
 862              	USBFS_LoadInEP16:
 863              	.LFB15:
1587:.\Generated_Source\PSoC4/USBFS.c **** 
1588:.\Generated_Source\PSoC4/USBFS.c **** 
1589:.\Generated_Source\PSoC4/USBFS.c **** /*******************************************************************************
1590:.\Generated_Source\PSoC4/USBFS.c **** * Function Name: USBFS_ReadOutEP
1591:.\Generated_Source\PSoC4/USBFS.c **** ****************************************************************************//**
1592:.\Generated_Source\PSoC4/USBFS.c **** *
1593:.\Generated_Source\PSoC4/USBFS.c **** *   This function performs different functionality depending on the Component’s
1594:.\Generated_Source\PSoC4/USBFS.c **** *   configured Endpoint Buffer Management. This parameter is defined in the
1595:.\Generated_Source\PSoC4/USBFS.c **** *   Descriptor Root in Component Configure window.
1596:.\Generated_Source\PSoC4/USBFS.c **** *
1597:.\Generated_Source\PSoC4/USBFS.c **** *   *Manual (Static/Dynamic Allocation):*
1598:.\Generated_Source\PSoC4/USBFS.c **** *   This function moves the specified number of bytes from endpoint buffer to
1599:.\Generated_Source\PSoC4/USBFS.c **** *   system RAM. The number of bytes actually transferred from endpoint buffer to
1600:.\Generated_Source\PSoC4/USBFS.c **** *   system RAM is the lesser of the actual number of bytes sent by the host or
1601:.\Generated_Source\PSoC4/USBFS.c **** *   the number of bytes requested by the length parameter.
1602:.\Generated_Source\PSoC4/USBFS.c **** *
1603:.\Generated_Source\PSoC4/USBFS.c **** *   *DMA with Manual Buffer Management:*
1604:.\Generated_Source\PSoC4/USBFS.c **** *   Configure DMA to transfer data from endpoint buffer to system RAM. Generate
1605:.\Generated_Source\PSoC4/USBFS.c **** *   a DMA request. The firmware must wait until the DMA completes the data
1606:.\Generated_Source\PSoC4/USBFS.c **** *   transfer after calling the USBFS_ReadOutEP() API. For example,
1607:.\Generated_Source\PSoC4/USBFS.c **** *   by checking EPstate:
1608:.\Generated_Source\PSoC4/USBFS.c **** *
1609:.\Generated_Source\PSoC4/USBFS.c **** *   \snippet /USBFS_sut_02.cydsn/main.c checking EPstatey
1610:.\Generated_Source\PSoC4/USBFS.c **** *
1611:.\Generated_Source\PSoC4/USBFS.c **** *   The USBFS_EnableOutEP() has to be called to allow host to write data into
1612:.\Generated_Source\PSoC4/USBFS.c **** *   the endpoint buffer after DMA has completed transfer data from OUT endpoint
1613:.\Generated_Source\PSoC4/USBFS.c **** *   buffer to SRAM.
1614:.\Generated_Source\PSoC4/USBFS.c **** *
1615:.\Generated_Source\PSoC4/USBFS.c **** *   *DMA with Automatic Buffer Management:*
1616:.\Generated_Source\PSoC4/USBFS.c **** *   Configure DMA. This is required only once and automatically generates DMA
1617:.\Generated_Source\PSoC4/USBFS.c **** *   requests as data arrives
1618:.\Generated_Source\PSoC4/USBFS.c **** *
1619:.\Generated_Source\PSoC4/USBFS.c **** *  \param epNumber: Contains the data endpoint number.
1620:.\Generated_Source\PSoC4/USBFS.c **** *            Valid values are between 1 and 8.
1621:.\Generated_Source\PSoC4/USBFS.c **** *  \param pData: A pointer to a data array from which the data for the endpoint
1622:.\Generated_Source\PSoC4/USBFS.c **** *         space is loaded.
1623:.\Generated_Source\PSoC4/USBFS.c **** *  \param length: The number of bytes to transfer from the USB Out endpoint and
1624:.\Generated_Source\PSoC4/USBFS.c **** *          loads it into data array. Valid values are between 0 and 1023. The
1625:.\Generated_Source\PSoC4/USBFS.c **** *          function moves fewer than the requested number of bytes if the host
1626:.\Generated_Source\PSoC4/USBFS.c **** *          sends fewer bytes than requested.
1627:.\Generated_Source\PSoC4/USBFS.c **** *
1628:.\Generated_Source\PSoC4/USBFS.c **** * \return
1629:.\Generated_Source\PSoC4/USBFS.c **** *  Number of bytes received, 0 for an invalid endpoint.
1630:.\Generated_Source\PSoC4/USBFS.c **** *
1631:.\Generated_Source\PSoC4/USBFS.c **** * \reentrant
ARM GAS  C:\Users\JAVIER~1\AppData\Local\Temp\ccfijmG3.s 			page 45


1632:.\Generated_Source\PSoC4/USBFS.c **** *  No.
1633:.\Generated_Source\PSoC4/USBFS.c **** *
1634:.\Generated_Source\PSoC4/USBFS.c **** *******************************************************************************/
1635:.\Generated_Source\PSoC4/USBFS.c **** uint16 USBFS_ReadOutEP(uint8 epNumber, uint8 pData[], uint16 length)
1636:.\Generated_Source\PSoC4/USBFS.c ****                                                                         
1637:.\Generated_Source\PSoC4/USBFS.c **** {
1638:.\Generated_Source\PSoC4/USBFS.c ****     if ((pData != NULL) && (epNumber > USBFS_EP0) && (epNumber < USBFS_MAX_EP))
1639:.\Generated_Source\PSoC4/USBFS.c ****     {
1640:.\Generated_Source\PSoC4/USBFS.c ****     #if (!USBFS_EP_MANAGEMENT_DMA_AUTO)
1641:.\Generated_Source\PSoC4/USBFS.c ****         /* Adjust requested length to available data. */
1642:.\Generated_Source\PSoC4/USBFS.c ****         length = (length > USBFS_GetEPCount(epNumber)) ? USBFS_GetEPCount(epNumber) : length;
1643:.\Generated_Source\PSoC4/USBFS.c ****     #endif /* (!USBFS_EP_MANAGEMENT_DMA_AUTO) */
1644:.\Generated_Source\PSoC4/USBFS.c **** 
1645:.\Generated_Source\PSoC4/USBFS.c ****     #if (USBFS_EP_MANAGEMENT_MANUAL)
1646:.\Generated_Source\PSoC4/USBFS.c ****         {
1647:.\Generated_Source\PSoC4/USBFS.c ****             /* Copy data using arbiter data register. */
1648:.\Generated_Source\PSoC4/USBFS.c ****             uint16 i;
1649:.\Generated_Source\PSoC4/USBFS.c ****             for (i = 0u; i < length; ++i)
1650:.\Generated_Source\PSoC4/USBFS.c ****             {
1651:.\Generated_Source\PSoC4/USBFS.c ****                 pData[i] = (uint8) USBFS_ARB_EP_BASE.arbEp[epNumber].rwDr;
1652:.\Generated_Source\PSoC4/USBFS.c ****             }
1653:.\Generated_Source\PSoC4/USBFS.c ****         }
1654:.\Generated_Source\PSoC4/USBFS.c **** 
1655:.\Generated_Source\PSoC4/USBFS.c ****         /* Arm OUT endpoint after data has been copied from endpoint buffer. */
1656:.\Generated_Source\PSoC4/USBFS.c ****         USBFS_EnableOutEP(epNumber);
1657:.\Generated_Source\PSoC4/USBFS.c ****     #else
1658:.\Generated_Source\PSoC4/USBFS.c **** 
1659:.\Generated_Source\PSoC4/USBFS.c ****         #if (CY_PSOC3 || CY_PSOC5LP)
1660:.\Generated_Source\PSoC4/USBFS.c ****             /* Initialize DMA if it was not initialized. */
1661:.\Generated_Source\PSoC4/USBFS.c ****             if (DMA_INVALID_TD == USBFS_DmaTd[epNumber])
1662:.\Generated_Source\PSoC4/USBFS.c ****             {
1663:.\Generated_Source\PSoC4/USBFS.c ****                 USBFS_InitEP_DMA(epNumber, pData);
1664:.\Generated_Source\PSoC4/USBFS.c ****             }
1665:.\Generated_Source\PSoC4/USBFS.c ****         #endif /* (CY_PSOC3 || CY_PSOC5LP) */
1666:.\Generated_Source\PSoC4/USBFS.c **** 
1667:.\Generated_Source\PSoC4/USBFS.c ****         #if (USBFS_EP_MANAGEMENT_DMA_MANUAL)
1668:.\Generated_Source\PSoC4/USBFS.c ****         #if (CY_PSOC4)
1669:.\Generated_Source\PSoC4/USBFS.c ****         {
1670:.\Generated_Source\PSoC4/USBFS.c ****             uint32 channelNum = (uint32) USBFS_DmaChan[epNumber];
1671:.\Generated_Source\PSoC4/USBFS.c **** 
1672:.\Generated_Source\PSoC4/USBFS.c ****             /* Disable DMA channel: start configuration. */
1673:.\Generated_Source\PSoC4/USBFS.c ****             USBFS_CyDmaChDisable(channelNum);
1674:.\Generated_Source\PSoC4/USBFS.c **** 
1675:.\Generated_Source\PSoC4/USBFS.c ****             /* Configure source and destination. */
1676:.\Generated_Source\PSoC4/USBFS.c ****             USBFS_CyDmaSetSrcAddress(channelNum, USBFS_DMA_DESCR0, (void*) &USBFS_ARB_EP_BASE.arbEp
1677:.\Generated_Source\PSoC4/USBFS.c ****             USBFS_CyDmaSetDstAddress(channelNum, USBFS_DMA_DESCR0, (void*) pData);
1678:.\Generated_Source\PSoC4/USBFS.c **** 
1679:.\Generated_Source\PSoC4/USBFS.c ****             /* Configure DMA descriptor. */
1680:.\Generated_Source\PSoC4/USBFS.c ****             USBFS_CyDmaSetConfiguration(channelNum, USBFS_DMA_DESCR0, USBFS_DMA_COMMON_CFG | (uint1
1681:.\Generated_Source\PSoC4/USBFS.c ****                                                     CYDMA_BYTE | CYDMA_WORD_ELEMENT | CYDMA_INC_DST
1682:.\Generated_Source\PSoC4/USBFS.c **** 
1683:.\Generated_Source\PSoC4/USBFS.c ****             /* Validate descriptor to execute on following DMA request. */
1684:.\Generated_Source\PSoC4/USBFS.c ****             USBFS_CyDmaValidateDescriptor(channelNum, USBFS_DMA_DESCR0);
1685:.\Generated_Source\PSoC4/USBFS.c **** 
1686:.\Generated_Source\PSoC4/USBFS.c ****             /* Enable DMA channel: configuration complete. */
1687:.\Generated_Source\PSoC4/USBFS.c ****             USBFS_CyDmaChEnable(channelNum);
1688:.\Generated_Source\PSoC4/USBFS.c ****         }
ARM GAS  C:\Users\JAVIER~1\AppData\Local\Temp\ccfijmG3.s 			page 46


1689:.\Generated_Source\PSoC4/USBFS.c ****         #else
1690:.\Generated_Source\PSoC4/USBFS.c ****             /* Configure DMA to transfer data. */
1691:.\Generated_Source\PSoC4/USBFS.c ****             (void) CyDmaChDisable(USBFS_DmaChan[epNumber]);
1692:.\Generated_Source\PSoC4/USBFS.c ****             (void) CyDmaTdSetConfiguration(USBFS_DmaTd[epNumber], length, CY_DMA_DISABLE_TD, TD_TER
1693:.\Generated_Source\PSoC4/USBFS.c ****             (void) CyDmaTdSetAddress(USBFS_DmaTd[epNumber], LO16((uint32) &USBFS_ARB_EP_BASE.arbEp[
1694:.\Generated_Source\PSoC4/USBFS.c **** 
1695:.\Generated_Source\PSoC4/USBFS.c ****             /* Enable DMA channel. */
1696:.\Generated_Source\PSoC4/USBFS.c ****             (void) CyDmaChSetInitialTd(USBFS_DmaChan[epNumber], USBFS_DmaTd[epNumber]);
1697:.\Generated_Source\PSoC4/USBFS.c ****             (void) CyDmaChEnable(USBFS_DmaChan[epNumber], 1u);
1698:.\Generated_Source\PSoC4/USBFS.c ****         #endif /* (CY_PSOC4) */
1699:.\Generated_Source\PSoC4/USBFS.c **** 
1700:.\Generated_Source\PSoC4/USBFS.c ****             /* Generate DMA request. */
1701:.\Generated_Source\PSoC4/USBFS.c ****             USBFS_ARB_EP_BASE.arbEp[epNumber].epCfg |=  (uint32)  USBFS_ARB_EPX_CFG_DMA_REQ;
1702:.\Generated_Source\PSoC4/USBFS.c ****             USBFS_ARB_EP_BASE.arbEp[epNumber].epCfg &=  (uint32) ~USBFS_ARB_EPX_CFG_DMA_REQ;
1703:.\Generated_Source\PSoC4/USBFS.c **** 
1704:.\Generated_Source\PSoC4/USBFS.c ****             /* OUT endpoint has to be armed again by user when DMA transfers have been completed.
1705:.\Generated_Source\PSoC4/USBFS.c ****             * NO_EVENT_PENDING: notifies that data has been copied from endpoint buffer.
1706:.\Generated_Source\PSoC4/USBFS.c ****             */
1707:.\Generated_Source\PSoC4/USBFS.c **** 
1708:.\Generated_Source\PSoC4/USBFS.c ****         #endif /* (USBFS_EP_MANAGEMENT_DMA_MANUAL) */
1709:.\Generated_Source\PSoC4/USBFS.c **** 
1710:.\Generated_Source\PSoC4/USBFS.c ****         #if (USBFS_EP_MANAGEMENT_DMA_AUTO)
1711:.\Generated_Source\PSoC4/USBFS.c ****         #if (CY_PSOC4)
1712:.\Generated_Source\PSoC4/USBFS.c ****         {
1713:.\Generated_Source\PSoC4/USBFS.c ****             uint32 channelNum = (uint32) USBFS_DmaChan[epNumber];
1714:.\Generated_Source\PSoC4/USBFS.c ****             uint32 lengthDescr0, lengthDescr1;
1715:.\Generated_Source\PSoC4/USBFS.c **** 
1716:.\Generated_Source\PSoC4/USBFS.c ****             /* Get number of full bursts. */
1717:.\Generated_Source\PSoC4/USBFS.c ****             USBFS_DmaEpBurstCnt[epNumber] = (uint8) (length / USBFS_DMA_BYTES_PER_BURST);
1718:.\Generated_Source\PSoC4/USBFS.c **** 
1719:.\Generated_Source\PSoC4/USBFS.c ****             /* Get number of elements in the last burst. */
1720:.\Generated_Source\PSoC4/USBFS.c ****             USBFS_DmaEpLastBurstEl[epNumber] = (uint8) (length % USBFS_DMA_BYTES_PER_BURST);
1721:.\Generated_Source\PSoC4/USBFS.c **** 
1722:.\Generated_Source\PSoC4/USBFS.c ****             /* Get total number of bursts. */
1723:.\Generated_Source\PSoC4/USBFS.c ****             USBFS_DmaEpBurstCnt[epNumber] += (0u != USBFS_DmaEpLastBurstEl[epNumber]) ? 1u : 0u;
1724:.\Generated_Source\PSoC4/USBFS.c **** 
1725:.\Generated_Source\PSoC4/USBFS.c ****             /* Adjust number of the data elements transfered in last burst. */
1726:.\Generated_Source\PSoC4/USBFS.c ****             USBFS_DmaEpLastBurstEl[epNumber] = (0u != USBFS_DmaEpLastBurstEl[epNumber]) ?
1727:.\Generated_Source\PSoC4/USBFS.c ****                                                                   (USBFS_DmaEpLastBurstEl[epNumber]
1728:.\Generated_Source\PSoC4/USBFS.c ****                                                                   (USBFS_DMA_BYTES_PER_BURST - 1u);
1729:.\Generated_Source\PSoC4/USBFS.c **** 
1730:.\Generated_Source\PSoC4/USBFS.c ****             /* Get number of data elements to transfer for descriptor 0 and 1. */
1731:.\Generated_Source\PSoC4/USBFS.c ****             lengthDescr0 = (1u == USBFS_DmaEpBurstCnt[epNumber]) ? USBFS_DmaEpLastBurstEl[epNumber]
1732:.\Generated_Source\PSoC4/USBFS.c ****             lengthDescr1 = (2u == USBFS_DmaEpBurstCnt[epNumber]) ? USBFS_DmaEpLastBurstEl[epNumber]
1733:.\Generated_Source\PSoC4/USBFS.c **** 
1734:.\Generated_Source\PSoC4/USBFS.c ****             /* Mark if revert number of data elements in descriptor after transfer completion. */
1735:.\Generated_Source\PSoC4/USBFS.c ****             USBFS_DmaEpLastBurstEl[epNumber] |= (USBFS_DmaEpBurstCnt[epNumber] > 2u) ? USBFS_DMA_DE
1736:.\Generated_Source\PSoC4/USBFS.c **** 
1737:.\Generated_Source\PSoC4/USBFS.c ****             /* Mark last descriptor to be executed. */
1738:.\Generated_Source\PSoC4/USBFS.c ****             USBFS_DmaEpLastBurstEl[epNumber] |= (0u != (USBFS_DmaEpBurstCnt[epNumber] & 0x1u)) ?
1739:.\Generated_Source\PSoC4/USBFS.c ****                                                                     USBFS_DMA_DESCR0_MASK : USBFS_D
1740:.\Generated_Source\PSoC4/USBFS.c **** 
1741:.\Generated_Source\PSoC4/USBFS.c ****             /* Adjust burst counter taking to account: 2 valid descriptors and interrupt trigger af
1742:.\Generated_Source\PSoC4/USBFS.c ****             USBFS_DmaEpBurstCnt[epNumber] = USBFS_DMA_GET_BURST_CNT(USBFS_DmaEpBurstCnt[epNumber]);
1743:.\Generated_Source\PSoC4/USBFS.c **** 
1744:.\Generated_Source\PSoC4/USBFS.c ****             /* Store address of buffer and burst counter for endpoint. */
1745:.\Generated_Source\PSoC4/USBFS.c ****             USBFS_DmaEpBufferAddrBackup[epNumber] = (uint32) pData;
ARM GAS  C:\Users\JAVIER~1\AppData\Local\Temp\ccfijmG3.s 			page 47


1746:.\Generated_Source\PSoC4/USBFS.c ****             USBFS_DmaEpBurstCntBackup[epNumber]   = USBFS_DmaEpBurstCnt[epNumber];
1747:.\Generated_Source\PSoC4/USBFS.c **** 
1748:.\Generated_Source\PSoC4/USBFS.c ****             /* Disable DMA channel: start configuration. */
1749:.\Generated_Source\PSoC4/USBFS.c ****             USBFS_CyDmaChDisable(channelNum);
1750:.\Generated_Source\PSoC4/USBFS.c **** 
1751:.\Generated_Source\PSoC4/USBFS.c ****             /* Set destination address. */
1752:.\Generated_Source\PSoC4/USBFS.c ****             USBFS_CyDmaSetSrcAddress(channelNum, USBFS_DMA_DESCR0, (void*) &USBFS_ARB_EP_BASE.arbEp
1753:.\Generated_Source\PSoC4/USBFS.c ****             USBFS_CyDmaSetSrcAddress(channelNum, USBFS_DMA_DESCR1, (void*) &USBFS_ARB_EP_BASE.arbEp
1754:.\Generated_Source\PSoC4/USBFS.c **** 
1755:.\Generated_Source\PSoC4/USBFS.c ****             USBFS_CyDmaSetDstAddress(channelNum, USBFS_DMA_DESCR0, (void*) ((uint32) pData));
1756:.\Generated_Source\PSoC4/USBFS.c ****             USBFS_CyDmaSetDstAddress(channelNum, USBFS_DMA_DESCR1, (void*) ((uint32) pData + USBFS_
1757:.\Generated_Source\PSoC4/USBFS.c **** 
1758:.\Generated_Source\PSoC4/USBFS.c ****             /* Configure DMA descriptor. */
1759:.\Generated_Source\PSoC4/USBFS.c ****             USBFS_CyDmaSetConfiguration(channelNum, USBFS_DMA_DESCR0, USBFS_DMA_COMMON_CFG  | lengt
1760:.\Generated_Source\PSoC4/USBFS.c ****                                                     CYDMA_BYTE | CYDMA_WORD_ELEMENT | CYDMA_INC_DST
1761:.\Generated_Source\PSoC4/USBFS.c **** 
1762:.\Generated_Source\PSoC4/USBFS.c ****             /* Configure DMA descriptor. */
1763:.\Generated_Source\PSoC4/USBFS.c ****             USBFS_CyDmaSetConfiguration(channelNum, USBFS_DMA_DESCR1, USBFS_DMA_COMMON_CFG  | lengt
1764:.\Generated_Source\PSoC4/USBFS.c ****                                                     CYDMA_BYTE | CYDMA_WORD_ELEMENT | CYDMA_INC_DST
1765:.\Generated_Source\PSoC4/USBFS.c **** 
1766:.\Generated_Source\PSoC4/USBFS.c ****             /* Enable interrupt from DMA channel. */
1767:.\Generated_Source\PSoC4/USBFS.c ****             USBFS_CyDmaSetInterruptMask(channelNum);
1768:.\Generated_Source\PSoC4/USBFS.c **** 
1769:.\Generated_Source\PSoC4/USBFS.c ****             /* Validate DMA descriptor 0 and 1. */
1770:.\Generated_Source\PSoC4/USBFS.c ****             USBFS_CyDmaValidateDescriptor(channelNum, USBFS_DMA_DESCR0);
1771:.\Generated_Source\PSoC4/USBFS.c ****             USBFS_CyDmaValidateDescriptor(channelNum, USBFS_DMA_DESCR1);
1772:.\Generated_Source\PSoC4/USBFS.c **** 
1773:.\Generated_Source\PSoC4/USBFS.c ****             /* Enable DMA channel: configuration complete. */
1774:.\Generated_Source\PSoC4/USBFS.c ****             USBFS_CyDmaChEnable(channelNum);
1775:.\Generated_Source\PSoC4/USBFS.c ****         }
1776:.\Generated_Source\PSoC4/USBFS.c ****         #else
1777:.\Generated_Source\PSoC4/USBFS.c ****             (void) CyDmaChDisable(USBFS_DmaChan[epNumber]);
1778:.\Generated_Source\PSoC4/USBFS.c ****             (void) CyDmaTdSetConfiguration(USBFS_DmaTd[epNumber], length,  USBFS_DmaTd[epNumber], T
1779:.\Generated_Source\PSoC4/USBFS.c ****             (void) CyDmaTdSetAddress(USBFS_DmaTd[epNumber], LO16((uint32) &USBFS_ARB_EP_BASE.arbEp[
1780:.\Generated_Source\PSoC4/USBFS.c **** 
1781:.\Generated_Source\PSoC4/USBFS.c ****             /* Clear Any potential pending DMA requests before starting DMA channel to transfer dat
1782:.\Generated_Source\PSoC4/USBFS.c ****             (void) CyDmaClearPendingDrq(USBFS_DmaChan[epNumber]);
1783:.\Generated_Source\PSoC4/USBFS.c **** 
1784:.\Generated_Source\PSoC4/USBFS.c ****             /* Enable DMA channel. */
1785:.\Generated_Source\PSoC4/USBFS.c ****             (void) CyDmaChSetInitialTd(USBFS_DmaChan[epNumber], USBFS_DmaTd[epNumber]);
1786:.\Generated_Source\PSoC4/USBFS.c ****             (void) CyDmaChEnable(USBFS_DmaChan[epNumber], 1u);
1787:.\Generated_Source\PSoC4/USBFS.c ****         #endif /* (CY_PSOC4) */
1788:.\Generated_Source\PSoC4/USBFS.c **** 
1789:.\Generated_Source\PSoC4/USBFS.c ****             /* OUT endpoint has to be armed again by user when DMA transfers have been completed.
1790:.\Generated_Source\PSoC4/USBFS.c ****             * NO_EVENT_PENDING: notifies that data has been copied from endpoint buffer.
1791:.\Generated_Source\PSoC4/USBFS.c ****             */
1792:.\Generated_Source\PSoC4/USBFS.c **** 
1793:.\Generated_Source\PSoC4/USBFS.c ****         #endif /* (USBFS_EP_MANAGEMENT_DMA_AUTO) */
1794:.\Generated_Source\PSoC4/USBFS.c ****     #endif /* (USBFS_EP_MANAGEMENT_MANUAL) */
1795:.\Generated_Source\PSoC4/USBFS.c ****     }
1796:.\Generated_Source\PSoC4/USBFS.c ****     else
1797:.\Generated_Source\PSoC4/USBFS.c ****     {
1798:.\Generated_Source\PSoC4/USBFS.c ****         length = 0u;
1799:.\Generated_Source\PSoC4/USBFS.c ****     }
1800:.\Generated_Source\PSoC4/USBFS.c **** 
1801:.\Generated_Source\PSoC4/USBFS.c ****     return (length);
1802:.\Generated_Source\PSoC4/USBFS.c **** }
ARM GAS  C:\Users\JAVIER~1\AppData\Local\Temp\ccfijmG3.s 			page 48


1803:.\Generated_Source\PSoC4/USBFS.c **** 
1804:.\Generated_Source\PSoC4/USBFS.c **** 
1805:.\Generated_Source\PSoC4/USBFS.c **** #if (USBFS_16BITS_EP_ACCESS_ENABLE)
1806:.\Generated_Source\PSoC4/USBFS.c **** /*******************************************************************************
1807:.\Generated_Source\PSoC4/USBFS.c **** * Function Name: USBFS_LoadInEP16
1808:.\Generated_Source\PSoC4/USBFS.c **** ****************************************************************************//**
1809:.\Generated_Source\PSoC4/USBFS.c **** *
1810:.\Generated_Source\PSoC4/USBFS.c **** *  This function performs different functionality depending on the Component’s
1811:.\Generated_Source\PSoC4/USBFS.c **** *  configured Endpoint Buffer Management. This parameter is defined in
1812:.\Generated_Source\PSoC4/USBFS.c **** *  the Descriptor Root in Component Configure window.
1813:.\Generated_Source\PSoC4/USBFS.c **** *
1814:.\Generated_Source\PSoC4/USBFS.c **** *  *Manual (Static/Dynamic Allocation):*
1815:.\Generated_Source\PSoC4/USBFS.c **** *  This function loads and enables the specified USB data endpoint for an IN
1816:.\Generated_Source\PSoC4/USBFS.c **** *  data transfer.
1817:.\Generated_Source\PSoC4/USBFS.c **** *
1818:.\Generated_Source\PSoC4/USBFS.c **** *  *DMA with Manual Buffer Management:*
1819:.\Generated_Source\PSoC4/USBFS.c **** *  Configures DMA for a data transfer from system RAM to endpoint buffer.
1820:.\Generated_Source\PSoC4/USBFS.c **** *  Generates request for a transfer.
1821:.\Generated_Source\PSoC4/USBFS.c **** *
1822:.\Generated_Source\PSoC4/USBFS.c **** *  *DMA with Automatic Buffer Management:*
1823:.\Generated_Source\PSoC4/USBFS.c **** *  Configures DMA. This is required only once, so it is done only when parameter
1824:.\Generated_Source\PSoC4/USBFS.c **** *  pData is not NULL. When the pData pointer is NULL, the function skips this
1825:.\Generated_Source\PSoC4/USBFS.c **** *  task. Sets Data ready status: This generates the first DMA transfer and
1826:.\Generated_Source\PSoC4/USBFS.c **** *  prepares data in endpoint buffer.
1827:.\Generated_Source\PSoC4/USBFS.c **** *
1828:.\Generated_Source\PSoC4/USBFS.c **** *  \param epNumber Contains the data endpoint number.
1829:.\Generated_Source\PSoC4/USBFS.c **** *        Valid values are between 1 and 8.
1830:.\Generated_Source\PSoC4/USBFS.c **** *  \param *pData A pointer to a data array from which the data for the endpoint
1831:.\Generated_Source\PSoC4/USBFS.c **** *        space is loaded. It shall be ensured that this pointer address is even
1832:.\Generated_Source\PSoC4/USBFS.c **** *        to ensure the 16-bit transfer is aligned to even address. Else, a hard
1833:.\Generated_Source\PSoC4/USBFS.c **** *        fault condition can occur.
1834:.\Generated_Source\PSoC4/USBFS.c **** *  \param length The number of bytes to transfer from the array and then send as
1835:.\Generated_Source\PSoC4/USBFS.c **** *        a result of an IN request. Valid values are between 0 and 512 (1023 for
1836:.\Generated_Source\PSoC4/USBFS.c **** *        DMA with Automatic Buffer Management mode). The value 512 is applicable
1837:.\Generated_Source\PSoC4/USBFS.c **** *        if only one endpoint is used.
1838:.\Generated_Source\PSoC4/USBFS.c **** *
1839:.\Generated_Source\PSoC4/USBFS.c **** * \reentrant
1840:.\Generated_Source\PSoC4/USBFS.c **** *  No.
1841:.\Generated_Source\PSoC4/USBFS.c **** *
1842:.\Generated_Source\PSoC4/USBFS.c **** *******************************************************************************/
1843:.\Generated_Source\PSoC4/USBFS.c **** void USBFS_LoadInEP16(uint8 epNumber, const uint8 pData[], uint16 length)
1844:.\Generated_Source\PSoC4/USBFS.c **** {
 864              		.loc 1 1844 0
 865              		.cfi_startproc
 866              	.LVL62:
 867 0000 F8B5     		push	{r3, r4, r5, r6, r7, lr}
 868              		.cfi_def_cfa_offset 24
 869              		.cfi_offset 3, -24
 870              		.cfi_offset 4, -20
 871              		.cfi_offset 5, -16
 872              		.cfi_offset 6, -12
 873              		.cfi_offset 7, -8
 874              		.cfi_offset 14, -4
 875 0002 051C     		mov	r5, r0
 876 0004 0E1C     		mov	r6, r1
 877 0006 141C     		mov	r4, r2
1845:.\Generated_Source\PSoC4/USBFS.c ****     /* Check array alignment on half-word boundary. */
ARM GAS  C:\Users\JAVIER~1\AppData\Local\Temp\ccfijmG3.s 			page 49


1846:.\Generated_Source\PSoC4/USBFS.c ****     CYASSERT(0u == (((uint32) pData) & 0x01u));
 878              		.loc 1 1846 0
 879 0008 CB07     		lsl	r3, r1, #31
 880 000a 02D5     		bpl	.L61
 881              		.loc 1 1846 0 is_stmt 0 discriminator 1
 882 000c 0020     		mov	r0, #0
 883              	.LVL63:
 884 000e FFF7FEFF 		bl	CyHalt
 885              	.LVL64:
 886              	.L61:
1847:.\Generated_Source\PSoC4/USBFS.c **** 
1848:.\Generated_Source\PSoC4/USBFS.c ****     if ((epNumber > USBFS_EP0) && (epNumber < USBFS_MAX_EP))
 887              		.loc 1 1848 0 is_stmt 1
 888 0012 6B1E     		sub	r3, r5, #1
 889 0014 072B     		cmp	r3, #7
 890 0016 47D8     		bhi	.L60
1849:.\Generated_Source\PSoC4/USBFS.c ****     {
1850:.\Generated_Source\PSoC4/USBFS.c ****     #if (!USBFS_EP_MANAGEMENT_DMA_AUTO)
1851:.\Generated_Source\PSoC4/USBFS.c ****         /* Limit length to available buffer USB IP buffer size. */
1852:.\Generated_Source\PSoC4/USBFS.c ****         if (length > (USBFS_EPX_DATA_BUF_MAX - USBFS_EP[epNumber].buffOffset))
 891              		.loc 1 1852 0
 892 0018 2F1C     		mov	r7, r5
 893 001a 6B00     		lsl	r3, r5, #1
 894 001c 5B19     		add	r3, r3, r5
 895 001e 9B00     		lsl	r3, r3, #2
 896 0020 224A     		ldr	r2, .L68
 897 0022 D318     		add	r3, r2, r3
 898 0024 DA88     		ldrh	r2, [r3, #6]
 899 0026 8023     		mov	r3, #128
 900 0028 9B00     		lsl	r3, r3, #2
 901 002a 9B1A     		sub	r3, r3, r2
 902 002c 9C42     		cmp	r4, r3
 903 002e 09D9     		bls	.L63
1853:.\Generated_Source\PSoC4/USBFS.c ****         {
1854:.\Generated_Source\PSoC4/USBFS.c ****             length = USBFS_EPX_DATA_BUF_MAX - USBFS_EP[epNumber].buffOffset;
 904              		.loc 1 1854 0
 905 0030 6B00     		lsl	r3, r5, #1
 906 0032 5B19     		add	r3, r3, r5
 907 0034 9B00     		lsl	r3, r3, #2
 908 0036 1D4A     		ldr	r2, .L68
 909 0038 D318     		add	r3, r2, r3
 910 003a DC88     		ldrh	r4, [r3, #6]
 911 003c 8023     		mov	r3, #128
 912 003e 9B00     		lsl	r3, r3, #2
 913 0040 1C1B     		sub	r4, r3, r4
 914 0042 A4B2     		uxth	r4, r4
 915              	.LVL65:
 916              	.L63:
1855:.\Generated_Source\PSoC4/USBFS.c ****         }
1856:.\Generated_Source\PSoC4/USBFS.c ****     #endif /* (!USBFS_EP_MANAGEMENT_DMA_AUTO) */
1857:.\Generated_Source\PSoC4/USBFS.c **** 
1858:.\Generated_Source\PSoC4/USBFS.c ****         /* Set count and data toggle. */
1859:.\Generated_Source\PSoC4/USBFS.c ****         USBFS_SIE_EP_BASE.sieEp[epNumber].epCnt0 = (uint32) HI8(length) | USBFS_EP[epNumber].epTogg
 917              		.loc 1 1859 0
 918 0044 220A     		lsr	r2, r4, #8
 919 0046 6B00     		lsl	r3, r5, #1
 920 0048 5B19     		add	r3, r3, r5
ARM GAS  C:\Users\JAVIER~1\AppData\Local\Temp\ccfijmG3.s 			page 50


 921 004a 9B00     		lsl	r3, r3, #2
 922 004c 1749     		ldr	r1, .L68
 923 004e CB18     		add	r3, r1, r3
 924 0050 DB78     		ldrb	r3, [r3, #3]
 925 0052 1A43     		orr	r2, r3
 926 0054 AB01     		lsl	r3, r5, #6
 927 0056 1649     		ldr	r1, .L68+4
 928 0058 5A50     		str	r2, [r3, r1]
1860:.\Generated_Source\PSoC4/USBFS.c ****         USBFS_SIE_EP_BASE.sieEp[epNumber].epCnt1 = (uint32) LO8(length);
 929              		.loc 1 1860 0
 930 005a E2B2     		uxtb	r2, r4
 931 005c 8C46     		mov	ip, r1
 932 005e 6344     		add	r3, r3, ip
 933 0060 5A60     		str	r2, [r3, #4]
1861:.\Generated_Source\PSoC4/USBFS.c **** 
1862:.\Generated_Source\PSoC4/USBFS.c ****         /* Adjust requested length: 2 bytes are handled at one data register access. */
1863:.\Generated_Source\PSoC4/USBFS.c ****         length += (length & 0x01u);
 934              		.loc 1 1863 0
 935 0062 0122     		mov	r2, #1
 936 0064 2240     		and	r2, r4
 937 0066 1219     		add	r2, r2, r4
 938 0068 92B2     		uxth	r2, r2
 939              	.LVL66:
1864:.\Generated_Source\PSoC4/USBFS.c **** 
1865:.\Generated_Source\PSoC4/USBFS.c ****     #if (USBFS_EP_MANAGEMENT_MANUAL)
1866:.\Generated_Source\PSoC4/USBFS.c ****         if (NULL != pData)
 940              		.loc 1 1866 0
 941 006a 002E     		cmp	r6, #0
 942 006c 0AD1     		bne	.L67
 943              	.LBB4:
 944 006e 0DE0     		b	.L65
 945              	.LVL67:
 946              	.L66:
1867:.\Generated_Source\PSoC4/USBFS.c ****         {
1868:.\Generated_Source\PSoC4/USBFS.c ****             /* Convert uint8 array to uint16. */
1869:.\Generated_Source\PSoC4/USBFS.c ****             const uint16 *dataBuf = (uint16 *) pData;
1870:.\Generated_Source\PSoC4/USBFS.c **** 
1871:.\Generated_Source\PSoC4/USBFS.c ****             /* Copy data using 16-bits arbiter data register. */
1872:.\Generated_Source\PSoC4/USBFS.c ****             uint16 i;
1873:.\Generated_Source\PSoC4/USBFS.c ****             for (i = 0u; i < (length >> 1u); ++i)
1874:.\Generated_Source\PSoC4/USBFS.c ****             {
1875:.\Generated_Source\PSoC4/USBFS.c ****                 USBFS_ARB_EP16_BASE.arbEp[epNumber].rwDr16 = dataBuf[i];
 947              		.loc 1 1875 0 discriminator 3
 948 0070 5900     		lsl	r1, r3, #1
 949 0072 885B     		ldrh	r0, [r1, r6]
 950 0074 B901     		lsl	r1, r7, #6
 951 0076 0F4C     		ldr	r4, .L68+8
 952 0078 A446     		mov	ip, r4
 953 007a 6144     		add	r1, r1, ip
 954 007c 0861     		str	r0, [r1, #16]
1873:.\Generated_Source\PSoC4/USBFS.c ****             {
 955              		.loc 1 1873 0 discriminator 3
 956 007e 0133     		add	r3, r3, #1
 957              	.LVL68:
 958 0080 9BB2     		uxth	r3, r3
 959              	.LVL69:
 960 0082 00E0     		b	.L64
ARM GAS  C:\Users\JAVIER~1\AppData\Local\Temp\ccfijmG3.s 			page 51


 961              	.LVL70:
 962              	.L67:
 963              	.LBE4:
 964 0084 0023     		mov	r3, #0
 965              	.L64:
 966              	.LVL71:
 967              	.LBB5:
1873:.\Generated_Source\PSoC4/USBFS.c ****             {
 968              		.loc 1 1873 0 is_stmt 0 discriminator 1
 969 0086 5108     		lsr	r1, r2, #1
 970 0088 9942     		cmp	r1, r3
 971 008a F1D8     		bhi	.L66
 972              	.LVL72:
 973              	.L65:
 974              	.LBE5:
1876:.\Generated_Source\PSoC4/USBFS.c ****             }
1877:.\Generated_Source\PSoC4/USBFS.c ****         }
1878:.\Generated_Source\PSoC4/USBFS.c **** 
1879:.\Generated_Source\PSoC4/USBFS.c ****         /* IN endpoint buffer is full - read to be read. */
1880:.\Generated_Source\PSoC4/USBFS.c ****         USBFS_EP[epNumber].apiEpState = USBFS_NO_EVENT_PENDING;
 975              		.loc 1 1880 0 is_stmt 1
 976 008c 6B00     		lsl	r3, r5, #1
 977 008e 5B19     		add	r3, r3, r5
 978 0090 9B00     		lsl	r3, r3, #2
 979 0092 064A     		ldr	r2, .L68
 980              	.LVL73:
 981 0094 D318     		add	r3, r2, r3
 982 0096 0022     		mov	r2, #0
 983 0098 5A70     		strb	r2, [r3, #1]
1881:.\Generated_Source\PSoC4/USBFS.c **** 
1882:.\Generated_Source\PSoC4/USBFS.c ****         /* Arm IN endpoint. */
1883:.\Generated_Source\PSoC4/USBFS.c ****         USBFS_SIE_EP_BASE.sieEp[epNumber].epCr0 = USBFS_EP[epNumber].epMode;
 984              		.loc 1 1883 0
 985 009a 5B79     		ldrb	r3, [r3, #5]
 986 009c DBB2     		uxtb	r3, r3
 987 009e AD01     		lsl	r5, r5, #6
 988 00a0 034A     		ldr	r2, .L68+4
 989 00a2 9446     		mov	ip, r2
 990 00a4 6544     		add	r5, r5, ip
 991 00a6 AB60     		str	r3, [r5, #8]
 992              	.L60:
1884:.\Generated_Source\PSoC4/USBFS.c **** 
1885:.\Generated_Source\PSoC4/USBFS.c ****     #else
1886:.\Generated_Source\PSoC4/USBFS.c **** 
1887:.\Generated_Source\PSoC4/USBFS.c ****         #if (USBFS_EP_MANAGEMENT_DMA_MANUAL)
1888:.\Generated_Source\PSoC4/USBFS.c ****             /* IN endpoint buffer will be fully loaded by DMA shortly. */
1889:.\Generated_Source\PSoC4/USBFS.c ****             USBFS_EP[epNumber].apiEpState = USBFS_NO_EVENT_PENDING;
1890:.\Generated_Source\PSoC4/USBFS.c **** 
1891:.\Generated_Source\PSoC4/USBFS.c ****             if ((pData != NULL) && (length > 0u))
1892:.\Generated_Source\PSoC4/USBFS.c ****             {
1893:.\Generated_Source\PSoC4/USBFS.c ****                 uint32 channelNum = (uint32) USBFS_DmaChan[epNumber];
1894:.\Generated_Source\PSoC4/USBFS.c **** 
1895:.\Generated_Source\PSoC4/USBFS.c ****                 /* Disable DMA channel: start configuration. */
1896:.\Generated_Source\PSoC4/USBFS.c ****                 USBFS_CyDmaChDisable(channelNum);
1897:.\Generated_Source\PSoC4/USBFS.c **** 
1898:.\Generated_Source\PSoC4/USBFS.c ****                 /* Configure source and destination. */
1899:.\Generated_Source\PSoC4/USBFS.c ****                 USBFS_CyDmaSetSrcAddress(channelNum, USBFS_DMA_DESCR0, (void*) pData);
ARM GAS  C:\Users\JAVIER~1\AppData\Local\Temp\ccfijmG3.s 			page 52


1900:.\Generated_Source\PSoC4/USBFS.c ****                 USBFS_CyDmaSetDstAddress(channelNum, USBFS_DMA_DESCR0, (void*) &USBFS_ARB_EP16_BASE
1901:.\Generated_Source\PSoC4/USBFS.c **** 
1902:.\Generated_Source\PSoC4/USBFS.c ****                 /* Configure DMA descriptor. */
1903:.\Generated_Source\PSoC4/USBFS.c ****                 length = (length >> 1u) - 1u;
1904:.\Generated_Source\PSoC4/USBFS.c ****                 USBFS_CyDmaSetConfiguration(channelNum, USBFS_DMA_DESCR0, USBFS_DMA_COMMON_CFG | le
1905:.\Generated_Source\PSoC4/USBFS.c ****                                                         CYDMA_HALFWORD | CYDMA_ELEMENT_WORD | CYDMA
1906:.\Generated_Source\PSoC4/USBFS.c **** 
1907:.\Generated_Source\PSoC4/USBFS.c ****                 /* Validate descriptor to execute on following DMA request. */
1908:.\Generated_Source\PSoC4/USBFS.c ****                 USBFS_CyDmaValidateDescriptor(channelNum, USBFS_DMA_DESCR0);
1909:.\Generated_Source\PSoC4/USBFS.c **** 
1910:.\Generated_Source\PSoC4/USBFS.c ****                 /* Enable DMA channel: configuration complete. */
1911:.\Generated_Source\PSoC4/USBFS.c ****                 USBFS_CyDmaChEnable(channelNum);
1912:.\Generated_Source\PSoC4/USBFS.c **** 
1913:.\Generated_Source\PSoC4/USBFS.c ****                 /* Generate DMA request. */
1914:.\Generated_Source\PSoC4/USBFS.c ****                 USBFS_ARB_EP_BASE.arbEp[epNumber].epCfg |=  (uint32)  USBFS_ARB_EPX_CFG_DMA_REQ;
1915:.\Generated_Source\PSoC4/USBFS.c ****                 USBFS_ARB_EP_BASE.arbEp[epNumber].epCfg &=  (uint32) ~USBFS_ARB_EPX_CFG_DMA_REQ;
1916:.\Generated_Source\PSoC4/USBFS.c **** 
1917:.\Generated_Source\PSoC4/USBFS.c ****                 /* IN endpoint will be armed in ARB_ISR(source: IN_BUF_FULL) after first DMA transf
1918:.\Generated_Source\PSoC4/USBFS.c ****             }
1919:.\Generated_Source\PSoC4/USBFS.c ****             else
1920:.\Generated_Source\PSoC4/USBFS.c ****             {
1921:.\Generated_Source\PSoC4/USBFS.c ****                 /* When zero-length packet: arm IN endpoint directly. */
1922:.\Generated_Source\PSoC4/USBFS.c ****                 USBFS_SIE_EP_BASE.sieEp[epNumber].epCr0 = USBFS_EP[epNumber].epMode;
1923:.\Generated_Source\PSoC4/USBFS.c ****             }
1924:.\Generated_Source\PSoC4/USBFS.c ****         #endif /* (USBFS_EP_MANAGEMENT_DMA_MANUAL) */
1925:.\Generated_Source\PSoC4/USBFS.c **** 
1926:.\Generated_Source\PSoC4/USBFS.c ****         #if (USBFS_EP_MANAGEMENT_DMA_AUTO)
1927:.\Generated_Source\PSoC4/USBFS.c ****             if (pData != NULL)
1928:.\Generated_Source\PSoC4/USBFS.c ****             {
1929:.\Generated_Source\PSoC4/USBFS.c ****                 uint32 channelNum = (uint32) USBFS_DmaChan[epNumber];
1930:.\Generated_Source\PSoC4/USBFS.c **** 
1931:.\Generated_Source\PSoC4/USBFS.c ****                 /* Store address of buffer. */
1932:.\Generated_Source\PSoC4/USBFS.c ****                 USBFS_DmaEpBufferAddrBackup[epNumber] = (uint32) pData;
1933:.\Generated_Source\PSoC4/USBFS.c **** 
1934:.\Generated_Source\PSoC4/USBFS.c ****                 /* Disable DMA channel: start configuration. */
1935:.\Generated_Source\PSoC4/USBFS.c ****                 USBFS_CyDmaChDisable(channelNum);
1936:.\Generated_Source\PSoC4/USBFS.c **** 
1937:.\Generated_Source\PSoC4/USBFS.c ****                 /* Set destination address. */
1938:.\Generated_Source\PSoC4/USBFS.c ****                 USBFS_CyDmaSetDstAddress(channelNum, USBFS_DMA_DESCR0, (void*) &USBFS_ARB_EP16_BASE
1939:.\Generated_Source\PSoC4/USBFS.c ****                 USBFS_CyDmaSetDstAddress(channelNum, USBFS_DMA_DESCR1, (void*) &USBFS_ARB_EP16_BASE
1940:.\Generated_Source\PSoC4/USBFS.c **** 
1941:.\Generated_Source\PSoC4/USBFS.c ****                 /* Configure DMA descriptor. */
1942:.\Generated_Source\PSoC4/USBFS.c ****                 USBFS_CyDmaSetConfiguration(channelNum, USBFS_DMA_DESCR0, USBFS_DMA_COMMON_CFG  |
1943:.\Generated_Source\PSoC4/USBFS.c ****                                                         CYDMA_HALFWORD | CYDMA_ELEMENT_WORD | CYDMA
1944:.\Generated_Source\PSoC4/USBFS.c **** 
1945:.\Generated_Source\PSoC4/USBFS.c ****                 /* Configure DMA descriptor. */
1946:.\Generated_Source\PSoC4/USBFS.c ****                 USBFS_CyDmaSetConfiguration(channelNum, USBFS_DMA_DESCR1, USBFS_DMA_COMMON_CFG  |
1947:.\Generated_Source\PSoC4/USBFS.c ****                                                         CYDMA_HALFWORD | CYDMA_ELEMENT_WORD | CYDMA
1948:.\Generated_Source\PSoC4/USBFS.c **** 
1949:.\Generated_Source\PSoC4/USBFS.c ****                 /* Enable interrupt from DMA channel. */
1950:.\Generated_Source\PSoC4/USBFS.c ****                 USBFS_CyDmaSetInterruptMask(channelNum);
1951:.\Generated_Source\PSoC4/USBFS.c **** 
1952:.\Generated_Source\PSoC4/USBFS.c ****                 /* Validate descriptor 1. It will not be invalided during operation. */
1953:.\Generated_Source\PSoC4/USBFS.c ****                 USBFS_CyDmaValidateDescriptor(channelNum, USBFS_DMA_DESCR1);
1954:.\Generated_Source\PSoC4/USBFS.c **** 
1955:.\Generated_Source\PSoC4/USBFS.c ****                 /* Enable DMA channel: configuration complete. */
1956:.\Generated_Source\PSoC4/USBFS.c ****                 USBFS_CyDmaChEnable(channelNum);
ARM GAS  C:\Users\JAVIER~1\AppData\Local\Temp\ccfijmG3.s 			page 53


1957:.\Generated_Source\PSoC4/USBFS.c ****             }
1958:.\Generated_Source\PSoC4/USBFS.c ****             else
1959:.\Generated_Source\PSoC4/USBFS.c ****             {
1960:.\Generated_Source\PSoC4/USBFS.c ****                 /* IN endpoint buffer (32 bytes) will shortly be preloaded by DMA. */
1961:.\Generated_Source\PSoC4/USBFS.c ****                 USBFS_EP[epNumber].apiEpState = USBFS_NO_EVENT_PENDING;
1962:.\Generated_Source\PSoC4/USBFS.c **** 
1963:.\Generated_Source\PSoC4/USBFS.c ****                 if (length > 0u)
1964:.\Generated_Source\PSoC4/USBFS.c ****                 {
1965:.\Generated_Source\PSoC4/USBFS.c ****                     uint32 lengthDescr0, lengthDescr1;
1966:.\Generated_Source\PSoC4/USBFS.c ****                     uint32 channelNum = (uint32) USBFS_DmaChan[epNumber];
1967:.\Generated_Source\PSoC4/USBFS.c **** 
1968:.\Generated_Source\PSoC4/USBFS.c ****                     /* Get number of full bursts. */
1969:.\Generated_Source\PSoC4/USBFS.c ****                     USBFS_DmaEpBurstCnt[epNumber] = (uint8) (length / USBFS_DMA_BYTES_PER_BURST);
1970:.\Generated_Source\PSoC4/USBFS.c **** 
1971:.\Generated_Source\PSoC4/USBFS.c ****                     /* Get number of elements in the last burst. */
1972:.\Generated_Source\PSoC4/USBFS.c ****                     USBFS_DmaEpLastBurstEl[epNumber] = (uint8) (length % USBFS_DMA_BYTES_PER_BURST)
1973:.\Generated_Source\PSoC4/USBFS.c **** 
1974:.\Generated_Source\PSoC4/USBFS.c ****                     /* Get total number of bursts. */
1975:.\Generated_Source\PSoC4/USBFS.c ****                     USBFS_DmaEpBurstCnt[epNumber] += (0u != USBFS_DmaEpLastBurstEl[epNumber]) ? 1u 
1976:.\Generated_Source\PSoC4/USBFS.c **** 
1977:.\Generated_Source\PSoC4/USBFS.c ****                     /* Adjust number of data elements transferred in last burst. */
1978:.\Generated_Source\PSoC4/USBFS.c ****                     USBFS_DmaEpLastBurstEl[epNumber] = (0u != USBFS_DmaEpLastBurstEl[epNumber]) ?
1979:.\Generated_Source\PSoC4/USBFS.c ****                                                                           ((USBFS_DmaEpLastBurstEl[
1980:.\Generated_Source\PSoC4/USBFS.c ****                                                                            (USBFS_DMA_HALFWORDS_PER
1981:.\Generated_Source\PSoC4/USBFS.c **** 
1982:.\Generated_Source\PSoC4/USBFS.c ****                     /* Get number of data elements to transfer for descriptor 0 and 1. */
1983:.\Generated_Source\PSoC4/USBFS.c ****                     lengthDescr0 = (1u == USBFS_DmaEpBurstCnt[epNumber]) ? USBFS_DmaEpLastBurstEl[e
1984:.\Generated_Source\PSoC4/USBFS.c ****                     lengthDescr1 = (2u == USBFS_DmaEpBurstCnt[epNumber]) ? USBFS_DmaEpLastBurstEl[e
1985:.\Generated_Source\PSoC4/USBFS.c **** 
1986:.\Generated_Source\PSoC4/USBFS.c ****                     /* Mark which descriptor is last one to execute. */
1987:.\Generated_Source\PSoC4/USBFS.c ****                     USBFS_DmaEpLastBurstEl[epNumber] |= (0u != (USBFS_DmaEpBurstCnt[epNumber] & 0x1
1988:.\Generated_Source\PSoC4/USBFS.c ****                                                                             USBFS_DMA_DESCR0_MASK :
1989:.\Generated_Source\PSoC4/USBFS.c **** 
1990:.\Generated_Source\PSoC4/USBFS.c ****                     /* Adjust burst counter taking to account: 2 valid descriptors and interrupt tr
1991:.\Generated_Source\PSoC4/USBFS.c ****                     USBFS_DmaEpBurstCnt[epNumber] = USBFS_DMA_GET_BURST_CNT(USBFS_DmaEpBurstCnt[epN
1992:.\Generated_Source\PSoC4/USBFS.c **** 
1993:.\Generated_Source\PSoC4/USBFS.c ****                     /* Restore DMA settings for current transfer. */
1994:.\Generated_Source\PSoC4/USBFS.c ****                     USBFS_CyDmaChDisable(channelNum);
1995:.\Generated_Source\PSoC4/USBFS.c **** 
1996:.\Generated_Source\PSoC4/USBFS.c ****                     /* Restore destination address for input endpoint. */
1997:.\Generated_Source\PSoC4/USBFS.c ****                     USBFS_CyDmaSetSrcAddress(channelNum, USBFS_DMA_DESCR0, (void*) ((uint32) USBFS_
1998:.\Generated_Source\PSoC4/USBFS.c ****                     USBFS_CyDmaSetSrcAddress(channelNum, USBFS_DMA_DESCR1, (void*) ((uint32) USBFS_
1999:.\Generated_Source\PSoC4/USBFS.c ****                                                                                                    
2000:.\Generated_Source\PSoC4/USBFS.c **** 
2001:.\Generated_Source\PSoC4/USBFS.c ****                     /* Set number of elements to transfer. */
2002:.\Generated_Source\PSoC4/USBFS.c ****                     USBFS_CyDmaSetNumDataElements(channelNum, USBFS_DMA_DESCR0, lengthDescr0);
2003:.\Generated_Source\PSoC4/USBFS.c ****                     USBFS_CyDmaSetNumDataElements(channelNum, USBFS_DMA_DESCR1, lengthDescr1);
2004:.\Generated_Source\PSoC4/USBFS.c **** 
2005:.\Generated_Source\PSoC4/USBFS.c ****                     /* Validate descriptor 0 and command to start with it. */
2006:.\Generated_Source\PSoC4/USBFS.c ****                     USBFS_CyDmaValidateDescriptor(channelNum, USBFS_DMA_DESCR0);
2007:.\Generated_Source\PSoC4/USBFS.c ****                     USBFS_CyDmaSetDescriptor0Next(channelNum);
2008:.\Generated_Source\PSoC4/USBFS.c **** 
2009:.\Generated_Source\PSoC4/USBFS.c ****                     /* Enable DMA channel: configuration complete. */
2010:.\Generated_Source\PSoC4/USBFS.c ****                     USBFS_CyDmaChEnable(channelNum);
2011:.\Generated_Source\PSoC4/USBFS.c **** 
2012:.\Generated_Source\PSoC4/USBFS.c ****                 #if !defined (USBFS_MANUAL_IN_EP_ARM)
2013:.\Generated_Source\PSoC4/USBFS.c ****                     /* Set IN data ready to generate DMA request to load data into endpoint buffer.
ARM GAS  C:\Users\JAVIER~1\AppData\Local\Temp\ccfijmG3.s 			page 54


2014:.\Generated_Source\PSoC4/USBFS.c ****                     USBFS_ARB_EP_BASE.arbEp[epNumber].epCfg |= USBFS_ARB_EPX_CFG_IN_DATA_RDY;
2015:.\Generated_Source\PSoC4/USBFS.c ****                 #endif  /* (USBFS_MANUAL_IN_EP_ARM) */
2016:.\Generated_Source\PSoC4/USBFS.c **** 
2017:.\Generated_Source\PSoC4/USBFS.c ****                     /* IN endpoint will be armed in ARB_ISR(source: IN_BUF_FULL) after first DMA tr
2018:.\Generated_Source\PSoC4/USBFS.c ****                 }
2019:.\Generated_Source\PSoC4/USBFS.c ****                 else
2020:.\Generated_Source\PSoC4/USBFS.c ****                 {
2021:.\Generated_Source\PSoC4/USBFS.c ****                     /* When zero-length packet: arm IN endpoint directly. */
2022:.\Generated_Source\PSoC4/USBFS.c ****                     USBFS_SIE_EP_BASE.sieEp[epNumber].epCr0 = USBFS_EP[epNumber].epMode;
2023:.\Generated_Source\PSoC4/USBFS.c ****                 }
2024:.\Generated_Source\PSoC4/USBFS.c ****             }
2025:.\Generated_Source\PSoC4/USBFS.c ****         #endif /* (USBFS_EP_MANAGEMENT_DMA_AUTO) */
2026:.\Generated_Source\PSoC4/USBFS.c ****     #endif /* (USBFS_EP_MANAGEMENT_MANUAL) */
2027:.\Generated_Source\PSoC4/USBFS.c ****     }
2028:.\Generated_Source\PSoC4/USBFS.c **** }
 993              		.loc 1 2028 0
 994              		@ sp needed
 995              	.LVL74:
 996 00a8 F8BD     		pop	{r3, r4, r5, r6, r7, pc}
 997              	.L69:
 998 00aa C046     		.align	2
 999              	.L68:
 1000 00ac 00000000 		.word	USBFS_EP
 1001 00b0 F0FF2B40 		.word	1076625392
 1002 00b4 D0112C40 		.word	1076629968
 1003              		.cfi_endproc
 1004              	.LFE15:
 1005              		.size	USBFS_LoadInEP16, .-USBFS_LoadInEP16
 1006              		.section	.text.USBFS_EnableOutEP,"ax",%progbits
 1007              		.align	2
 1008              		.global	USBFS_EnableOutEP
 1009              		.code	16
 1010              		.thumb_func
 1011              		.type	USBFS_EnableOutEP, %function
 1012              	USBFS_EnableOutEP:
 1013              	.LFB17:
2029:.\Generated_Source\PSoC4/USBFS.c **** 
2030:.\Generated_Source\PSoC4/USBFS.c **** 
2031:.\Generated_Source\PSoC4/USBFS.c **** /*******************************************************************************
2032:.\Generated_Source\PSoC4/USBFS.c **** * Function Name: USBFS_ReadOutEP16
2033:.\Generated_Source\PSoC4/USBFS.c **** ****************************************************************************//**
2034:.\Generated_Source\PSoC4/USBFS.c **** *
2035:.\Generated_Source\PSoC4/USBFS.c **** *   This function performs different functionality depending on the Component’s
2036:.\Generated_Source\PSoC4/USBFS.c **** *   configured Endpoint Buffer Management. This parameter is defined in the
2037:.\Generated_Source\PSoC4/USBFS.c **** *   Descriptor Root in Component Configure window.
2038:.\Generated_Source\PSoC4/USBFS.c **** *
2039:.\Generated_Source\PSoC4/USBFS.c **** *   *Manual (Static/Dynamic Allocation):*
2040:.\Generated_Source\PSoC4/USBFS.c **** *   This function moves the specified number of bytes from endpoint buffer to
2041:.\Generated_Source\PSoC4/USBFS.c **** *   system RAM. The number of bytes actually transferred from endpoint buffer to
2042:.\Generated_Source\PSoC4/USBFS.c **** *   system RAM is the lesser of the actual number of bytes sent by the host or
2043:.\Generated_Source\PSoC4/USBFS.c **** *   the number of bytes requested by the length parameter.
2044:.\Generated_Source\PSoC4/USBFS.c **** *
2045:.\Generated_Source\PSoC4/USBFS.c **** *   *DMA with Manual Buffer Management:*
2046:.\Generated_Source\PSoC4/USBFS.c **** *   Configure DMA to transfer data from endpoint buffer to system RAM. Generate
2047:.\Generated_Source\PSoC4/USBFS.c **** *   a DMA request. The firmware must wait until the DMA completes the data
2048:.\Generated_Source\PSoC4/USBFS.c **** *   transfer after calling the USBFS_ReadOutEP() API. For example,
2049:.\Generated_Source\PSoC4/USBFS.c **** *   by checking EPstate:
ARM GAS  C:\Users\JAVIER~1\AppData\Local\Temp\ccfijmG3.s 			page 55


2050:.\Generated_Source\PSoC4/USBFS.c **** *
2051:.\Generated_Source\PSoC4/USBFS.c **** *   \snippet /USBFS_sut_02.cydsn/main.c checking EPstatey
2052:.\Generated_Source\PSoC4/USBFS.c **** *
2053:.\Generated_Source\PSoC4/USBFS.c **** *   The USBFS_EnableOutEP() has to be called to allow host to write data into
2054:.\Generated_Source\PSoC4/USBFS.c **** *   the endpoint buffer after DMA has completed transfer data from OUT endpoint
2055:.\Generated_Source\PSoC4/USBFS.c **** *   buffer to SRAM.
2056:.\Generated_Source\PSoC4/USBFS.c **** *
2057:.\Generated_Source\PSoC4/USBFS.c **** *   *DMA with Automatic Buffer Management:*
2058:.\Generated_Source\PSoC4/USBFS.c **** *   Configure DMA. This is required only once and automatically generates DMA
2059:.\Generated_Source\PSoC4/USBFS.c **** *   requests as data arrives
2060:.\Generated_Source\PSoC4/USBFS.c **** *
2061:.\Generated_Source\PSoC4/USBFS.c **** *  \param epNumber: Contains the data endpoint number.
2062:.\Generated_Source\PSoC4/USBFS.c **** *         Valid values are between 1 and 8.
2063:.\Generated_Source\PSoC4/USBFS.c **** *  \param pData: A pointer to a data array into which the data for the endpoint
2064:.\Generated_Source\PSoC4/USBFS.c **** *         space is copied. It shall be ensured that this pointer address is
2065:.\Generated_Source\PSoC4/USBFS.c **** *         even to ensure the 16-bit transfer is aligned to even address. Else,
2066:.\Generated_Source\PSoC4/USBFS.c **** *         a hard fault condition can occur.
2067:.\Generated_Source\PSoC4/USBFS.c **** *  \param length: The number of bytes to transfer from the USB Out endpoint and
2068:.\Generated_Source\PSoC4/USBFS.c **** *         loads it into data array. Valid values are between 0 and 1023. The
2069:.\Generated_Source\PSoC4/USBFS.c **** *         function moves fewer than the requested number of bytes if the host
2070:.\Generated_Source\PSoC4/USBFS.c **** *         sends fewer bytes than requested.
2071:.\Generated_Source\PSoC4/USBFS.c **** *
2072:.\Generated_Source\PSoC4/USBFS.c **** * \return
2073:.\Generated_Source\PSoC4/USBFS.c **** *  Number of bytes received, 0 for an invalid endpoint.
2074:.\Generated_Source\PSoC4/USBFS.c **** *
2075:.\Generated_Source\PSoC4/USBFS.c **** * \reentrant
2076:.\Generated_Source\PSoC4/USBFS.c **** *  No.
2077:.\Generated_Source\PSoC4/USBFS.c **** *
2078:.\Generated_Source\PSoC4/USBFS.c **** *******************************************************************************/
2079:.\Generated_Source\PSoC4/USBFS.c **** uint16 USBFS_ReadOutEP16(uint8 epNumber, uint8 pData[], uint16 length)
2080:.\Generated_Source\PSoC4/USBFS.c **** {
2081:.\Generated_Source\PSoC4/USBFS.c ****     uint32 adjLength;
2082:.\Generated_Source\PSoC4/USBFS.c **** 
2083:.\Generated_Source\PSoC4/USBFS.c ****     /* Check array alignment on half-word boundary */
2084:.\Generated_Source\PSoC4/USBFS.c ****     CYASSERT(0u == (((uint32) pData) & 0x01u));
2085:.\Generated_Source\PSoC4/USBFS.c **** 
2086:.\Generated_Source\PSoC4/USBFS.c ****     if ((pData != NULL) && (epNumber > USBFS_EP0) && (epNumber < USBFS_MAX_EP))
2087:.\Generated_Source\PSoC4/USBFS.c ****     {
2088:.\Generated_Source\PSoC4/USBFS.c ****     #if (!USBFS_EP_MANAGEMENT_DMA_AUTO)
2089:.\Generated_Source\PSoC4/USBFS.c ****         /* Adjust requested length to available data. */
2090:.\Generated_Source\PSoC4/USBFS.c ****         length = (length > USBFS_GetEPCount(epNumber)) ? USBFS_GetEPCount(epNumber) : length;
2091:.\Generated_Source\PSoC4/USBFS.c ****     #endif /* (!USBFS_EP_MANAGEMENT_DMA_AUTO) */
2092:.\Generated_Source\PSoC4/USBFS.c **** 
2093:.\Generated_Source\PSoC4/USBFS.c ****     /* Adjust requested length: 2 bytes are handled at one data register access. */
2094:.\Generated_Source\PSoC4/USBFS.c ****     adjLength =  length + ((uint32)length & 1u);
2095:.\Generated_Source\PSoC4/USBFS.c **** 
2096:.\Generated_Source\PSoC4/USBFS.c ****     #if (USBFS_EP_MANAGEMENT_MANUAL)
2097:.\Generated_Source\PSoC4/USBFS.c ****         {
2098:.\Generated_Source\PSoC4/USBFS.c ****             /* Convert uint8 array to uint16. */
2099:.\Generated_Source\PSoC4/USBFS.c ****             uint16 *dataBuf = (uint16 *) pData;
2100:.\Generated_Source\PSoC4/USBFS.c **** 
2101:.\Generated_Source\PSoC4/USBFS.c ****             /* Copy data using 16-bits arbiter data register. */
2102:.\Generated_Source\PSoC4/USBFS.c ****             uint16 i;
2103:.\Generated_Source\PSoC4/USBFS.c ****             for (i = 0u; i < (adjLength >> 1u); ++i)
2104:.\Generated_Source\PSoC4/USBFS.c ****             {
2105:.\Generated_Source\PSoC4/USBFS.c ****                 dataBuf[i] = (uint16) USBFS_ARB_EP16_BASE.arbEp[epNumber].rwDr16;
2106:.\Generated_Source\PSoC4/USBFS.c ****             }
ARM GAS  C:\Users\JAVIER~1\AppData\Local\Temp\ccfijmG3.s 			page 56


2107:.\Generated_Source\PSoC4/USBFS.c ****         }
2108:.\Generated_Source\PSoC4/USBFS.c **** 
2109:.\Generated_Source\PSoC4/USBFS.c ****         /* Arm OUT endpoint after data has been read from endpoint buffer. */
2110:.\Generated_Source\PSoC4/USBFS.c ****         USBFS_EnableOutEP(epNumber);
2111:.\Generated_Source\PSoC4/USBFS.c ****     #else
2112:.\Generated_Source\PSoC4/USBFS.c **** 
2113:.\Generated_Source\PSoC4/USBFS.c ****         #if (USBFS_EP_MANAGEMENT_DMA_MANUAL)
2114:.\Generated_Source\PSoC4/USBFS.c ****         {
2115:.\Generated_Source\PSoC4/USBFS.c ****             uint32 channelNum = (uint32) USBFS_DmaChan[epNumber];
2116:.\Generated_Source\PSoC4/USBFS.c **** 
2117:.\Generated_Source\PSoC4/USBFS.c ****             /* Disable DMA channel: start configuration. */
2118:.\Generated_Source\PSoC4/USBFS.c ****             USBFS_CyDmaChDisable(channelNum);
2119:.\Generated_Source\PSoC4/USBFS.c **** 
2120:.\Generated_Source\PSoC4/USBFS.c ****             /* Configure source and destination. */
2121:.\Generated_Source\PSoC4/USBFS.c ****             USBFS_CyDmaSetSrcAddress(channelNum, USBFS_DMA_DESCR0, (void*) &USBFS_ARB_EP16_BASE.arb
2122:.\Generated_Source\PSoC4/USBFS.c ****             USBFS_CyDmaSetDstAddress(channelNum, USBFS_DMA_DESCR0, (void*) pData);
2123:.\Generated_Source\PSoC4/USBFS.c **** 
2124:.\Generated_Source\PSoC4/USBFS.c ****             /* Configure DMA descriptor. */
2125:.\Generated_Source\PSoC4/USBFS.c ****             USBFS_CyDmaSetConfiguration(channelNum, USBFS_DMA_DESCR0, USBFS_DMA_COMMON_CFG | (uint1
2126:.\Generated_Source\PSoC4/USBFS.c ****                                                     CYDMA_HALFWORD | CYDMA_WORD_ELEMENT | CYDMA_INC
2127:.\Generated_Source\PSoC4/USBFS.c **** 
2128:.\Generated_Source\PSoC4/USBFS.c ****             /* Validate descriptor to execute on following DMA request. */
2129:.\Generated_Source\PSoC4/USBFS.c ****             USBFS_CyDmaValidateDescriptor(channelNum, USBFS_DMA_DESCR0);
2130:.\Generated_Source\PSoC4/USBFS.c **** 
2131:.\Generated_Source\PSoC4/USBFS.c ****             /* Enable DMA channel: configuration complete. */
2132:.\Generated_Source\PSoC4/USBFS.c ****             USBFS_CyDmaChEnable(channelNum);
2133:.\Generated_Source\PSoC4/USBFS.c **** 
2134:.\Generated_Source\PSoC4/USBFS.c ****             /* Generate DMA request. */
2135:.\Generated_Source\PSoC4/USBFS.c ****             USBFS_ARB_EP_BASE.arbEp[epNumber].epCfg |=  (uint32)  USBFS_ARB_EPX_CFG_DMA_REQ;
2136:.\Generated_Source\PSoC4/USBFS.c ****             USBFS_ARB_EP_BASE.arbEp[epNumber].epCfg &=  (uint32) ~USBFS_ARB_EPX_CFG_DMA_REQ;
2137:.\Generated_Source\PSoC4/USBFS.c **** 
2138:.\Generated_Source\PSoC4/USBFS.c ****             /* OUT endpoint has to be armed again by user when DMA transfers have been completed.
2139:.\Generated_Source\PSoC4/USBFS.c ****             * NO_EVENT_PENDING: notifies that data has been copied from endpoint buffer.
2140:.\Generated_Source\PSoC4/USBFS.c ****             */
2141:.\Generated_Source\PSoC4/USBFS.c ****         }
2142:.\Generated_Source\PSoC4/USBFS.c ****         #endif /* (USBFS_EP_MANAGEMENT_DMA_MANUAL) */
2143:.\Generated_Source\PSoC4/USBFS.c **** 
2144:.\Generated_Source\PSoC4/USBFS.c ****         #if (USBFS_EP_MANAGEMENT_DMA_AUTO)
2145:.\Generated_Source\PSoC4/USBFS.c ****         {
2146:.\Generated_Source\PSoC4/USBFS.c ****             uint32 lengthDescr0, lengthDescr1;
2147:.\Generated_Source\PSoC4/USBFS.c ****             uint32 channelNum = (uint32) USBFS_DmaChan[epNumber];
2148:.\Generated_Source\PSoC4/USBFS.c **** 
2149:.\Generated_Source\PSoC4/USBFS.c ****             /* Get number of full bursts. */
2150:.\Generated_Source\PSoC4/USBFS.c ****             USBFS_DmaEpBurstCnt[epNumber] = (uint8) (adjLength / USBFS_DMA_BYTES_PER_BURST);
2151:.\Generated_Source\PSoC4/USBFS.c **** 
2152:.\Generated_Source\PSoC4/USBFS.c ****             /* Get number of elements in last burst. */
2153:.\Generated_Source\PSoC4/USBFS.c ****             USBFS_DmaEpLastBurstEl[epNumber] = (uint8) (adjLength % USBFS_DMA_BYTES_PER_BURST);
2154:.\Generated_Source\PSoC4/USBFS.c **** 
2155:.\Generated_Source\PSoC4/USBFS.c ****             /* Get total number of bursts. */
2156:.\Generated_Source\PSoC4/USBFS.c ****             USBFS_DmaEpBurstCnt[epNumber] += (0u != USBFS_DmaEpLastBurstEl[epNumber]) ? 1u : 0u;
2157:.\Generated_Source\PSoC4/USBFS.c **** 
2158:.\Generated_Source\PSoC4/USBFS.c ****             /* Adjust number of data elements transferred in last burst. */
2159:.\Generated_Source\PSoC4/USBFS.c ****             USBFS_DmaEpLastBurstEl[epNumber] = (0u != USBFS_DmaEpLastBurstEl[epNumber]) ?
2160:.\Generated_Source\PSoC4/USBFS.c ****                                                                   ((USBFS_DmaEpLastBurstEl[epNumber
2161:.\Generated_Source\PSoC4/USBFS.c ****                                                                    (USBFS_DMA_HALFWORDS_PER_BURST -
2162:.\Generated_Source\PSoC4/USBFS.c **** 
2163:.\Generated_Source\PSoC4/USBFS.c ****             /* Get number of data elements to transfer for descriptor 0 and 1. */
ARM GAS  C:\Users\JAVIER~1\AppData\Local\Temp\ccfijmG3.s 			page 57


2164:.\Generated_Source\PSoC4/USBFS.c ****             lengthDescr0 = (1u == USBFS_DmaEpBurstCnt[epNumber]) ? USBFS_DmaEpLastBurstEl[epNumber]
2165:.\Generated_Source\PSoC4/USBFS.c ****             lengthDescr1 = (2u == USBFS_DmaEpBurstCnt[epNumber]) ? USBFS_DmaEpLastBurstEl[epNumber]
2166:.\Generated_Source\PSoC4/USBFS.c **** 
2167:.\Generated_Source\PSoC4/USBFS.c ****             /* Mark last descriptor to be executed. */
2168:.\Generated_Source\PSoC4/USBFS.c ****             USBFS_DmaEpLastBurstEl[epNumber] |= (0u != (USBFS_DmaEpBurstCnt[epNumber] & 0x1u)) ?
2169:.\Generated_Source\PSoC4/USBFS.c ****                                                                     USBFS_DMA_DESCR0_MASK : USBFS_D
2170:.\Generated_Source\PSoC4/USBFS.c **** 
2171:.\Generated_Source\PSoC4/USBFS.c ****             /* Mark if revert number of data elements in descriptor after transfer completion. */
2172:.\Generated_Source\PSoC4/USBFS.c ****             USBFS_DmaEpLastBurstEl[epNumber] |= (USBFS_DmaEpBurstCnt[epNumber] > 2u) ? USBFS_DMA_DE
2173:.\Generated_Source\PSoC4/USBFS.c **** 
2174:.\Generated_Source\PSoC4/USBFS.c ****             /* Mark that 16-bits access to data register is performed. */
2175:.\Generated_Source\PSoC4/USBFS.c ****             USBFS_DmaEpLastBurstEl[epNumber] |= USBFS_DMA_DESCR_16BITS;
2176:.\Generated_Source\PSoC4/USBFS.c **** 
2177:.\Generated_Source\PSoC4/USBFS.c ****             /* Adjust burst counter taking to account: 2 valid descriptors and interrupt trigger af
2178:.\Generated_Source\PSoC4/USBFS.c ****             USBFS_DmaEpBurstCnt[epNumber] = USBFS_DMA_GET_BURST_CNT(USBFS_DmaEpBurstCnt[epNumber]);
2179:.\Generated_Source\PSoC4/USBFS.c **** 
2180:.\Generated_Source\PSoC4/USBFS.c ****             /* Store address of buffer and burst counter for endpoint. */
2181:.\Generated_Source\PSoC4/USBFS.c ****             USBFS_DmaEpBufferAddrBackup[epNumber] = (uint32) pData;
2182:.\Generated_Source\PSoC4/USBFS.c ****             USBFS_DmaEpBurstCntBackup[epNumber]   = USBFS_DmaEpBurstCnt[epNumber];
2183:.\Generated_Source\PSoC4/USBFS.c **** 
2184:.\Generated_Source\PSoC4/USBFS.c ****             /* Disable DMA channel: start configuration. */
2185:.\Generated_Source\PSoC4/USBFS.c ****             USBFS_CyDmaChDisable(channelNum);
2186:.\Generated_Source\PSoC4/USBFS.c **** 
2187:.\Generated_Source\PSoC4/USBFS.c ****             /* Set destination address. */
2188:.\Generated_Source\PSoC4/USBFS.c ****             USBFS_CyDmaSetSrcAddress(channelNum, USBFS_DMA_DESCR0, (void*) &USBFS_ARB_EP16_BASE.arb
2189:.\Generated_Source\PSoC4/USBFS.c ****             USBFS_CyDmaSetSrcAddress(channelNum, USBFS_DMA_DESCR1, (void*) &USBFS_ARB_EP16_BASE.arb
2190:.\Generated_Source\PSoC4/USBFS.c **** 
2191:.\Generated_Source\PSoC4/USBFS.c ****             USBFS_CyDmaSetDstAddress(channelNum, USBFS_DMA_DESCR0, (void*) ((uint32) pData));
2192:.\Generated_Source\PSoC4/USBFS.c ****             USBFS_CyDmaSetDstAddress(channelNum, USBFS_DMA_DESCR1, (void*) ((uint32) pData + USBFS_
2193:.\Generated_Source\PSoC4/USBFS.c **** 
2194:.\Generated_Source\PSoC4/USBFS.c ****             /* Configure DMA descriptor 0. */
2195:.\Generated_Source\PSoC4/USBFS.c ****             USBFS_CyDmaSetConfiguration(channelNum, USBFS_DMA_DESCR0, USBFS_DMA_COMMON_CFG  | lengt
2196:.\Generated_Source\PSoC4/USBFS.c ****                                                     CYDMA_HALFWORD | CYDMA_WORD_ELEMENT | CYDMA_INC
2197:.\Generated_Source\PSoC4/USBFS.c **** 
2198:.\Generated_Source\PSoC4/USBFS.c ****             /* Configure DMA descriptor 1. */
2199:.\Generated_Source\PSoC4/USBFS.c ****             USBFS_CyDmaSetConfiguration(channelNum, USBFS_DMA_DESCR1, USBFS_DMA_COMMON_CFG  | lengt
2200:.\Generated_Source\PSoC4/USBFS.c ****                                                     CYDMA_HALFWORD | CYDMA_WORD_ELEMENT | CYDMA_INC
2201:.\Generated_Source\PSoC4/USBFS.c **** 
2202:.\Generated_Source\PSoC4/USBFS.c ****             /* Enable interrupt from DMA channel. */
2203:.\Generated_Source\PSoC4/USBFS.c ****             USBFS_CyDmaSetInterruptMask(channelNum);
2204:.\Generated_Source\PSoC4/USBFS.c **** 
2205:.\Generated_Source\PSoC4/USBFS.c ****             /* Validate DMA descriptor 0 and 1. */
2206:.\Generated_Source\PSoC4/USBFS.c ****             USBFS_CyDmaValidateDescriptor(channelNum, USBFS_DMA_DESCR0);
2207:.\Generated_Source\PSoC4/USBFS.c ****             USBFS_CyDmaValidateDescriptor(channelNum, USBFS_DMA_DESCR1);
2208:.\Generated_Source\PSoC4/USBFS.c **** 
2209:.\Generated_Source\PSoC4/USBFS.c ****             /* Enable DMA channel: configuration complete. */
2210:.\Generated_Source\PSoC4/USBFS.c ****             USBFS_CyDmaChEnable(channelNum);
2211:.\Generated_Source\PSoC4/USBFS.c **** 
2212:.\Generated_Source\PSoC4/USBFS.c ****             /* OUT endpoint has to be armed again by user when DMA transfers have been completed.
2213:.\Generated_Source\PSoC4/USBFS.c ****             * NO_EVENT_PENDING: notifies that data has been copied from endpoint buffer.
2214:.\Generated_Source\PSoC4/USBFS.c ****             */
2215:.\Generated_Source\PSoC4/USBFS.c ****         }
2216:.\Generated_Source\PSoC4/USBFS.c ****         #endif /* (USBFS_EP_MANAGEMENT_DMA_AUTO) */
2217:.\Generated_Source\PSoC4/USBFS.c ****     #endif /* (USBFS_EP_MANAGEMENT_MANUAL) */
2218:.\Generated_Source\PSoC4/USBFS.c ****     }
2219:.\Generated_Source\PSoC4/USBFS.c ****     else
2220:.\Generated_Source\PSoC4/USBFS.c ****     {
ARM GAS  C:\Users\JAVIER~1\AppData\Local\Temp\ccfijmG3.s 			page 58


2221:.\Generated_Source\PSoC4/USBFS.c ****         length = 0u;
2222:.\Generated_Source\PSoC4/USBFS.c ****     }
2223:.\Generated_Source\PSoC4/USBFS.c **** 
2224:.\Generated_Source\PSoC4/USBFS.c ****     return (length);
2225:.\Generated_Source\PSoC4/USBFS.c **** }
2226:.\Generated_Source\PSoC4/USBFS.c **** #endif /* (USBFS_16BITS_EP_ACCESS_ENABLE) */
2227:.\Generated_Source\PSoC4/USBFS.c **** 
2228:.\Generated_Source\PSoC4/USBFS.c **** 
2229:.\Generated_Source\PSoC4/USBFS.c **** /*******************************************************************************
2230:.\Generated_Source\PSoC4/USBFS.c **** * Function Name: USBFS_EnableOutEP
2231:.\Generated_Source\PSoC4/USBFS.c **** ****************************************************************************//**
2232:.\Generated_Source\PSoC4/USBFS.c **** *
2233:.\Generated_Source\PSoC4/USBFS.c **** *  This function enables the specified endpoint for OUT transfers. Do not call
2234:.\Generated_Source\PSoC4/USBFS.c **** *  this function for IN endpoints.
2235:.\Generated_Source\PSoC4/USBFS.c **** *
2236:.\Generated_Source\PSoC4/USBFS.c **** *  \param epNumber: Contains the data endpoint number. Valid values are between
2237:.\Generated_Source\PSoC4/USBFS.c **** *  1 and 8.
2238:.\Generated_Source\PSoC4/USBFS.c **** *
2239:.\Generated_Source\PSoC4/USBFS.c **** * \globalvars
2240:.\Generated_Source\PSoC4/USBFS.c **** *
2241:.\Generated_Source\PSoC4/USBFS.c **** *  \ref USBFS_EP[epNumber].apiEpState - set to NO_EVENT_PENDING
2242:.\Generated_Source\PSoC4/USBFS.c **** *
2243:.\Generated_Source\PSoC4/USBFS.c **** * \reentrant
2244:.\Generated_Source\PSoC4/USBFS.c **** *  No.
2245:.\Generated_Source\PSoC4/USBFS.c **** *
2246:.\Generated_Source\PSoC4/USBFS.c **** *******************************************************************************/
2247:.\Generated_Source\PSoC4/USBFS.c **** void USBFS_EnableOutEP(uint8 epNumber) 
2248:.\Generated_Source\PSoC4/USBFS.c **** {
 1014              		.loc 1 2248 0
 1015              		.cfi_startproc
 1016              	.LVL75:
2249:.\Generated_Source\PSoC4/USBFS.c ****     if ((epNumber > USBFS_EP0) && (epNumber < USBFS_MAX_EP))
 1017              		.loc 1 2249 0
 1018 0000 431E     		sub	r3, r0, #1
 1019 0002 072B     		cmp	r3, #7
 1020 0004 0DD8     		bhi	.L70
2250:.\Generated_Source\PSoC4/USBFS.c ****     {
2251:.\Generated_Source\PSoC4/USBFS.c ****         USBFS_EP[epNumber].apiEpState = USBFS_NO_EVENT_PENDING;
 1021              		.loc 1 2251 0
 1022 0006 4300     		lsl	r3, r0, #1
 1023 0008 1B18     		add	r3, r3, r0
 1024 000a 9B00     		lsl	r3, r3, #2
 1025 000c 054A     		ldr	r2, .L72
 1026 000e D318     		add	r3, r2, r3
 1027 0010 0022     		mov	r2, #0
 1028 0012 5A70     		strb	r2, [r3, #1]
2252:.\Generated_Source\PSoC4/USBFS.c **** 
2253:.\Generated_Source\PSoC4/USBFS.c ****         /* Enable OUT endpoint to be written by Host. */
2254:.\Generated_Source\PSoC4/USBFS.c ****         USBFS_SIE_EP_BASE.sieEp[epNumber].epCr0 = USBFS_EP[epNumber].epMode;
 1029              		.loc 1 2254 0
 1030 0014 5B79     		ldrb	r3, [r3, #5]
 1031 0016 DBB2     		uxtb	r3, r3
 1032 0018 8001     		lsl	r0, r0, #6
 1033              	.LVL76:
 1034 001a 034A     		ldr	r2, .L72+4
 1035 001c 9446     		mov	ip, r2
 1036 001e 6044     		add	r0, r0, ip
ARM GAS  C:\Users\JAVIER~1\AppData\Local\Temp\ccfijmG3.s 			page 59


 1037 0020 8360     		str	r3, [r0, #8]
 1038              	.L70:
2255:.\Generated_Source\PSoC4/USBFS.c ****         
2256:.\Generated_Source\PSoC4/USBFS.c ****     }
2257:.\Generated_Source\PSoC4/USBFS.c **** }
 1039              		.loc 1 2257 0
 1040              		@ sp needed
 1041 0022 7047     		bx	lr
 1042              	.L73:
 1043              		.align	2
 1044              	.L72:
 1045 0024 00000000 		.word	USBFS_EP
 1046 0028 F0FF2B40 		.word	1076625392
 1047              		.cfi_endproc
 1048              	.LFE17:
 1049              		.size	USBFS_EnableOutEP, .-USBFS_EnableOutEP
 1050              		.section	.text.USBFS_ReadOutEP,"ax",%progbits
 1051              		.align	2
 1052              		.global	USBFS_ReadOutEP
 1053              		.code	16
 1054              		.thumb_func
 1055              		.type	USBFS_ReadOutEP, %function
 1056              	USBFS_ReadOutEP:
 1057              	.LFB14:
1637:.\Generated_Source\PSoC4/USBFS.c ****     if ((pData != NULL) && (epNumber > USBFS_EP0) && (epNumber < USBFS_MAX_EP))
 1058              		.loc 1 1637 0
 1059              		.cfi_startproc
 1060              	.LVL77:
 1061 0000 70B5     		push	{r4, r5, r6, lr}
 1062              		.cfi_def_cfa_offset 16
 1063              		.cfi_offset 4, -16
 1064              		.cfi_offset 5, -12
 1065              		.cfi_offset 6, -8
 1066              		.cfi_offset 14, -4
 1067 0002 051C     		mov	r5, r0
 1068 0004 0E1C     		mov	r6, r1
 1069 0006 141C     		mov	r4, r2
1638:.\Generated_Source\PSoC4/USBFS.c ****     {
 1070              		.loc 1 1638 0
 1071 0008 0029     		cmp	r1, #0
 1072 000a 1BD0     		beq	.L79
1638:.\Generated_Source\PSoC4/USBFS.c ****     {
 1073              		.loc 1 1638 0 is_stmt 0 discriminator 1
 1074 000c 0028     		cmp	r0, #0
 1075 000e 1BD0     		beq	.L80
1638:.\Generated_Source\PSoC4/USBFS.c ****     {
 1076              		.loc 1 1638 0 discriminator 2
 1077 0010 0828     		cmp	r0, #8
 1078 0012 1BD8     		bhi	.L81
1642:.\Generated_Source\PSoC4/USBFS.c ****     #endif /* (!USBFS_EP_MANAGEMENT_DMA_AUTO) */
 1079              		.loc 1 1642 0 is_stmt 1
 1080 0014 FFF7FEFF 		bl	USBFS_GetEPCount
 1081              	.LVL78:
 1082 0018 A042     		cmp	r0, r4
 1083 001a 03D2     		bcs	.L76
1642:.\Generated_Source\PSoC4/USBFS.c ****     #endif /* (!USBFS_EP_MANAGEMENT_DMA_AUTO) */
 1084              		.loc 1 1642 0 is_stmt 0 discriminator 1
ARM GAS  C:\Users\JAVIER~1\AppData\Local\Temp\ccfijmG3.s 			page 60


 1085 001c 281C     		mov	r0, r5
 1086 001e FFF7FEFF 		bl	USBFS_GetEPCount
 1087              	.LVL79:
 1088 0022 041C     		mov	r4, r0
 1089              	.L76:
 1090              	.LVL80:
 1091              	.LBB6:
1649:.\Generated_Source\PSoC4/USBFS.c ****             {
 1092              		.loc 1 1649 0 is_stmt 1 discriminator 4
 1093 0024 0023     		mov	r3, #0
 1094 0026 07E0     		b	.L77
 1095              	.LVL81:
 1096              	.L78:
1651:.\Generated_Source\PSoC4/USBFS.c ****             }
 1097              		.loc 1 1651 0 discriminator 3
 1098 0028 AA01     		lsl	r2, r5, #6
 1099 002a 0A49     		ldr	r1, .L82
 1100 002c 8C46     		mov	ip, r1
 1101 002e 6244     		add	r2, r2, ip
 1102 0030 126A     		ldr	r2, [r2, #32]
 1103 0032 F254     		strb	r2, [r6, r3]
1649:.\Generated_Source\PSoC4/USBFS.c ****             {
 1104              		.loc 1 1649 0 discriminator 3
 1105 0034 0133     		add	r3, r3, #1
 1106              	.LVL82:
 1107 0036 9BB2     		uxth	r3, r3
 1108              	.LVL83:
 1109              	.L77:
1649:.\Generated_Source\PSoC4/USBFS.c ****             {
 1110              		.loc 1 1649 0 is_stmt 0 discriminator 1
 1111 0038 A342     		cmp	r3, r4
 1112 003a F5D3     		bcc	.L78
 1113              	.LBE6:
1656:.\Generated_Source\PSoC4/USBFS.c ****     #else
 1114              		.loc 1 1656 0 is_stmt 1
 1115 003c 281C     		mov	r0, r5
 1116 003e FFF7FEFF 		bl	USBFS_EnableOutEP
 1117              	.LVL84:
 1118 0042 04E0     		b	.L75
 1119              	.LVL85:
 1120              	.L79:
1798:.\Generated_Source\PSoC4/USBFS.c ****     }
 1121              		.loc 1 1798 0
 1122 0044 0024     		mov	r4, #0
 1123 0046 02E0     		b	.L75
 1124              	.L80:
 1125 0048 0024     		mov	r4, #0
 1126 004a 00E0     		b	.L75
 1127              	.L81:
 1128 004c 0024     		mov	r4, #0
 1129              	.LVL86:
 1130              	.L75:
1802:.\Generated_Source\PSoC4/USBFS.c **** 
 1131              		.loc 1 1802 0
 1132 004e 201C     		mov	r0, r4
 1133              		@ sp needed
 1134              	.LVL87:
ARM GAS  C:\Users\JAVIER~1\AppData\Local\Temp\ccfijmG3.s 			page 61


 1135              	.LVL88:
 1136 0050 70BD     		pop	{r4, r5, r6, pc}
 1137              	.L83:
 1138 0052 C046     		.align	2
 1139              	.L82:
 1140 0054 C0012C40 		.word	1076625856
 1141              		.cfi_endproc
 1142              	.LFE14:
 1143              		.size	USBFS_ReadOutEP, .-USBFS_ReadOutEP
 1144              		.section	.text.USBFS_ReadOutEP16,"ax",%progbits
 1145              		.align	2
 1146              		.global	USBFS_ReadOutEP16
 1147              		.code	16
 1148              		.thumb_func
 1149              		.type	USBFS_ReadOutEP16, %function
 1150              	USBFS_ReadOutEP16:
 1151              	.LFB16:
2080:.\Generated_Source\PSoC4/USBFS.c ****     uint32 adjLength;
 1152              		.loc 1 2080 0
 1153              		.cfi_startproc
 1154              	.LVL89:
 1155 0000 F8B5     		push	{r3, r4, r5, r6, r7, lr}
 1156              		.cfi_def_cfa_offset 24
 1157              		.cfi_offset 3, -24
 1158              		.cfi_offset 4, -20
 1159              		.cfi_offset 5, -16
 1160              		.cfi_offset 6, -12
 1161              		.cfi_offset 7, -8
 1162              		.cfi_offset 14, -4
 1163 0002 061C     		mov	r6, r0
 1164 0004 0D1C     		mov	r5, r1
 1165 0006 141C     		mov	r4, r2
2084:.\Generated_Source\PSoC4/USBFS.c **** 
 1166              		.loc 1 2084 0
 1167 0008 CB07     		lsl	r3, r1, #31
 1168 000a 02D5     		bpl	.L85
2084:.\Generated_Source\PSoC4/USBFS.c **** 
 1169              		.loc 1 2084 0 is_stmt 0 discriminator 1
 1170 000c 0020     		mov	r0, #0
 1171              	.LVL90:
 1172 000e FFF7FEFF 		bl	CyHalt
 1173              	.LVL91:
 1174              	.L85:
2086:.\Generated_Source\PSoC4/USBFS.c ****     {
 1175              		.loc 1 2086 0 is_stmt 1
 1176 0012 002D     		cmp	r5, #0
 1177 0014 21D0     		beq	.L90
2086:.\Generated_Source\PSoC4/USBFS.c ****     {
 1178              		.loc 1 2086 0 is_stmt 0 discriminator 1
 1179 0016 002E     		cmp	r6, #0
 1180 0018 21D0     		beq	.L91
2086:.\Generated_Source\PSoC4/USBFS.c ****     {
 1181              		.loc 1 2086 0 discriminator 2
 1182 001a 082E     		cmp	r6, #8
 1183 001c 21D8     		bhi	.L92
2090:.\Generated_Source\PSoC4/USBFS.c ****     #endif /* (!USBFS_EP_MANAGEMENT_DMA_AUTO) */
 1184              		.loc 1 2090 0 is_stmt 1
ARM GAS  C:\Users\JAVIER~1\AppData\Local\Temp\ccfijmG3.s 			page 62


 1185 001e 301C     		mov	r0, r6
 1186 0020 FFF7FEFF 		bl	USBFS_GetEPCount
 1187              	.LVL92:
 1188 0024 A042     		cmp	r0, r4
 1189 0026 03D2     		bcs	.L87
2090:.\Generated_Source\PSoC4/USBFS.c ****     #endif /* (!USBFS_EP_MANAGEMENT_DMA_AUTO) */
 1190              		.loc 1 2090 0 is_stmt 0 discriminator 1
 1191 0028 301C     		mov	r0, r6
 1192 002a FFF7FEFF 		bl	USBFS_GetEPCount
 1193              	.LVL93:
 1194 002e 041C     		mov	r4, r0
 1195              	.L87:
 1196              	.LVL94:
2094:.\Generated_Source\PSoC4/USBFS.c **** 
 1197              		.loc 1 2094 0 is_stmt 1 discriminator 4
 1198 0030 0120     		mov	r0, #1
 1199 0032 2040     		and	r0, r4
 1200 0034 2018     		add	r0, r4, r0
 1201              	.LVL95:
 1202              	.LBB7:
2103:.\Generated_Source\PSoC4/USBFS.c ****             {
 1203              		.loc 1 2103 0 discriminator 4
 1204 0036 0023     		mov	r3, #0
 1205 0038 08E0     		b	.L88
 1206              	.LVL96:
 1207              	.L89:
2105:.\Generated_Source\PSoC4/USBFS.c ****             }
 1208              		.loc 1 2105 0 discriminator 3
 1209 003a 5900     		lsl	r1, r3, #1
 1210 003c B201     		lsl	r2, r6, #6
 1211 003e 0A4F     		ldr	r7, .L93
 1212 0040 BC46     		mov	ip, r7
 1213 0042 6244     		add	r2, r2, ip
 1214 0044 1269     		ldr	r2, [r2, #16]
 1215 0046 6A52     		strh	r2, [r5, r1]
2103:.\Generated_Source\PSoC4/USBFS.c ****             {
 1216              		.loc 1 2103 0 discriminator 3
 1217 0048 0133     		add	r3, r3, #1
 1218              	.LVL97:
 1219 004a 9BB2     		uxth	r3, r3
 1220              	.LVL98:
 1221              	.L88:
2103:.\Generated_Source\PSoC4/USBFS.c ****             {
 1222              		.loc 1 2103 0 is_stmt 0 discriminator 1
 1223 004c 4208     		lsr	r2, r0, #1
 1224 004e 9342     		cmp	r3, r2
 1225 0050 F3D3     		bcc	.L89
 1226              	.LBE7:
2110:.\Generated_Source\PSoC4/USBFS.c ****     #else
 1227              		.loc 1 2110 0 is_stmt 1
 1228 0052 301C     		mov	r0, r6
 1229              	.LVL99:
 1230 0054 FFF7FEFF 		bl	USBFS_EnableOutEP
 1231              	.LVL100:
 1232 0058 04E0     		b	.L86
 1233              	.LVL101:
 1234              	.L90:
ARM GAS  C:\Users\JAVIER~1\AppData\Local\Temp\ccfijmG3.s 			page 63


2221:.\Generated_Source\PSoC4/USBFS.c ****     }
 1235              		.loc 1 2221 0
 1236 005a 0024     		mov	r4, #0
 1237 005c 02E0     		b	.L86
 1238              	.L91:
 1239 005e 0024     		mov	r4, #0
 1240 0060 00E0     		b	.L86
 1241              	.L92:
 1242 0062 0024     		mov	r4, #0
 1243              	.LVL102:
 1244              	.L86:
2225:.\Generated_Source\PSoC4/USBFS.c **** #endif /* (USBFS_16BITS_EP_ACCESS_ENABLE) */
 1245              		.loc 1 2225 0
 1246 0064 201C     		mov	r0, r4
 1247              		@ sp needed
 1248              	.LVL103:
 1249              	.LVL104:
 1250 0066 F8BD     		pop	{r3, r4, r5, r6, r7, pc}
 1251              	.L94:
 1252              		.align	2
 1253              	.L93:
 1254 0068 D0112C40 		.word	1076629968
 1255              		.cfi_endproc
 1256              	.LFE16:
 1257              		.size	USBFS_ReadOutEP16, .-USBFS_ReadOutEP16
 1258              		.section	.text.USBFS_DisableOutEP,"ax",%progbits
 1259              		.align	2
 1260              		.global	USBFS_DisableOutEP
 1261              		.code	16
 1262              		.thumb_func
 1263              		.type	USBFS_DisableOutEP, %function
 1264              	USBFS_DisableOutEP:
 1265              	.LFB18:
2258:.\Generated_Source\PSoC4/USBFS.c **** 
2259:.\Generated_Source\PSoC4/USBFS.c **** 
2260:.\Generated_Source\PSoC4/USBFS.c **** /*******************************************************************************
2261:.\Generated_Source\PSoC4/USBFS.c **** * Function Name: USBFS_DisableOutEP
2262:.\Generated_Source\PSoC4/USBFS.c **** ****************************************************************************//**
2263:.\Generated_Source\PSoC4/USBFS.c **** *
2264:.\Generated_Source\PSoC4/USBFS.c **** *  This function disables the specified USBFS OUT endpoint. Do not call this
2265:.\Generated_Source\PSoC4/USBFS.c **** *  function for IN endpoints.
2266:.\Generated_Source\PSoC4/USBFS.c **** *
2267:.\Generated_Source\PSoC4/USBFS.c **** *  \param epNumber: Contains the data endpoint number.
2268:.\Generated_Source\PSoC4/USBFS.c **** *            Valid values are between 1 and 8.
2269:.\Generated_Source\PSoC4/USBFS.c **** *
2270:.\Generated_Source\PSoC4/USBFS.c **** *******************************************************************************/
2271:.\Generated_Source\PSoC4/USBFS.c **** void USBFS_DisableOutEP(uint8 epNumber) 
2272:.\Generated_Source\PSoC4/USBFS.c **** {
 1266              		.loc 1 2272 0
 1267              		.cfi_startproc
 1268              	.LVL105:
2273:.\Generated_Source\PSoC4/USBFS.c ****     if ((epNumber > USBFS_EP0) && (epNumber < USBFS_MAX_EP))
 1269              		.loc 1 2273 0
 1270 0000 431E     		sub	r3, r0, #1
 1271 0002 072B     		cmp	r3, #7
 1272 0004 05D8     		bhi	.L95
2274:.\Generated_Source\PSoC4/USBFS.c ****     {
ARM GAS  C:\Users\JAVIER~1\AppData\Local\Temp\ccfijmG3.s 			page 64


2275:.\Generated_Source\PSoC4/USBFS.c ****         /* Set NAK response for OUT endpoint. */
2276:.\Generated_Source\PSoC4/USBFS.c ****         USBFS_SIE_EP_BASE.sieEp[epNumber].epCr0 = USBFS_MODE_NAK_OUT;
 1273              		.loc 1 2276 0
 1274 0006 8001     		lsl	r0, r0, #6
 1275              	.LVL106:
 1276 0008 024B     		ldr	r3, .L97
 1277 000a 9C46     		mov	ip, r3
 1278 000c 6044     		add	r0, r0, ip
 1279 000e 0823     		mov	r3, #8
 1280 0010 8360     		str	r3, [r0, #8]
 1281              	.L95:
2277:.\Generated_Source\PSoC4/USBFS.c ****     }
2278:.\Generated_Source\PSoC4/USBFS.c **** }
 1282              		.loc 1 2278 0
 1283              		@ sp needed
 1284 0012 7047     		bx	lr
 1285              	.L98:
 1286              		.align	2
 1287              	.L97:
 1288 0014 F0FF2B40 		.word	1076625392
 1289              		.cfi_endproc
 1290              	.LFE18:
 1291              		.size	USBFS_DisableOutEP, .-USBFS_DisableOutEP
 1292              		.section	.text.USBFS_Force,"ax",%progbits
 1293              		.align	2
 1294              		.global	USBFS_Force
 1295              		.code	16
 1296              		.thumb_func
 1297              		.type	USBFS_Force, %function
 1298              	USBFS_Force:
 1299              	.LFB19:
2279:.\Generated_Source\PSoC4/USBFS.c **** 
2280:.\Generated_Source\PSoC4/USBFS.c **** 
2281:.\Generated_Source\PSoC4/USBFS.c **** /*******************************************************************************
2282:.\Generated_Source\PSoC4/USBFS.c **** * Function Name: USBFS_Force
2283:.\Generated_Source\PSoC4/USBFS.c **** ****************************************************************************//**
2284:.\Generated_Source\PSoC4/USBFS.c **** *
2285:.\Generated_Source\PSoC4/USBFS.c **** *  This function forces a USB J, K, or SE0 state on the D+/D– lines. It provides
2286:.\Generated_Source\PSoC4/USBFS.c **** *  the necessary mechanism for a USB device application to perform a USB Remote
2287:.\Generated_Source\PSoC4/USBFS.c **** *  Wakeup. For more information, see the USB 2.0 Specification for details on
2288:.\Generated_Source\PSoC4/USBFS.c **** *  Suspend and Resume.
2289:.\Generated_Source\PSoC4/USBFS.c **** *
2290:.\Generated_Source\PSoC4/USBFS.c **** *  \param state A byte indicating which of the four bus states to enable.
2291:.\Generated_Source\PSoC4/USBFS.c **** *        Symbolic names  and their associated values are listed here:
2292:.\Generated_Source\PSoC4/USBFS.c **** *    State                      |Description
2293:.\Generated_Source\PSoC4/USBFS.c **** *    ---------------------------|----------------------------------------------
2294:.\Generated_Source\PSoC4/USBFS.c **** *    USBFS_FORCE_J   | Force a J State onto the D+/D– lines
2295:.\Generated_Source\PSoC4/USBFS.c **** *    USBFS_FORCE_K   | Force a K State onto the D+/D– lines
2296:.\Generated_Source\PSoC4/USBFS.c **** *    USBFS_FORCE_SE0 | Force a Single Ended 0 onto the D+/D– lines
2297:.\Generated_Source\PSoC4/USBFS.c **** *    USBFS_FORCE_NONE| Return bus to SIE control
2298:.\Generated_Source\PSoC4/USBFS.c **** *
2299:.\Generated_Source\PSoC4/USBFS.c **** *
2300:.\Generated_Source\PSoC4/USBFS.c **** *******************************************************************************/
2301:.\Generated_Source\PSoC4/USBFS.c **** void USBFS_Force(uint8 bState) 
2302:.\Generated_Source\PSoC4/USBFS.c **** {
 1300              		.loc 1 2302 0
 1301              		.cfi_startproc
ARM GAS  C:\Users\JAVIER~1\AppData\Local\Temp\ccfijmG3.s 			page 65


 1302              	.LVL107:
2303:.\Generated_Source\PSoC4/USBFS.c ****     /* This registers is used only for manual control of SIE (no masking is
2304:.\Generated_Source\PSoC4/USBFS.c ****     * needed before write into it).
2305:.\Generated_Source\PSoC4/USBFS.c ****     */
2306:.\Generated_Source\PSoC4/USBFS.c ****     USBFS_USBIO_CR0_REG = bState;
 1303              		.loc 1 2306 0
 1304 0000 014B     		ldr	r3, .L100
 1305 0002 1860     		str	r0, [r3]
2307:.\Generated_Source\PSoC4/USBFS.c **** }
 1306              		.loc 1 2307 0
 1307              		@ sp needed
 1308 0004 7047     		bx	lr
 1309              	.L101:
 1310 0006 C046     		.align	2
 1311              	.L100:
 1312 0008 40002C40 		.word	1076625472
 1313              		.cfi_endproc
 1314              	.LFE19:
 1315              		.size	USBFS_Force, .-USBFS_Force
 1316              		.section	.text.USBFS_GetEPAckState,"ax",%progbits
 1317              		.align	2
 1318              		.global	USBFS_GetEPAckState
 1319              		.code	16
 1320              		.thumb_func
 1321              		.type	USBFS_GetEPAckState, %function
 1322              	USBFS_GetEPAckState:
 1323              	.LFB20:
2308:.\Generated_Source\PSoC4/USBFS.c **** 
2309:.\Generated_Source\PSoC4/USBFS.c **** 
2310:.\Generated_Source\PSoC4/USBFS.c **** /*******************************************************************************
2311:.\Generated_Source\PSoC4/USBFS.c **** * Function Name: USBFS_GetEPAckState
2312:.\Generated_Source\PSoC4/USBFS.c **** ****************************************************************************//**
2313:.\Generated_Source\PSoC4/USBFS.c **** *
2314:.\Generated_Source\PSoC4/USBFS.c **** *  This function determines whether an ACK transaction occurred on this endpoint
2315:.\Generated_Source\PSoC4/USBFS.c **** *  by reading the ACK bit in the control register of the endpoint. It does not
2316:.\Generated_Source\PSoC4/USBFS.c **** *  clear the ACK bit.
2317:.\Generated_Source\PSoC4/USBFS.c **** *
2318:.\Generated_Source\PSoC4/USBFS.c **** *  \param epNumber Contains the data endpoint number.
2319:.\Generated_Source\PSoC4/USBFS.c **** *            Valid values are between 1 and 8.
2320:.\Generated_Source\PSoC4/USBFS.c **** *
2321:.\Generated_Source\PSoC4/USBFS.c **** *  \return
2322:.\Generated_Source\PSoC4/USBFS.c **** *  If an ACKed transaction occurred, this function returns a non-zero value.
2323:.\Generated_Source\PSoC4/USBFS.c **** *  Otherwise, it returns zero.
2324:.\Generated_Source\PSoC4/USBFS.c **** *
2325:.\Generated_Source\PSoC4/USBFS.c **** *******************************************************************************/
2326:.\Generated_Source\PSoC4/USBFS.c **** uint8 USBFS_GetEPAckState(uint8 epNumber) 
2327:.\Generated_Source\PSoC4/USBFS.c **** {
 1324              		.loc 1 2327 0
